
C:/Users/bryce/reciever_pico/build/receiver.elf:     file format elf32-littlearm

Sections:
Idx Name          Size      VMA       LMA       File off  Algn
  0 .boot2        00000100  10000000  10000000  00001000  2**0
                  CONTENTS, ALLOC, LOAD, READONLY, CODE
  1 .text         00007058  10000100  10000100  00001100  2**3
                  CONTENTS, ALLOC, LOAD, READONLY, CODE
  2 .rodata       00000570  10007158  10007158  00008158  2**3
                  CONTENTS, ALLOC, LOAD, READONLY, DATA
  3 .binary_info  00000020  100076c8  100076c8  000086c8  2**2
                  CONTENTS, ALLOC, LOAD, READONLY, DATA
  4 .ram_vector_table 000000c0  20000000  20000000  0000a000  2**2
                  ALLOC
  5 .data         00000e60  200000c0  100076e8  000090c0  2**4
                  CONTENTS, ALLOC, LOAD, READONLY, CODE
  6 .uninitialized_data 00000000  20000f20  20000f20  00009f20  2**0
                  CONTENTS
  7 .scratch_x    00000000  20040000  20040000  00009f20  2**0
                  CONTENTS
  8 .scratch_y    00000000  20041000  20041000  00009f20  2**0
                  CONTENTS
  9 .bss          00000da0  20000f20  20000f20  0000a000  2**3
                  ALLOC
 10 .heap         00000800  20001cc0  20001cc0  00009f20  2**2
                  CONTENTS, READONLY
 11 .stack_dummy  00000800  20041000  20041000  0000a720  2**5
                  CONTENTS, READONLY
 12 .ARM.attributes 00000028  00000000  00000000  0000af20  2**0
                  CONTENTS, READONLY
 13 .comment      00000049  00000000  00000000  0000af48  2**0
                  CONTENTS, READONLY
 14 .debug_frame  00000028  00000000  00000000  0000af94  2**2
                  CONTENTS, READONLY, DEBUGGING, OCTETS

C:/Users/bryce/reciever_pico/build/receiver.elf:     file format elf32-littlearm


Disassembly of section .boot2:

10000000 <__boot2_start__>:
10000000:	4b32b500 	.word	0x4b32b500
10000004:	60582021 	.word	0x60582021
10000008:	21026898 	.word	0x21026898
1000000c:	60984388 	.word	0x60984388
10000010:	611860d8 	.word	0x611860d8
10000014:	4b2e6158 	.word	0x4b2e6158
10000018:	60992100 	.word	0x60992100
1000001c:	61592102 	.word	0x61592102
10000020:	22f02101 	.word	0x22f02101
10000024:	492b5099 	.word	0x492b5099
10000028:	21016019 	.word	0x21016019
1000002c:	20356099 	.word	0x20356099
10000030:	f844f000 	.word	0xf844f000
10000034:	42902202 	.word	0x42902202
10000038:	2106d014 	.word	0x2106d014
1000003c:	f0006619 	.word	0xf0006619
10000040:	6e19f834 	.word	0x6e19f834
10000044:	66192101 	.word	0x66192101
10000048:	66182000 	.word	0x66182000
1000004c:	f000661a 	.word	0xf000661a
10000050:	6e19f82c 	.word	0x6e19f82c
10000054:	6e196e19 	.word	0x6e196e19
10000058:	f0002005 	.word	0xf0002005
1000005c:	2101f82f 	.word	0x2101f82f
10000060:	d1f94208 	.word	0xd1f94208
10000064:	60992100 	.word	0x60992100
10000068:	6019491b 	.word	0x6019491b
1000006c:	60592100 	.word	0x60592100
10000070:	481b491a 	.word	0x481b491a
10000074:	21016001 	.word	0x21016001
10000078:	21eb6099 	.word	0x21eb6099
1000007c:	21a06619 	.word	0x21a06619
10000080:	f0006619 	.word	0xf0006619
10000084:	2100f812 	.word	0x2100f812
10000088:	49166099 	.word	0x49166099
1000008c:	60014814 	.word	0x60014814
10000090:	60992101 	.word	0x60992101
10000094:	2800bc01 	.word	0x2800bc01
10000098:	4700d000 	.word	0x4700d000
1000009c:	49134812 	.word	0x49134812
100000a0:	c8036008 	.word	0xc8036008
100000a4:	8808f380 	.word	0x8808f380
100000a8:	b5034708 	.word	0xb5034708
100000ac:	20046a99 	.word	0x20046a99
100000b0:	d0fb4201 	.word	0xd0fb4201
100000b4:	42012001 	.word	0x42012001
100000b8:	bd03d1f8 	.word	0xbd03d1f8
100000bc:	6618b502 	.word	0x6618b502
100000c0:	f7ff6618 	.word	0xf7ff6618
100000c4:	6e18fff2 	.word	0x6e18fff2
100000c8:	bd026e18 	.word	0xbd026e18
100000cc:	40020000 	.word	0x40020000
100000d0:	18000000 	.word	0x18000000
100000d4:	00070000 	.word	0x00070000
100000d8:	005f0300 	.word	0x005f0300
100000dc:	00002221 	.word	0x00002221
100000e0:	180000f4 	.word	0x180000f4
100000e4:	a0002022 	.word	0xa0002022
100000e8:	10000100 	.word	0x10000100
100000ec:	e000ed08 	.word	0xe000ed08
	...
100000fc:	7a4eb274 	.word	0x7a4eb274

Disassembly of section .text:

10000100 <__VECTOR_TABLE>:
10000100:	20042000 	.word	0x20042000
10000104:	100001f7 	.word	0x100001f7
10000108:	100001c3 	.word	0x100001c3
1000010c:	100001c5 	.word	0x100001c5
10000110:	100001c1 	.word	0x100001c1
10000114:	100001c1 	.word	0x100001c1
10000118:	100001c1 	.word	0x100001c1
1000011c:	100001c1 	.word	0x100001c1
10000120:	100001c1 	.word	0x100001c1
10000124:	100001c1 	.word	0x100001c1
10000128:	100001c1 	.word	0x100001c1
1000012c:	100001c7 	.word	0x100001c7
10000130:	100001c1 	.word	0x100001c1
10000134:	100001c1 	.word	0x100001c1
10000138:	100001c9 	.word	0x100001c9
1000013c:	100001cb 	.word	0x100001cb
10000140:	100001cd 	.word	0x100001cd
10000144:	100001cd 	.word	0x100001cd
10000148:	100001cd 	.word	0x100001cd
1000014c:	100001cd 	.word	0x100001cd
10000150:	100001cd 	.word	0x100001cd
10000154:	100001cd 	.word	0x100001cd
10000158:	100001cd 	.word	0x100001cd
1000015c:	100001cd 	.word	0x100001cd
10000160:	100001cd 	.word	0x100001cd
10000164:	100001cd 	.word	0x100001cd
10000168:	100001cd 	.word	0x100001cd
1000016c:	100001cd 	.word	0x100001cd
10000170:	100001cd 	.word	0x100001cd
10000174:	100001cd 	.word	0x100001cd
10000178:	100001cd 	.word	0x100001cd
1000017c:	100001cd 	.word	0x100001cd
10000180:	100001cd 	.word	0x100001cd
10000184:	100001cd 	.word	0x100001cd
10000188:	100001cd 	.word	0x100001cd
1000018c:	100001cd 	.word	0x100001cd
10000190:	100001cd 	.word	0x100001cd
10000194:	100001cd 	.word	0x100001cd
10000198:	100001cd 	.word	0x100001cd
1000019c:	100001cd 	.word	0x100001cd
100001a0:	100001cd 	.word	0x100001cd
100001a4:	100001cd 	.word	0x100001cd
100001a8:	100001cd 	.word	0x100001cd
100001ac:	100001cd 	.word	0x100001cd
100001b0:	100001cd 	.word	0x100001cd
100001b4:	100001cd 	.word	0x100001cd
100001b8:	100001cd 	.word	0x100001cd
100001bc:	100001cd 	.word	0x100001cd

100001c0 <isr_invalid>:
100001c0:	be00      	bkpt	0x0000

100001c2 <isr_nmi>:
100001c2:	be00      	bkpt	0x0000

100001c4 <isr_hardfault>:
100001c4:	be00      	bkpt	0x0000

100001c6 <isr_svcall>:
100001c6:	be00      	bkpt	0x0000

100001c8 <isr_pendsv>:
100001c8:	be00      	bkpt	0x0000

100001ca <isr_systick>:
100001ca:	be00      	bkpt	0x0000

100001cc <__unhandled_user_irq>:
100001cc:	f3ef 8005 	mrs	r0, IPSR
100001d0:	3810      	subs	r0, #16

100001d2 <unhandled_user_irq_num_in_r0>:
100001d2:	be00      	bkpt	0x0000

100001d4 <binary_info_header>:
100001d4:	7188ebf2 	.word	0x7188ebf2
100001d8:	100076c8 	.word	0x100076c8
100001dc:	100076e8 	.word	0x100076e8
100001e0:	10000234 	.word	0x10000234
100001e4:	e71aa390 	.word	0xe71aa390

100001e8 <_entry_point>:
100001e8:	2000      	movs	r0, #0
100001ea:	491f      	ldr	r1, [pc, #124]	; (10000268 <hold_non_core0_in_bootrom+0xa>)
100001ec:	6008      	str	r0, [r1, #0]
100001ee:	c806      	ldmia	r0!, {r1, r2}
100001f0:	f381 8808 	msr	MSP, r1
100001f4:	4710      	bx	r2

100001f6 <_reset_handler>:
100001f6:	481d      	ldr	r0, [pc, #116]	; (1000026c <hold_non_core0_in_bootrom+0xe>)
100001f8:	6800      	ldr	r0, [r0, #0]
100001fa:	2800      	cmp	r0, #0
100001fc:	d12f      	bne.n	1000025e <hold_non_core0_in_bootrom>
100001fe:	a40d      	add	r4, pc, #52	; (adr r4, 10000234 <data_cpy_table>)
10000200:	cc0e      	ldmia	r4!, {r1, r2, r3}
10000202:	2900      	cmp	r1, #0
10000204:	d002      	beq.n	1000020c <_reset_handler+0x16>
10000206:	f000 f812 	bl	1000022e <data_cpy>
1000020a:	e7f9      	b.n	10000200 <_reset_handler+0xa>
1000020c:	4918      	ldr	r1, [pc, #96]	; (10000270 <hold_non_core0_in_bootrom+0x12>)
1000020e:	4a19      	ldr	r2, [pc, #100]	; (10000274 <hold_non_core0_in_bootrom+0x16>)
10000210:	2000      	movs	r0, #0
10000212:	e000      	b.n	10000216 <bss_fill_test>

10000214 <bss_fill_loop>:
10000214:	c101      	stmia	r1!, {r0}

10000216 <bss_fill_test>:
10000216:	4291      	cmp	r1, r2
10000218:	d1fc      	bne.n	10000214 <bss_fill_loop>

1000021a <platform_entry>:
1000021a:	4917      	ldr	r1, [pc, #92]	; (10000278 <hold_non_core0_in_bootrom+0x1a>)
1000021c:	4788      	blx	r1
1000021e:	4917      	ldr	r1, [pc, #92]	; (1000027c <hold_non_core0_in_bootrom+0x1e>)
10000220:	4788      	blx	r1
10000222:	4917      	ldr	r1, [pc, #92]	; (10000280 <hold_non_core0_in_bootrom+0x22>)
10000224:	4788      	blx	r1
10000226:	be00      	bkpt	0x0000
10000228:	e7fd      	b.n	10000226 <platform_entry+0xc>

1000022a <data_cpy_loop>:
1000022a:	c901      	ldmia	r1!, {r0}
1000022c:	c201      	stmia	r2!, {r0}

1000022e <data_cpy>:
1000022e:	429a      	cmp	r2, r3
10000230:	d3fb      	bcc.n	1000022a <data_cpy_loop>
10000232:	4770      	bx	lr

10000234 <data_cpy_table>:
10000234:	100076e8 	.word	0x100076e8
10000238:	200000c0 	.word	0x200000c0
1000023c:	20000f20 	.word	0x20000f20
10000240:	10008548 	.word	0x10008548
10000244:	20040000 	.word	0x20040000
10000248:	20040000 	.word	0x20040000
1000024c:	10008548 	.word	0x10008548
10000250:	20041000 	.word	0x20041000
10000254:	20041000 	.word	0x20041000
10000258:	00000000 	.word	0x00000000
1000025c:	4770      	bx	lr

1000025e <hold_non_core0_in_bootrom>:
1000025e:	4809      	ldr	r0, [pc, #36]	; (10000284 <hold_non_core0_in_bootrom+0x26>)
10000260:	f003 fc00 	bl	10003a64 <rom_func_lookup>
10000264:	4700      	bx	r0
10000266:	0000      	.short	0x0000
10000268:	e000ed08 	.word	0xe000ed08
1000026c:	d0000000 	.word	0xd0000000
10000270:	20000f20 	.word	0x20000f20
10000274:	20001cc0 	.word	0x20001cc0
10000278:	10002359 	.word	0x10002359
1000027c:	1000051d 	.word	0x1000051d
10000280:	1000244d 	.word	0x1000244d
10000284:	00005657 	.word	0x00005657

10000288 <__bi_50>:
10000288:	50520006 5360b3ab 10007488              ..RP..`S.t..

10000294 <__bi_38>:
10000294:	50520006 02031c86 10007498              ..RP.....t..

100002a0 <__bi_30>:
100002a0:	50520006 9da22254 100074a4              ..RPT"...t..

100002ac <__bi_22>:
100002ac:	50520005 68f465de 10008548              ..RP.e.hH...

100002b8 <_init>:
100002b8:	b5f8      	push	{r3, r4, r5, r6, r7, lr}
100002ba:	46c0      	nop			; (mov r8, r8)

100002bc <__do_global_dtors_aux>:
100002bc:	b510      	push	{r4, lr}
100002be:	4c06      	ldr	r4, [pc, #24]	; (100002d8 <__do_global_dtors_aux+0x1c>)
100002c0:	7823      	ldrb	r3, [r4, #0]
100002c2:	2b00      	cmp	r3, #0
100002c4:	d107      	bne.n	100002d6 <__do_global_dtors_aux+0x1a>
100002c6:	4b05      	ldr	r3, [pc, #20]	; (100002dc <__do_global_dtors_aux+0x20>)
100002c8:	2b00      	cmp	r3, #0
100002ca:	d002      	beq.n	100002d2 <__do_global_dtors_aux+0x16>
100002cc:	4804      	ldr	r0, [pc, #16]	; (100002e0 <__do_global_dtors_aux+0x24>)
100002ce:	e000      	b.n	100002d2 <__do_global_dtors_aux+0x16>
100002d0:	bf00      	nop
100002d2:	2301      	movs	r3, #1
100002d4:	7023      	strb	r3, [r4, #0]
100002d6:	bd10      	pop	{r4, pc}
100002d8:	20001228 	.word	0x20001228
100002dc:	00000000 	.word	0x00000000
100002e0:	10007158 	.word	0x10007158

100002e4 <frame_dummy>:
100002e4:	4b04      	ldr	r3, [pc, #16]	; (100002f8 <frame_dummy+0x14>)
100002e6:	b510      	push	{r4, lr}
100002e8:	2b00      	cmp	r3, #0
100002ea:	d003      	beq.n	100002f4 <frame_dummy+0x10>
100002ec:	4903      	ldr	r1, [pc, #12]	; (100002fc <frame_dummy+0x18>)
100002ee:	4804      	ldr	r0, [pc, #16]	; (10000300 <frame_dummy+0x1c>)
100002f0:	e000      	b.n	100002f4 <frame_dummy+0x10>
100002f2:	bf00      	nop
100002f4:	bd10      	pop	{r4, pc}
100002f6:	46c0      	nop			; (mov r8, r8)
100002f8:	00000000 	.word	0x00000000
100002fc:	2000122c 	.word	0x2000122c
10000300:	10007158 	.word	0x10007158

10000304 <_Z11setup_servojPjS_>:
10000304:	b570      	push	{r4, r5, r6, lr}
10000306:	000d      	movs	r5, r1
10000308:	0004      	movs	r4, r0
1000030a:	2104      	movs	r1, #4
1000030c:	0016      	movs	r6, r2
1000030e:	f000 fab1 	bl	10000874 <gpio_set_function>
10000312:	2101      	movs	r1, #1
10000314:	0723      	lsls	r3, r4, #28
10000316:	0f5b      	lsrs	r3, r3, #29
10000318:	400c      	ands	r4, r1
1000031a:	602b      	str	r3, [r5, #0]
1000031c:	6034      	str	r4, [r6, #0]
1000031e:	682a      	ldr	r2, [r5, #0]
10000320:	0093      	lsls	r3, r2, #2
10000322:	189b      	adds	r3, r3, r2
10000324:	4a07      	ldr	r2, [pc, #28]	; (10000344 <_Z11setup_servojPjS_+0x40>)
10000326:	009b      	lsls	r3, r3, #2
10000328:	4694      	mov	ip, r2
1000032a:	2200      	movs	r2, #0
1000032c:	4463      	add	r3, ip
1000032e:	601a      	str	r2, [r3, #0]
10000330:	609a      	str	r2, [r3, #8]
10000332:	60da      	str	r2, [r3, #12]
10000334:	4a04      	ldr	r2, [pc, #16]	; (10000348 <_Z11setup_servojPjS_+0x44>)
10000336:	611a      	str	r2, [r3, #16]
10000338:	2280      	movs	r2, #128	; 0x80
1000033a:	00d2      	lsls	r2, r2, #3
1000033c:	605a      	str	r2, [r3, #4]
1000033e:	6019      	str	r1, [r3, #0]
10000340:	bd70      	pop	{r4, r5, r6, pc}
10000342:	46c0      	nop			; (mov r8, r8)
10000344:	40050000 	.word	0x40050000
10000348:	00009896 	.word	0x00009896

1000034c <_Z16setup_motor_pinsv>:
1000034c:	b5f0      	push	{r4, r5, r6, r7, lr}
1000034e:	46d6      	mov	lr, sl
10000350:	464f      	mov	r7, r9
10000352:	4646      	mov	r6, r8
10000354:	2002      	movs	r0, #2
10000356:	b5c0      	push	{r6, r7, lr}
10000358:	24d0      	movs	r4, #208	; 0xd0
1000035a:	f000 faa3 	bl	100008a4 <gpio_init>
1000035e:	2304      	movs	r3, #4
10000360:	0624      	lsls	r4, r4, #24
10000362:	6263      	str	r3, [r4, #36]	; 0x24
10000364:	2003      	movs	r0, #3
10000366:	f000 fa9d 	bl	100008a4 <gpio_init>
1000036a:	2308      	movs	r3, #8
1000036c:	2004      	movs	r0, #4
1000036e:	6263      	str	r3, [r4, #36]	; 0x24
10000370:	f000 fa98 	bl	100008a4 <gpio_init>
10000374:	2310      	movs	r3, #16
10000376:	2005      	movs	r0, #5
10000378:	6263      	str	r3, [r4, #36]	; 0x24
1000037a:	f000 fa93 	bl	100008a4 <gpio_init>
1000037e:	2320      	movs	r3, #32
10000380:	2104      	movs	r1, #4
10000382:	6263      	str	r3, [r4, #36]	; 0x24
10000384:	2006      	movs	r0, #6
10000386:	f000 fa75 	bl	10000874 <gpio_set_function>
1000038a:	4b14      	ldr	r3, [pc, #80]	; (100003dc <_Z16setup_motor_pinsv+0x90>)
1000038c:	2401      	movs	r4, #1
1000038e:	4699      	mov	r9, r3
10000390:	4b13      	ldr	r3, [pc, #76]	; (100003e0 <_Z16setup_motor_pinsv+0x94>)
10000392:	4f14      	ldr	r7, [pc, #80]	; (100003e4 <_Z16setup_motor_pinsv+0x98>)
10000394:	469a      	mov	sl, r3
10000396:	464b      	mov	r3, r9
10000398:	4652      	mov	r2, sl
1000039a:	64da      	str	r2, [r3, #76]	; 0x4c
1000039c:	0022      	movs	r2, r4
1000039e:	4b12      	ldr	r3, [pc, #72]	; (100003e8 <_Z16setup_motor_pinsv+0x9c>)
100003a0:	4e12      	ldr	r6, [pc, #72]	; (100003ec <_Z16setup_motor_pinsv+0xa0>)
100003a2:	4698      	mov	r8, r3
100003a4:	681b      	ldr	r3, [r3, #0]
100003a6:	4d12      	ldr	r5, [pc, #72]	; (100003f0 <_Z16setup_motor_pinsv+0xa4>)
100003a8:	041b      	lsls	r3, r3, #16
100003aa:	0c1b      	lsrs	r3, r3, #16
100003ac:	603b      	str	r3, [r7, #0]
100003ae:	6833      	ldr	r3, [r6, #0]
100003b0:	2104      	movs	r1, #4
100003b2:	439a      	bics	r2, r3
100003b4:	602a      	str	r2, [r5, #0]
100003b6:	2007      	movs	r0, #7
100003b8:	f000 fa5c 	bl	10000874 <gpio_set_function>
100003bc:	464b      	mov	r3, r9
100003be:	4652      	mov	r2, sl
100003c0:	64da      	str	r2, [r3, #76]	; 0x4c
100003c2:	4643      	mov	r3, r8
100003c4:	681b      	ldr	r3, [r3, #0]
100003c6:	0c1b      	lsrs	r3, r3, #16
100003c8:	041b      	lsls	r3, r3, #16
100003ca:	603b      	str	r3, [r7, #0]
100003cc:	6833      	ldr	r3, [r6, #0]
100003ce:	439c      	bics	r4, r3
100003d0:	602c      	str	r4, [r5, #0]
100003d2:	bce0      	pop	{r5, r6, r7}
100003d4:	46ba      	mov	sl, r7
100003d6:	46b1      	mov	r9, r6
100003d8:	46a8      	mov	r8, r5
100003da:	bdf0      	pop	{r4, r5, r6, r7, pc}
100003dc:	40050000 	.word	0x40050000
100003e0:	0000ffff 	.word	0x0000ffff
100003e4:	40051048 	.word	0x40051048
100003e8:	40050048 	.word	0x40050048
100003ec:	4005003c 	.word	0x4005003c
100003f0:	4005103c 	.word	0x4005103c

100003f4 <_Z10motor_movettt>:
100003f4:	23d0      	movs	r3, #208	; 0xd0
100003f6:	b570      	push	{r4, r5, r6, lr}
100003f8:	061b      	lsls	r3, r3, #24
100003fa:	1a8d      	subs	r5, r1, r2
100003fc:	2d00      	cmp	r5, #0
100003fe:	dd35      	ble.n	1000046c <_Z10motor_movettt+0x78>
10000400:	2204      	movs	r2, #4
10000402:	615a      	str	r2, [r3, #20]
10000404:	3204      	adds	r2, #4
10000406:	619a      	str	r2, [r3, #24]
10000408:	3208      	adds	r2, #8
1000040a:	615a      	str	r2, [r3, #20]
1000040c:	3210      	adds	r2, #16
1000040e:	619a      	str	r2, [r3, #24]
10000410:	287a      	cmp	r0, #122	; 0x7a
10000412:	d912      	bls.n	1000043a <_Z10motor_movettt+0x46>
10000414:	2885      	cmp	r0, #133	; 0x85
10000416:	d844      	bhi.n	100004a2 <_Z10motor_movettt+0xae>
10000418:	0228      	lsls	r0, r5, #8
1000041a:	1828      	adds	r0, r5, r0
1000041c:	b284      	uxth	r4, r0
1000041e:	0400      	lsls	r0, r0, #16
10000420:	493c      	ldr	r1, [pc, #240]	; (10000514 <_Z10motor_movettt+0x120>)
10000422:	4a3d      	ldr	r2, [pc, #244]	; (10000518 <_Z10motor_movettt+0x124>)
10000424:	680b      	ldr	r3, [r1, #0]
10000426:	4063      	eors	r3, r4
10000428:	041b      	lsls	r3, r3, #16
1000042a:	0c1b      	lsrs	r3, r3, #16
1000042c:	6013      	str	r3, [r2, #0]
1000042e:	680b      	ldr	r3, [r1, #0]
10000430:	4058      	eors	r0, r3
10000432:	0c00      	lsrs	r0, r0, #16
10000434:	0400      	lsls	r0, r0, #16
10000436:	6010      	str	r0, [r2, #0]
10000438:	bd70      	pop	{r4, r5, r6, pc}
1000043a:	0203      	lsls	r3, r0, #8
1000043c:	217a      	movs	r1, #122	; 0x7a
1000043e:	1a18      	subs	r0, r3, r0
10000440:	f003 fb42 	bl	10003ac8 <__wrap___aeabi_idiv>
10000444:	21ff      	movs	r1, #255	; 0xff
10000446:	4368      	muls	r0, r5
10000448:	f003 fb3e 	bl	10003ac8 <__wrap___aeabi_idiv>
1000044c:	0003      	movs	r3, r0
1000044e:	28ff      	cmp	r0, #255	; 0xff
10000450:	dc45      	bgt.n	100004de <_Z10motor_movettt+0xea>
10000452:	021a      	lsls	r2, r3, #8
10000454:	189b      	adds	r3, r3, r2
10000456:	b29c      	uxth	r4, r3
10000458:	20ff      	movs	r0, #255	; 0xff
1000045a:	2dff      	cmp	r5, #255	; 0xff
1000045c:	dc02      	bgt.n	10000464 <_Z10motor_movettt+0x70>
1000045e:	43e8      	mvns	r0, r5
10000460:	17c0      	asrs	r0, r0, #31
10000462:	4028      	ands	r0, r5
10000464:	0203      	lsls	r3, r0, #8
10000466:	18c0      	adds	r0, r0, r3
10000468:	0400      	lsls	r0, r0, #16
1000046a:	e7d9      	b.n	10000420 <_Z10motor_movettt+0x2c>
1000046c:	2d00      	cmp	r5, #0
1000046e:	d03d      	beq.n	100004ec <_Z10motor_movettt+0xf8>
10000470:	2404      	movs	r4, #4
10000472:	619c      	str	r4, [r3, #24]
10000474:	3404      	adds	r4, #4
10000476:	615c      	str	r4, [r3, #20]
10000478:	3408      	adds	r4, #8
1000047a:	619c      	str	r4, [r3, #24]
1000047c:	3410      	adds	r4, #16
1000047e:	615c      	str	r4, [r3, #20]
10000480:	1a55      	subs	r5, r2, r1
10000482:	287a      	cmp	r0, #122	; 0x7a
10000484:	d8c6      	bhi.n	10000414 <_Z10motor_movettt+0x20>
10000486:	0203      	lsls	r3, r0, #8
10000488:	1a18      	subs	r0, r3, r0
1000048a:	217a      	movs	r1, #122	; 0x7a
1000048c:	f003 fb1c 	bl	10003ac8 <__wrap___aeabi_idiv>
10000490:	4368      	muls	r0, r5
10000492:	0003      	movs	r3, r0
10000494:	2400      	movs	r4, #0
10000496:	33fe      	adds	r3, #254	; 0xfe
10000498:	dbde      	blt.n	10000458 <_Z10motor_movettt+0x64>
1000049a:	21ff      	movs	r1, #255	; 0xff
1000049c:	f003 fb14 	bl	10003ac8 <__wrap___aeabi_idiv>
100004a0:	e7d4      	b.n	1000044c <_Z10motor_movettt+0x58>
100004a2:	3886      	subs	r0, #134	; 0x86
100004a4:	0203      	lsls	r3, r0, #8
100004a6:	2179      	movs	r1, #121	; 0x79
100004a8:	1ac0      	subs	r0, r0, r3
100004aa:	f003 fb0d 	bl	10003ac8 <__wrap___aeabi_idiv>
100004ae:	30ff      	adds	r0, #255	; 0xff
100004b0:	24ff      	movs	r4, #255	; 0xff
100004b2:	4368      	muls	r0, r5
100004b4:	2dff      	cmp	r5, #255	; 0xff
100004b6:	dc02      	bgt.n	100004be <_Z10motor_movettt+0xca>
100004b8:	43ec      	mvns	r4, r5
100004ba:	17e4      	asrs	r4, r4, #31
100004bc:	402c      	ands	r4, r5
100004be:	0003      	movs	r3, r0
100004c0:	33fe      	adds	r3, #254	; 0xfe
100004c2:	db0e      	blt.n	100004e2 <_Z10motor_movettt+0xee>
100004c4:	21ff      	movs	r1, #255	; 0xff
100004c6:	f003 faff 	bl	10003ac8 <__wrap___aeabi_idiv>
100004ca:	28ff      	cmp	r0, #255	; 0xff
100004cc:	dd00      	ble.n	100004d0 <_Z10motor_movettt+0xdc>
100004ce:	20ff      	movs	r0, #255	; 0xff
100004d0:	0203      	lsls	r3, r0, #8
100004d2:	0222      	lsls	r2, r4, #8
100004d4:	18c0      	adds	r0, r0, r3
100004d6:	18a4      	adds	r4, r4, r2
100004d8:	0400      	lsls	r0, r0, #16
100004da:	b2a4      	uxth	r4, r4
100004dc:	e7a0      	b.n	10000420 <_Z10motor_movettt+0x2c>
100004de:	23ff      	movs	r3, #255	; 0xff
100004e0:	e7b7      	b.n	10000452 <_Z10motor_movettt+0x5e>
100004e2:	0222      	lsls	r2, r4, #8
100004e4:	18a4      	adds	r4, r4, r2
100004e6:	2000      	movs	r0, #0
100004e8:	b2a4      	uxth	r4, r4
100004ea:	e799      	b.n	10000420 <_Z10motor_movettt+0x2c>
100004ec:	2204      	movs	r2, #4
100004ee:	619a      	str	r2, [r3, #24]
100004f0:	3204      	adds	r2, #4
100004f2:	619a      	str	r2, [r3, #24]
100004f4:	3208      	adds	r2, #8
100004f6:	619a      	str	r2, [r3, #24]
100004f8:	4906      	ldr	r1, [pc, #24]	; (10000514 <_Z10motor_movettt+0x120>)
100004fa:	3210      	adds	r2, #16
100004fc:	619a      	str	r2, [r3, #24]
100004fe:	680b      	ldr	r3, [r1, #0]
10000500:	4a05      	ldr	r2, [pc, #20]	; (10000518 <_Z10motor_movettt+0x124>)
10000502:	041b      	lsls	r3, r3, #16
10000504:	0c1b      	lsrs	r3, r3, #16
10000506:	6013      	str	r3, [r2, #0]
10000508:	680b      	ldr	r3, [r1, #0]
1000050a:	0c1b      	lsrs	r3, r3, #16
1000050c:	041b      	lsls	r3, r3, #16
1000050e:	6013      	str	r3, [r2, #0]
10000510:	e792      	b.n	10000438 <_Z10motor_movettt+0x44>
10000512:	46c0      	nop			; (mov r8, r8)
10000514:	40050048 	.word	0x40050048
10000518:	40051048 	.word	0x40051048

1000051c <main>:
1000051c:	b5f0      	push	{r4, r5, r6, r7, lr}
1000051e:	46de      	mov	lr, fp
10000520:	4645      	mov	r5, r8
10000522:	4657      	mov	r7, sl
10000524:	464e      	mov	r6, r9
10000526:	b5e0      	push	{r5, r6, r7, lr}
10000528:	b091      	sub	sp, #68	; 0x44
1000052a:	f004 fc15 	bl	10004d58 <stdio_init_all>
1000052e:	200a      	movs	r0, #10
10000530:	f000 f9b8 	bl	100008a4 <gpio_init>
10000534:	23d0      	movs	r3, #208	; 0xd0
10000536:	2280      	movs	r2, #128	; 0x80
10000538:	21e1      	movs	r1, #225	; 0xe1
1000053a:	061b      	lsls	r3, r3, #24
1000053c:	00d2      	lsls	r2, r2, #3
1000053e:	625a      	str	r2, [r3, #36]	; 0x24
10000540:	0249      	lsls	r1, r1, #9
10000542:	619a      	str	r2, [r3, #24]
10000544:	48b2      	ldr	r0, [pc, #712]	; (10000810 <main+0x2f4>)
10000546:	f001 fc1d 	bl	10001d84 <uart_init>
1000054a:	2102      	movs	r1, #2
1000054c:	2000      	movs	r0, #0
1000054e:	f000 f991 	bl	10000874 <gpio_set_function>
10000552:	2102      	movs	r1, #2
10000554:	2001      	movs	r0, #1
10000556:	f000 f98d 	bl	10000874 <gpio_set_function>
1000055a:	2008      	movs	r0, #8
1000055c:	4aad      	ldr	r2, [pc, #692]	; (10000814 <main+0x2f8>)
1000055e:	49ae      	ldr	r1, [pc, #696]	; (10000818 <main+0x2fc>)
10000560:	f7ff fed0 	bl	10000304 <_Z11setup_servojPjS_>
10000564:	4aad      	ldr	r2, [pc, #692]	; (1000081c <main+0x300>)
10000566:	49ae      	ldr	r1, [pc, #696]	; (10000820 <main+0x304>)
10000568:	2009      	movs	r0, #9
1000056a:	f7ff fecb 	bl	10000304 <_Z11setup_servojPjS_>
1000056e:	f7ff feed 	bl	1000034c <_Z16setup_motor_pinsv>
10000572:	20fa      	movs	r0, #250	; 0xfa
10000574:	0080      	lsls	r0, r0, #2
10000576:	f001 f82b 	bl	100015d0 <sleep_ms>
1000057a:	48aa      	ldr	r0, [pc, #680]	; (10000824 <main+0x308>)
1000057c:	f004 fb3e 	bl	10004bfc <__wrap_puts>
10000580:	2300      	movs	r3, #0
10000582:	9308      	str	r3, [sp, #32]
10000584:	ab06      	add	r3, sp, #24
10000586:	469c      	mov	ip, r3
10000588:	4ba7      	ldr	r3, [pc, #668]	; (10000828 <main+0x30c>)
1000058a:	2525      	movs	r5, #37	; 0x25
1000058c:	4698      	mov	r8, r3
1000058e:	4ba7      	ldr	r3, [pc, #668]	; (1000082c <main+0x310>)
10000590:	ac0d      	add	r4, sp, #52	; 0x34
10000592:	469b      	mov	fp, r3
10000594:	4ba6      	ldr	r3, [pc, #664]	; (10000830 <main+0x314>)
10000596:	4465      	add	r5, ip
10000598:	469a      	mov	sl, r3
1000059a:	4ba6      	ldr	r3, [pc, #664]	; (10000834 <main+0x318>)
1000059c:	4699      	mov	r9, r3
1000059e:	2110      	movs	r1, #16
100005a0:	4a9b      	ldr	r2, [pc, #620]	; (10000810 <main+0x2f4>)
100005a2:	6993      	ldr	r3, [r2, #24]
100005a4:	4219      	tst	r1, r3
100005a6:	d1fc      	bne.n	100005a2 <main+0x86>
100005a8:	6813      	ldr	r3, [r2, #0]
100005aa:	b2db      	uxtb	r3, r3
100005ac:	2baa      	cmp	r3, #170	; 0xaa
100005ae:	d1f8      	bne.n	100005a2 <main+0x86>
100005b0:	0020      	movs	r0, r4
100005b2:	2110      	movs	r1, #16
100005b4:	4a96      	ldr	r2, [pc, #600]	; (10000810 <main+0x2f4>)
100005b6:	6993      	ldr	r3, [r2, #24]
100005b8:	4219      	tst	r1, r3
100005ba:	d1fc      	bne.n	100005b6 <main+0x9a>
100005bc:	6813      	ldr	r3, [r2, #0]
100005be:	7003      	strb	r3, [r0, #0]
100005c0:	3001      	adds	r0, #1
100005c2:	42a8      	cmp	r0, r5
100005c4:	d1f7      	bne.n	100005b6 <main+0x9a>
100005c6:	8821      	ldrh	r1, [r4, #0]
100005c8:	9109      	str	r1, [sp, #36]	; 0x24
100005ca:	79a3      	ldrb	r3, [r4, #6]
100005cc:	78a7      	ldrb	r7, [r4, #2]
100005ce:	7920      	ldrb	r0, [r4, #4]
100005d0:	7966      	ldrb	r6, [r4, #5]
100005d2:	930a      	str	r3, [sp, #40]	; 0x28
100005d4:	79e3      	ldrb	r3, [r4, #7]
100005d6:	930b      	str	r3, [sp, #44]	; 0x2c
100005d8:	7a22      	ldrb	r2, [r4, #8]
100005da:	78e3      	ldrb	r3, [r4, #3]
100005dc:	9204      	str	r2, [sp, #16]
100005de:	9a0b      	ldr	r2, [sp, #44]	; 0x2c
100005e0:	9007      	str	r0, [sp, #28]
100005e2:	9203      	str	r2, [sp, #12]
100005e4:	9a0a      	ldr	r2, [sp, #40]	; 0x28
100005e6:	9000      	str	r0, [sp, #0]
100005e8:	9202      	str	r2, [sp, #8]
100005ea:	4893      	ldr	r0, [pc, #588]	; (10000838 <main+0x31c>)
100005ec:	003a      	movs	r2, r7
100005ee:	9601      	str	r6, [sp, #4]
100005f0:	f004 fba6 	bl	10004d40 <__wrap_printf>
100005f4:	466b      	mov	r3, sp
100005f6:	b2b8      	uxth	r0, r7
100005f8:	8d1a      	ldrh	r2, [r3, #40]	; 0x28
100005fa:	8d99      	ldrh	r1, [r3, #44]	; 0x2c
100005fc:	f7ff fefa 	bl	100003f4 <_Z10motor_movettt>
10000600:	9a07      	ldr	r2, [sp, #28]
10000602:	0013      	movs	r3, r2
10000604:	3b79      	subs	r3, #121	; 0x79
10000606:	2b0e      	cmp	r3, #14
10000608:	d800      	bhi.n	1000060c <main+0xf0>
1000060a:	e0b7      	b.n	1000077c <main+0x260>
1000060c:	20ff      	movs	r0, #255	; 0xff
1000060e:	1a80      	subs	r0, r0, r2
10000610:	f004 f912 	bl	10004838 <__wrap___aeabi_i2f>
10000614:	4989      	ldr	r1, [pc, #548]	; (1000083c <main+0x320>)
10000616:	f004 f8d4 	bl	100047c2 <__wrap___aeabi_fmul>
1000061a:	4989      	ldr	r1, [pc, #548]	; (10000840 <main+0x324>)
1000061c:	f004 f8bd 	bl	1000479a <__wrap___aeabi_fdiv>
10000620:	9b07      	ldr	r3, [sp, #28]
10000622:	1c07      	adds	r7, r0, #0
10000624:	7123      	strb	r3, [r4, #4]
10000626:	0033      	movs	r3, r6
10000628:	3b79      	subs	r3, #121	; 0x79
1000062a:	2b0e      	cmp	r3, #14
1000062c:	d800      	bhi.n	10000630 <main+0x114>
1000062e:	e0af      	b.n	10000790 <main+0x274>
10000630:	0030      	movs	r0, r6
10000632:	f004 f901 	bl	10004838 <__wrap___aeabi_i2f>
10000636:	4981      	ldr	r1, [pc, #516]	; (1000083c <main+0x320>)
10000638:	f004 f8c3 	bl	100047c2 <__wrap___aeabi_fmul>
1000063c:	4980      	ldr	r1, [pc, #512]	; (10000840 <main+0x324>)
1000063e:	f004 f8ac 	bl	1000479a <__wrap___aeabi_fdiv>
10000642:	9007      	str	r0, [sp, #28]
10000644:	4643      	mov	r3, r8
10000646:	7166      	strb	r6, [r4, #5]
10000648:	681e      	ldr	r6, [r3, #0]
1000064a:	1c38      	adds	r0, r7, #0
1000064c:	1c31      	adds	r1, r6, #0
1000064e:	f004 f89e 	bl	1000478e <__wrap___aeabi_fsub>
10000652:	1c31      	adds	r1, r6, #0
10000654:	f004 f89e 	bl	10004794 <__wrap___aeabi_fadd>
10000658:	4643      	mov	r3, r8
1000065a:	6018      	str	r0, [r3, #0]
1000065c:	465b      	mov	r3, fp
1000065e:	681f      	ldr	r7, [r3, #0]
10000660:	1c06      	adds	r6, r0, #0
10000662:	1c39      	adds	r1, r7, #0
10000664:	9807      	ldr	r0, [sp, #28]
10000666:	f004 f892 	bl	1000478e <__wrap___aeabi_fsub>
1000066a:	1c39      	adds	r1, r7, #0
1000066c:	f004 f892 	bl	10004794 <__wrap___aeabi_fadd>
10000670:	465b      	mov	r3, fp
10000672:	6018      	str	r0, [r3, #0]
10000674:	4653      	mov	r3, sl
10000676:	1c07      	adds	r7, r0, #0
10000678:	6819      	ldr	r1, [r3, #0]
1000067a:	1c30      	adds	r0, r6, #0
1000067c:	f004 f887 	bl	1000478e <__wrap___aeabi_fsub>
10000680:	21ff      	movs	r1, #255	; 0xff
10000682:	0040      	lsls	r0, r0, #1
10000684:	0840      	lsrs	r0, r0, #1
10000686:	0589      	lsls	r1, r1, #22
10000688:	f004 f8d0 	bl	1000482c <__wrap___aeabi_fcmpgt>
1000068c:	2800      	cmp	r0, #0
1000068e:	d14c      	bne.n	1000072a <main+0x20e>
10000690:	464b      	mov	r3, r9
10000692:	1c38      	adds	r0, r7, #0
10000694:	6819      	ldr	r1, [r3, #0]
10000696:	f004 f87a 	bl	1000478e <__wrap___aeabi_fsub>
1000069a:	21ff      	movs	r1, #255	; 0xff
1000069c:	0040      	lsls	r0, r0, #1
1000069e:	0840      	lsrs	r0, r0, #1
100006a0:	0589      	lsls	r1, r1, #22
100006a2:	f004 f8c3 	bl	1000482c <__wrap___aeabi_fcmpgt>
100006a6:	2800      	cmp	r0, #0
100006a8:	d119      	bne.n	100006de <main+0x1c2>
100006aa:	2380      	movs	r3, #128	; 0x80
100006ac:	9a09      	ldr	r2, [sp, #36]	; 0x24
100006ae:	019b      	lsls	r3, r3, #6
100006b0:	421a      	tst	r2, r3
100006b2:	d00d      	beq.n	100006d0 <main+0x1b4>
100006b4:	4a63      	ldr	r2, [pc, #396]	; (10000844 <main+0x328>)
100006b6:	8812      	ldrh	r2, [r2, #0]
100006b8:	421a      	tst	r2, r3
100006ba:	d109      	bne.n	100006d0 <main+0x1b4>
100006bc:	9b08      	ldr	r3, [sp, #32]
100006be:	2b00      	cmp	r3, #0
100006c0:	d16a      	bne.n	10000798 <main+0x27c>
100006c2:	23d0      	movs	r3, #208	; 0xd0
100006c4:	2280      	movs	r2, #128	; 0x80
100006c6:	061b      	lsls	r3, r3, #24
100006c8:	00d2      	lsls	r2, r2, #3
100006ca:	615a      	str	r2, [r3, #20]
100006cc:	2301      	movs	r3, #1
100006ce:	9308      	str	r3, [sp, #32]
100006d0:	4b5c      	ldr	r3, [pc, #368]	; (10000844 <main+0x328>)
100006d2:	9a09      	ldr	r2, [sp, #36]	; 0x24
100006d4:	2014      	movs	r0, #20
100006d6:	801a      	strh	r2, [r3, #0]
100006d8:	f000 ff7a 	bl	100015d0 <sleep_ms>
100006dc:	e75f      	b.n	1000059e <main+0x82>
100006de:	4b50      	ldr	r3, [pc, #320]	; (10000820 <main+0x304>)
100006e0:	2100      	movs	r1, #0
100006e2:	681e      	ldr	r6, [r3, #0]
100006e4:	4b4d      	ldr	r3, [pc, #308]	; (1000081c <main+0x300>)
100006e6:	1c38      	adds	r0, r7, #0
100006e8:	681b      	ldr	r3, [r3, #0]
100006ea:	9307      	str	r3, [sp, #28]
100006ec:	f004 f898 	bl	10004820 <__wrap___aeabi_fcmplt>
100006f0:	2800      	cmp	r0, #0
100006f2:	d161      	bne.n	100007b8 <main+0x29c>
100006f4:	4951      	ldr	r1, [pc, #324]	; (1000083c <main+0x320>)
100006f6:	1c38      	adds	r0, r7, #0
100006f8:	f004 f898 	bl	1000482c <__wrap___aeabi_fcmpgt>
100006fc:	2800      	cmp	r0, #0
100006fe:	d072      	beq.n	100007e6 <main+0x2ca>
10000700:	4b51      	ldr	r3, [pc, #324]	; (10000848 <main+0x32c>)
10000702:	00b2      	lsls	r2, r6, #2
10000704:	1996      	adds	r6, r2, r6
10000706:	4a51      	ldr	r2, [pc, #324]	; (1000084c <main+0x330>)
10000708:	00b6      	lsls	r6, r6, #2
1000070a:	4694      	mov	ip, r2
1000070c:	9a07      	ldr	r2, [sp, #28]
1000070e:	4466      	add	r6, ip
10000710:	2a00      	cmp	r2, #0
10000712:	d14e      	bne.n	100007b2 <main+0x296>
10000714:	4a4e      	ldr	r2, [pc, #312]	; (10000850 <main+0x334>)
10000716:	6831      	ldr	r1, [r6, #0]
10000718:	404b      	eors	r3, r1
1000071a:	401a      	ands	r2, r3
1000071c:	2380      	movs	r3, #128	; 0x80
1000071e:	015b      	lsls	r3, r3, #5
10000720:	431e      	orrs	r6, r3
10000722:	464b      	mov	r3, r9
10000724:	6032      	str	r2, [r6, #0]
10000726:	601f      	str	r7, [r3, #0]
10000728:	e7bf      	b.n	100006aa <main+0x18e>
1000072a:	4b3b      	ldr	r3, [pc, #236]	; (10000818 <main+0x2fc>)
1000072c:	2100      	movs	r1, #0
1000072e:	681b      	ldr	r3, [r3, #0]
10000730:	1c30      	adds	r0, r6, #0
10000732:	9307      	str	r3, [sp, #28]
10000734:	4b37      	ldr	r3, [pc, #220]	; (10000814 <main+0x2f8>)
10000736:	681b      	ldr	r3, [r3, #0]
10000738:	930a      	str	r3, [sp, #40]	; 0x28
1000073a:	f004 f871 	bl	10004820 <__wrap___aeabi_fcmplt>
1000073e:	2800      	cmp	r0, #0
10000740:	d132      	bne.n	100007a8 <main+0x28c>
10000742:	493e      	ldr	r1, [pc, #248]	; (1000083c <main+0x320>)
10000744:	1c30      	adds	r0, r6, #0
10000746:	f004 f871 	bl	1000482c <__wrap___aeabi_fcmpgt>
1000074a:	2800      	cmp	r0, #0
1000074c:	d036      	beq.n	100007bc <main+0x2a0>
1000074e:	4b3e      	ldr	r3, [pc, #248]	; (10000848 <main+0x32c>)
10000750:	9907      	ldr	r1, [sp, #28]
10000752:	468c      	mov	ip, r1
10000754:	008a      	lsls	r2, r1, #2
10000756:	493d      	ldr	r1, [pc, #244]	; (1000084c <main+0x330>)
10000758:	4462      	add	r2, ip
1000075a:	468c      	mov	ip, r1
1000075c:	990a      	ldr	r1, [sp, #40]	; 0x28
1000075e:	0092      	lsls	r2, r2, #2
10000760:	4462      	add	r2, ip
10000762:	2900      	cmp	r1, #0
10000764:	d122      	bne.n	100007ac <main+0x290>
10000766:	493a      	ldr	r1, [pc, #232]	; (10000850 <main+0x334>)
10000768:	6810      	ldr	r0, [r2, #0]
1000076a:	4043      	eors	r3, r0
1000076c:	4019      	ands	r1, r3
1000076e:	2380      	movs	r3, #128	; 0x80
10000770:	015b      	lsls	r3, r3, #5
10000772:	431a      	orrs	r2, r3
10000774:	4653      	mov	r3, sl
10000776:	6011      	str	r1, [r2, #0]
10000778:	601e      	str	r6, [r3, #0]
1000077a:	e789      	b.n	10000690 <main+0x174>
1000077c:	2380      	movs	r3, #128	; 0x80
1000077e:	9307      	str	r3, [sp, #28]
10000780:	9b07      	ldr	r3, [sp, #28]
10000782:	4f34      	ldr	r7, [pc, #208]	; (10000854 <main+0x338>)
10000784:	7123      	strb	r3, [r4, #4]
10000786:	0033      	movs	r3, r6
10000788:	3b79      	subs	r3, #121	; 0x79
1000078a:	2b0e      	cmp	r3, #14
1000078c:	d900      	bls.n	10000790 <main+0x274>
1000078e:	e74f      	b.n	10000630 <main+0x114>
10000790:	4b31      	ldr	r3, [pc, #196]	; (10000858 <main+0x33c>)
10000792:	2680      	movs	r6, #128	; 0x80
10000794:	9307      	str	r3, [sp, #28]
10000796:	e755      	b.n	10000644 <main+0x128>
10000798:	23d0      	movs	r3, #208	; 0xd0
1000079a:	2280      	movs	r2, #128	; 0x80
1000079c:	061b      	lsls	r3, r3, #24
1000079e:	00d2      	lsls	r2, r2, #3
100007a0:	619a      	str	r2, [r3, #24]
100007a2:	2300      	movs	r3, #0
100007a4:	9308      	str	r3, [sp, #32]
100007a6:	e793      	b.n	100006d0 <main+0x1b4>
100007a8:	4b2c      	ldr	r3, [pc, #176]	; (1000085c <main+0x340>)
100007aa:	e7d1      	b.n	10000750 <main+0x234>
100007ac:	492c      	ldr	r1, [pc, #176]	; (10000860 <main+0x344>)
100007ae:	041b      	lsls	r3, r3, #16
100007b0:	e7da      	b.n	10000768 <main+0x24c>
100007b2:	4a2b      	ldr	r2, [pc, #172]	; (10000860 <main+0x344>)
100007b4:	041b      	lsls	r3, r3, #16
100007b6:	e7ae      	b.n	10000716 <main+0x1fa>
100007b8:	4b28      	ldr	r3, [pc, #160]	; (1000085c <main+0x340>)
100007ba:	e7a2      	b.n	10000702 <main+0x1e6>
100007bc:	4929      	ldr	r1, [pc, #164]	; (10000864 <main+0x348>)
100007be:	1c30      	adds	r0, r6, #0
100007c0:	f003 ffff 	bl	100047c2 <__wrap___aeabi_fmul>
100007c4:	491d      	ldr	r1, [pc, #116]	; (1000083c <main+0x320>)
100007c6:	f003 ffe8 	bl	1000479a <__wrap___aeabi_fdiv>
100007ca:	4927      	ldr	r1, [pc, #156]	; (10000868 <main+0x34c>)
100007cc:	f003 ffe2 	bl	10004794 <__wrap___aeabi_fadd>
100007d0:	f004 f854 	bl	1000487c <__wrap___aeabi_f2uiz>
100007d4:	b283      	uxth	r3, r0
100007d6:	4825      	ldr	r0, [pc, #148]	; (1000086c <main+0x350>)
100007d8:	4925      	ldr	r1, [pc, #148]	; (10000870 <main+0x354>)
100007da:	4358      	muls	r0, r3
100007dc:	f003 f974 	bl	10003ac8 <__wrap___aeabi_idiv>
100007e0:	0403      	lsls	r3, r0, #16
100007e2:	0c1b      	lsrs	r3, r3, #16
100007e4:	e7b4      	b.n	10000750 <main+0x234>
100007e6:	491f      	ldr	r1, [pc, #124]	; (10000864 <main+0x348>)
100007e8:	1c38      	adds	r0, r7, #0
100007ea:	f003 ffea 	bl	100047c2 <__wrap___aeabi_fmul>
100007ee:	4913      	ldr	r1, [pc, #76]	; (1000083c <main+0x320>)
100007f0:	f003 ffd3 	bl	1000479a <__wrap___aeabi_fdiv>
100007f4:	491c      	ldr	r1, [pc, #112]	; (10000868 <main+0x34c>)
100007f6:	f003 ffcd 	bl	10004794 <__wrap___aeabi_fadd>
100007fa:	f004 f83f 	bl	1000487c <__wrap___aeabi_f2uiz>
100007fe:	b283      	uxth	r3, r0
10000800:	481a      	ldr	r0, [pc, #104]	; (1000086c <main+0x350>)
10000802:	491b      	ldr	r1, [pc, #108]	; (10000870 <main+0x354>)
10000804:	4358      	muls	r0, r3
10000806:	f003 f95f 	bl	10003ac8 <__wrap___aeabi_idiv>
1000080a:	0403      	lsls	r3, r0, #16
1000080c:	0c1b      	lsrs	r3, r3, #16
1000080e:	e778      	b.n	10000702 <main+0x1e6>
10000810:	40034000 	.word	0x40034000
10000814:	20001c6c 	.word	0x20001c6c
10000818:	20001c70 	.word	0x20001c70
1000081c:	20001c74 	.word	0x20001c74
10000820:	20001c78 	.word	0x20001c78
10000824:	10007158 	.word	0x10007158
10000828:	20000e20 	.word	0x20000e20
1000082c:	20000e24 	.word	0x20000e24
10000830:	20000e18 	.word	0x20000e18
10000834:	20000e1c 	.word	0x20000e1c
10000838:	1000716c 	.word	0x1000716c
1000083c:	43340000 	.word	0x43340000
10000840:	437f0000 	.word	0x437f0000
10000844:	20001cb2 	.word	0x20001cb2
10000848:	0000124f 	.word	0x0000124f
1000084c:	4005000c 	.word	0x4005000c
10000850:	0000ffff 	.word	0x0000ffff
10000854:	42b34b4b 	.word	0x42b34b4b
10000858:	42b4b4b5 	.word	0x42b4b4b5
1000085c:	00000493 	.word	0x00000493
10000860:	ffff0000 	.word	0xffff0000
10000864:	44e10000 	.word	0x44e10000
10000868:	44160000 	.word	0x44160000
1000086c:	00009896 	.word	0x00009896
10000870:	00004e20 	.word	0x00004e20

10000874 <gpio_set_function>:
10000874:	4a09      	ldr	r2, [pc, #36]	; (1000089c <gpio_set_function+0x28>)
10000876:	0083      	lsls	r3, r0, #2
10000878:	4694      	mov	ip, r2
1000087a:	2240      	movs	r2, #64	; 0x40
1000087c:	4463      	add	r3, ip
1000087e:	b510      	push	{r4, lr}
10000880:	681c      	ldr	r4, [r3, #0]
10000882:	00c0      	lsls	r0, r0, #3
10000884:	4062      	eors	r2, r4
10000886:	24c0      	movs	r4, #192	; 0xc0
10000888:	4014      	ands	r4, r2
1000088a:	2280      	movs	r2, #128	; 0x80
1000088c:	0152      	lsls	r2, r2, #5
1000088e:	4313      	orrs	r3, r2
10000890:	601c      	str	r4, [r3, #0]
10000892:	4b03      	ldr	r3, [pc, #12]	; (100008a0 <gpio_set_function+0x2c>)
10000894:	469c      	mov	ip, r3
10000896:	4460      	add	r0, ip
10000898:	6041      	str	r1, [r0, #4]
1000089a:	bd10      	pop	{r4, pc}
1000089c:	4001c004 	.word	0x4001c004
100008a0:	40014000 	.word	0x40014000

100008a4 <gpio_init>:
100008a4:	2301      	movs	r3, #1
100008a6:	22d0      	movs	r2, #208	; 0xd0
100008a8:	4083      	lsls	r3, r0
100008aa:	0612      	lsls	r2, r2, #24
100008ac:	6293      	str	r3, [r2, #40]	; 0x28
100008ae:	6193      	str	r3, [r2, #24]
100008b0:	4a09      	ldr	r2, [pc, #36]	; (100008d8 <gpio_init+0x34>)
100008b2:	0083      	lsls	r3, r0, #2
100008b4:	4694      	mov	ip, r2
100008b6:	2240      	movs	r2, #64	; 0x40
100008b8:	4463      	add	r3, ip
100008ba:	6819      	ldr	r1, [r3, #0]
100008bc:	00c0      	lsls	r0, r0, #3
100008be:	404a      	eors	r2, r1
100008c0:	21c0      	movs	r1, #192	; 0xc0
100008c2:	4011      	ands	r1, r2
100008c4:	2280      	movs	r2, #128	; 0x80
100008c6:	0152      	lsls	r2, r2, #5
100008c8:	4313      	orrs	r3, r2
100008ca:	6019      	str	r1, [r3, #0]
100008cc:	4b03      	ldr	r3, [pc, #12]	; (100008dc <gpio_init+0x38>)
100008ce:	469c      	mov	ip, r3
100008d0:	2305      	movs	r3, #5
100008d2:	4460      	add	r0, ip
100008d4:	6043      	str	r3, [r0, #4]
100008d6:	4770      	bx	lr
100008d8:	4001c004 	.word	0x4001c004
100008dc:	40014000 	.word	0x40014000

100008e0 <running_on_fpga>:
100008e0:	4b02      	ldr	r3, [pc, #8]	; (100008ec <running_on_fpga+0xc>)
100008e2:	6818      	ldr	r0, [r3, #0]
100008e4:	0780      	lsls	r0, r0, #30
100008e6:	0fc0      	lsrs	r0, r0, #31
100008e8:	4770      	bx	lr
100008ea:	46c0      	nop			; (mov r8, r8)
100008ec:	4006c000 	.word	0x4006c000

100008f0 <hw_claim_or_assert>:
100008f0:	b570      	push	{r4, r5, r6, lr}
100008f2:	f3ef 8c10 	mrs	ip, PRIMASK
100008f6:	b672      	cpsid	i
100008f8:	4d0d      	ldr	r5, [pc, #52]	; (10000930 <hw_claim_or_assert+0x40>)
100008fa:	682b      	ldr	r3, [r5, #0]
100008fc:	2b00      	cmp	r3, #0
100008fe:	d0fc      	beq.n	100008fa <hw_claim_or_assert+0xa>
10000900:	f3bf 8f5f 	dmb	sy
10000904:	2407      	movs	r4, #7
10000906:	08cb      	lsrs	r3, r1, #3
10000908:	18c6      	adds	r6, r0, r3
1000090a:	5cc0      	ldrb	r0, [r0, r3]
1000090c:	2301      	movs	r3, #1
1000090e:	400c      	ands	r4, r1
10000910:	40a3      	lsls	r3, r4
10000912:	001c      	movs	r4, r3
10000914:	4004      	ands	r4, r0
10000916:	4203      	tst	r3, r0
10000918:	d107      	bne.n	1000092a <hw_claim_or_assert+0x3a>
1000091a:	4303      	orrs	r3, r0
1000091c:	7033      	strb	r3, [r6, #0]
1000091e:	f3bf 8f5f 	dmb	sy
10000922:	602c      	str	r4, [r5, #0]
10000924:	f38c 8810 	msr	PRIMASK, ip
10000928:	bd70      	pop	{r4, r5, r6, pc}
1000092a:	0010      	movs	r0, r2
1000092c:	f001 fd92 	bl	10002454 <panic>
10000930:	d000012c 	.word	0xd000012c

10000934 <hw_claim_unused_from_range>:
10000934:	b5f8      	push	{r3, r4, r5, r6, r7, lr}
10000936:	4647      	mov	r7, r8
10000938:	46ce      	mov	lr, r9
1000093a:	4688      	mov	r8, r1
1000093c:	b580      	push	{r7, lr}
1000093e:	f3ef 8c10 	mrs	ip, PRIMASK
10000942:	b672      	cpsid	i
10000944:	4d21      	ldr	r5, [pc, #132]	; (100009cc <hw_claim_unused_from_range+0x98>)
10000946:	682c      	ldr	r4, [r5, #0]
10000948:	2c00      	cmp	r4, #0
1000094a:	d0fc      	beq.n	10000946 <hw_claim_unused_from_range+0x12>
1000094c:	f3bf 8f5f 	dmb	sy
10000950:	429a      	cmp	r2, r3
10000952:	d82c      	bhi.n	100009ae <hw_claim_unused_from_range+0x7a>
10000954:	08d4      	lsrs	r4, r2, #3
10000956:	2707      	movs	r7, #7
10000958:	5d05      	ldrb	r5, [r0, r4]
1000095a:	1906      	adds	r6, r0, r4
1000095c:	2401      	movs	r4, #1
1000095e:	4017      	ands	r7, r2
10000960:	40bc      	lsls	r4, r7
10000962:	422c      	tst	r4, r5
10000964:	d01f      	beq.n	100009a6 <hw_claim_unused_from_range+0x72>
10000966:	2107      	movs	r1, #7
10000968:	2701      	movs	r7, #1
1000096a:	4689      	mov	r9, r1
1000096c:	e009      	b.n	10000982 <hw_claim_unused_from_range+0x4e>
1000096e:	08d4      	lsrs	r4, r2, #3
10000970:	5d05      	ldrb	r5, [r0, r4]
10000972:	1906      	adds	r6, r0, r4
10000974:	464c      	mov	r4, r9
10000976:	0039      	movs	r1, r7
10000978:	4014      	ands	r4, r2
1000097a:	40a1      	lsls	r1, r4
1000097c:	000c      	movs	r4, r1
1000097e:	4229      	tst	r1, r5
10000980:	d011      	beq.n	100009a6 <hw_claim_unused_from_range+0x72>
10000982:	3201      	adds	r2, #1
10000984:	4293      	cmp	r3, r2
10000986:	d2f2      	bcs.n	1000096e <hw_claim_unused_from_range+0x3a>
10000988:	2001      	movs	r0, #1
1000098a:	4240      	negs	r0, r0
1000098c:	f3bf 8f5f 	dmb	sy
10000990:	2200      	movs	r2, #0
10000992:	4b0e      	ldr	r3, [pc, #56]	; (100009cc <hw_claim_unused_from_range+0x98>)
10000994:	601a      	str	r2, [r3, #0]
10000996:	f38c 8810 	msr	PRIMASK, ip
1000099a:	2800      	cmp	r0, #0
1000099c:	db0f      	blt.n	100009be <hw_claim_unused_from_range+0x8a>
1000099e:	bcc0      	pop	{r6, r7}
100009a0:	46b9      	mov	r9, r7
100009a2:	46b0      	mov	r8, r6
100009a4:	bdf8      	pop	{r3, r4, r5, r6, r7, pc}
100009a6:	432c      	orrs	r4, r5
100009a8:	0010      	movs	r0, r2
100009aa:	7034      	strb	r4, [r6, #0]
100009ac:	e7ee      	b.n	1000098c <hw_claim_unused_from_range+0x58>
100009ae:	f3bf 8f5f 	dmb	sy
100009b2:	2300      	movs	r3, #0
100009b4:	602b      	str	r3, [r5, #0]
100009b6:	f38c 8810 	msr	PRIMASK, ip
100009ba:	2001      	movs	r0, #1
100009bc:	4240      	negs	r0, r0
100009be:	4643      	mov	r3, r8
100009c0:	2b00      	cmp	r3, #0
100009c2:	d0ec      	beq.n	1000099e <hw_claim_unused_from_range+0x6a>
100009c4:	9808      	ldr	r0, [sp, #32]
100009c6:	f001 fd45 	bl	10002454 <panic>
100009ca:	46c0      	nop			; (mov r8, r8)
100009cc:	d000012c 	.word	0xd000012c

100009d0 <spin_locks_reset>:
100009d0:	2100      	movs	r1, #0
100009d2:	4b04      	ldr	r3, [pc, #16]	; (100009e4 <spin_locks_reset+0x14>)
100009d4:	4a04      	ldr	r2, [pc, #16]	; (100009e8 <spin_locks_reset+0x18>)
100009d6:	f3bf 8f5f 	dmb	sy
100009da:	c302      	stmia	r3!, {r1}
100009dc:	4293      	cmp	r3, r2
100009de:	d1fa      	bne.n	100009d6 <spin_locks_reset+0x6>
100009e0:	4770      	bx	lr
100009e2:	46c0      	nop			; (mov r8, r8)
100009e4:	d0000100 	.word	0xd0000100
100009e8:	d0000180 	.word	0xd0000180

100009ec <next_striped_spin_lock_num>:
100009ec:	4a04      	ldr	r2, [pc, #16]	; (10000a00 <next_striped_spin_lock_num+0x14>)
100009ee:	7810      	ldrb	r0, [r2, #0]
100009f0:	1c43      	adds	r3, r0, #1
100009f2:	b2db      	uxtb	r3, r3
100009f4:	2b17      	cmp	r3, #23
100009f6:	d900      	bls.n	100009fa <next_striped_spin_lock_num+0xe>
100009f8:	2310      	movs	r3, #16
100009fa:	7013      	strb	r3, [r2, #0]
100009fc:	4770      	bx	lr
100009fe:	46c0      	nop			; (mov r8, r8)
10000a00:	20000e28 	.word	0x20000e28

10000a04 <spin_lock_claim_unused>:
10000a04:	b500      	push	{lr}
10000a06:	4b05      	ldr	r3, [pc, #20]	; (10000a1c <spin_lock_claim_unused+0x18>)
10000a08:	b083      	sub	sp, #12
10000a0a:	0001      	movs	r1, r0
10000a0c:	9300      	str	r3, [sp, #0]
10000a0e:	2218      	movs	r2, #24
10000a10:	231f      	movs	r3, #31
10000a12:	4803      	ldr	r0, [pc, #12]	; (10000a20 <spin_lock_claim_unused+0x1c>)
10000a14:	f7ff ff8e 	bl	10000934 <hw_claim_unused_from_range>
10000a18:	b003      	add	sp, #12
10000a1a:	bd00      	pop	{pc}
10000a1c:	100071a8 	.word	0x100071a8
10000a20:	200017a0 	.word	0x200017a0

10000a24 <irq_set_enabled>:
10000a24:	2301      	movs	r3, #1
10000a26:	4083      	lsls	r3, r0
10000a28:	2900      	cmp	r1, #0
10000a2a:	d004      	beq.n	10000a36 <irq_set_enabled+0x12>
10000a2c:	4a03      	ldr	r2, [pc, #12]	; (10000a3c <irq_set_enabled+0x18>)
10000a2e:	6013      	str	r3, [r2, #0]
10000a30:	4a03      	ldr	r2, [pc, #12]	; (10000a40 <irq_set_enabled+0x1c>)
10000a32:	6013      	str	r3, [r2, #0]
10000a34:	4770      	bx	lr
10000a36:	4a03      	ldr	r2, [pc, #12]	; (10000a44 <irq_set_enabled+0x20>)
10000a38:	6013      	str	r3, [r2, #0]
10000a3a:	e7fb      	b.n	10000a34 <irq_set_enabled+0x10>
10000a3c:	e000e280 	.word	0xe000e280
10000a40:	e000e100 	.word	0xe000e100
10000a44:	e000e180 	.word	0xe000e180

10000a48 <irq_set_pending>:
10000a48:	2301      	movs	r3, #1
10000a4a:	4083      	lsls	r3, r0
10000a4c:	4a01      	ldr	r2, [pc, #4]	; (10000a54 <irq_set_pending+0xc>)
10000a4e:	6013      	str	r3, [r2, #0]
10000a50:	4770      	bx	lr
10000a52:	46c0      	nop			; (mov r8, r8)
10000a54:	e000e200 	.word	0xe000e200

10000a58 <irq_has_shared_handler>:
10000a58:	4b08      	ldr	r3, [pc, #32]	; (10000a7c <irq_has_shared_handler+0x24>)
10000a5a:	3010      	adds	r0, #16
10000a5c:	689b      	ldr	r3, [r3, #8]
10000a5e:	0080      	lsls	r0, r0, #2
10000a60:	58c3      	ldr	r3, [r0, r3]
10000a62:	2b00      	cmp	r3, #0
10000a64:	d007      	beq.n	10000a76 <irq_has_shared_handler+0x1e>
10000a66:	4a06      	ldr	r2, [pc, #24]	; (10000a80 <irq_has_shared_handler+0x28>)
10000a68:	2000      	movs	r0, #0
10000a6a:	1a9b      	subs	r3, r3, r2
10000a6c:	222f      	movs	r2, #47	; 0x2f
10000a6e:	429a      	cmp	r2, r3
10000a70:	4140      	adcs	r0, r0
10000a72:	b2c0      	uxtb	r0, r0
10000a74:	4770      	bx	lr
10000a76:	2000      	movs	r0, #0
10000a78:	e7fc      	b.n	10000a74 <irq_has_shared_handler+0x1c>
10000a7a:	46c0      	nop			; (mov r8, r8)
10000a7c:	e000ed00 	.word	0xe000ed00
10000a80:	20000e2c 	.word	0x20000e2c

10000a84 <irq_get_vtable_handler>:
10000a84:	4b02      	ldr	r3, [pc, #8]	; (10000a90 <irq_get_vtable_handler+0xc>)
10000a86:	3010      	adds	r0, #16
10000a88:	689b      	ldr	r3, [r3, #8]
10000a8a:	0080      	lsls	r0, r0, #2
10000a8c:	58c0      	ldr	r0, [r0, r3]
10000a8e:	4770      	bx	lr
10000a90:	e000ed00 	.word	0xe000ed00

10000a94 <irq_set_exclusive_handler>:
10000a94:	b570      	push	{r4, r5, r6, lr}
10000a96:	000d      	movs	r5, r1
10000a98:	f3ef 8610 	mrs	r6, PRIMASK
10000a9c:	b672      	cpsid	i
10000a9e:	4a0f      	ldr	r2, [pc, #60]	; (10000adc <irq_set_exclusive_handler+0x48>)
10000aa0:	6813      	ldr	r3, [r2, #0]
10000aa2:	2b00      	cmp	r3, #0
10000aa4:	d0fc      	beq.n	10000aa0 <irq_set_exclusive_handler+0xc>
10000aa6:	f3bf 8f5f 	dmb	sy
10000aaa:	4b0d      	ldr	r3, [pc, #52]	; (10000ae0 <irq_set_exclusive_handler+0x4c>)
10000aac:	3010      	adds	r0, #16
10000aae:	689b      	ldr	r3, [r3, #8]
10000ab0:	0084      	lsls	r4, r0, #2
10000ab2:	591b      	ldr	r3, [r3, r4]
10000ab4:	4a0b      	ldr	r2, [pc, #44]	; (10000ae4 <irq_set_exclusive_handler+0x50>)
10000ab6:	4293      	cmp	r3, r2
10000ab8:	d003      	beq.n	10000ac2 <irq_set_exclusive_handler+0x2e>
10000aba:	429d      	cmp	r5, r3
10000abc:	d001      	beq.n	10000ac2 <irq_set_exclusive_handler+0x2e>
10000abe:	f001 fce1 	bl	10002484 <hard_assertion_failure>
10000ac2:	4b07      	ldr	r3, [pc, #28]	; (10000ae0 <irq_set_exclusive_handler+0x4c>)
10000ac4:	689b      	ldr	r3, [r3, #8]
10000ac6:	511d      	str	r5, [r3, r4]
10000ac8:	f3bf 8f5f 	dmb	sy
10000acc:	f3bf 8f5f 	dmb	sy
10000ad0:	2200      	movs	r2, #0
10000ad2:	4b02      	ldr	r3, [pc, #8]	; (10000adc <irq_set_exclusive_handler+0x48>)
10000ad4:	601a      	str	r2, [r3, #0]
10000ad6:	f386 8810 	msr	PRIMASK, r6
10000ada:	bd70      	pop	{r4, r5, r6, pc}
10000adc:	d0000124 	.word	0xd0000124
10000ae0:	e000ed00 	.word	0xe000ed00
10000ae4:	100001cd 	.word	0x100001cd

10000ae8 <irq_add_shared_handler>:
10000ae8:	b5f0      	push	{r4, r5, r6, r7, lr}
10000aea:	4657      	mov	r7, sl
10000aec:	464e      	mov	r6, r9
10000aee:	46de      	mov	lr, fp
10000af0:	4645      	mov	r5, r8
10000af2:	b5e0      	push	{r5, r6, r7, lr}
10000af4:	b085      	sub	sp, #20
10000af6:	0006      	movs	r6, r0
10000af8:	9102      	str	r1, [sp, #8]
10000afa:	0017      	movs	r7, r2
10000afc:	f3ef 8b10 	mrs	fp, PRIMASK
10000b00:	b672      	cpsid	i
10000b02:	4a67      	ldr	r2, [pc, #412]	; (10000ca0 <irq_add_shared_handler+0x1b8>)
10000b04:	6813      	ldr	r3, [r2, #0]
10000b06:	2b00      	cmp	r3, #0
10000b08:	d0fc      	beq.n	10000b04 <irq_add_shared_handler+0x1c>
10000b0a:	f3bf 8f5f 	dmb	sy
10000b0e:	2500      	movs	r5, #0
10000b10:	4b64      	ldr	r3, [pc, #400]	; (10000ca4 <irq_add_shared_handler+0x1bc>)
10000b12:	575d      	ldrsb	r5, [r3, r5]
10000b14:	469a      	mov	sl, r3
10000b16:	2d00      	cmp	r5, #0
10000b18:	da00      	bge.n	10000b1c <irq_add_shared_handler+0x34>
10000b1a:	e0a4      	b.n	10000c66 <irq_add_shared_handler+0x17e>
10000b1c:	006b      	lsls	r3, r5, #1
10000b1e:	4c62      	ldr	r4, [pc, #392]	; (10000ca8 <irq_add_shared_handler+0x1c0>)
10000b20:	9303      	str	r3, [sp, #12]
10000b22:	195b      	adds	r3, r3, r5
10000b24:	009b      	lsls	r3, r3, #2
10000b26:	4698      	mov	r8, r3
10000b28:	46a1      	mov	r9, r4
10000b2a:	44c1      	add	r9, r8
10000b2c:	464b      	mov	r3, r9
10000b2e:	4652      	mov	r2, sl
10000b30:	799b      	ldrb	r3, [r3, #6]
10000b32:	3610      	adds	r6, #16
10000b34:	7013      	strb	r3, [r2, #0]
10000b36:	4b5d      	ldr	r3, [pc, #372]	; (10000cac <irq_add_shared_handler+0x1c4>)
10000b38:	00b2      	lsls	r2, r6, #2
10000b3a:	689b      	ldr	r3, [r3, #8]
10000b3c:	9201      	str	r2, [sp, #4]
10000b3e:	5899      	ldr	r1, [r3, r2]
10000b40:	1b0b      	subs	r3, r1, r4
10000b42:	2b2f      	cmp	r3, #47	; 0x2f
10000b44:	d934      	bls.n	10000bb0 <irq_add_shared_handler+0xc8>
10000b46:	4b5a      	ldr	r3, [pc, #360]	; (10000cb0 <irq_add_shared_handler+0x1c8>)
10000b48:	4299      	cmp	r1, r3
10000b4a:	d000      	beq.n	10000b4e <irq_add_shared_handler+0x66>
10000b4c:	e0a4      	b.n	10000c98 <irq_add_shared_handler+0x1b0>
10000b4e:	9b03      	ldr	r3, [sp, #12]
10000b50:	4a58      	ldr	r2, [pc, #352]	; (10000cb4 <irq_add_shared_handler+0x1cc>)
10000b52:	469c      	mov	ip, r3
10000b54:	4b58      	ldr	r3, [pc, #352]	; (10000cb8 <irq_add_shared_handler+0x1d0>)
10000b56:	4465      	add	r5, ip
10000b58:	00ad      	lsls	r5, r5, #2
10000b5a:	5363      	strh	r3, [r4, r5]
10000b5c:	4643      	mov	r3, r8
10000b5e:	3302      	adds	r3, #2
10000b60:	1965      	adds	r5, r4, r5
10000b62:	18e4      	adds	r4, r4, r3
10000b64:	4b55      	ldr	r3, [pc, #340]	; (10000cbc <irq_add_shared_handler+0x1d4>)
10000b66:	2101      	movs	r1, #1
10000b68:	3b04      	subs	r3, #4
10000b6a:	1b1b      	subs	r3, r3, r4
10000b6c:	051b      	lsls	r3, r3, #20
10000b6e:	0d5b      	lsrs	r3, r3, #21
10000b70:	4313      	orrs	r3, r2
10000b72:	806b      	strh	r3, [r5, #2]
10000b74:	4b52      	ldr	r3, [pc, #328]	; (10000cc0 <irq_add_shared_handler+0x1d8>)
10000b76:	71ef      	strb	r7, [r5, #7]
10000b78:	80ab      	strh	r3, [r5, #4]
10000b7a:	23ff      	movs	r3, #255	; 0xff
10000b7c:	71ab      	strb	r3, [r5, #6]
10000b7e:	9b02      	ldr	r3, [sp, #8]
10000b80:	60ab      	str	r3, [r5, #8]
10000b82:	464b      	mov	r3, r9
10000b84:	430b      	orrs	r3, r1
10000b86:	0019      	movs	r1, r3
10000b88:	4b48      	ldr	r3, [pc, #288]	; (10000cac <irq_add_shared_handler+0x1c4>)
10000b8a:	9a01      	ldr	r2, [sp, #4]
10000b8c:	689b      	ldr	r3, [r3, #8]
10000b8e:	5099      	str	r1, [r3, r2]
10000b90:	f3bf 8f5f 	dmb	sy
10000b94:	f3bf 8f5f 	dmb	sy
10000b98:	2200      	movs	r2, #0
10000b9a:	4b41      	ldr	r3, [pc, #260]	; (10000ca0 <irq_add_shared_handler+0x1b8>)
10000b9c:	601a      	str	r2, [r3, #0]
10000b9e:	f38b 8810 	msr	PRIMASK, fp
10000ba2:	b005      	add	sp, #20
10000ba4:	bcf0      	pop	{r4, r5, r6, r7}
10000ba6:	46bb      	mov	fp, r7
10000ba8:	46b2      	mov	sl, r6
10000baa:	46a9      	mov	r9, r5
10000bac:	46a0      	mov	r8, r4
10000bae:	bdf0      	pop	{r4, r5, r6, r7, pc}
10000bb0:	2001      	movs	r0, #1
10000bb2:	000a      	movs	r2, r1
10000bb4:	4382      	bics	r2, r0
10000bb6:	79d3      	ldrb	r3, [r2, #7]
10000bb8:	42bb      	cmp	r3, r7
10000bba:	d82f      	bhi.n	10000c1c <irq_add_shared_handler+0x134>
10000bbc:	4645      	mov	r5, r8
10000bbe:	464e      	mov	r6, r9
10000bc0:	0013      	movs	r3, r2
10000bc2:	4940      	ldr	r1, [pc, #256]	; (10000cc4 <irq_add_shared_handler+0x1dc>)
10000bc4:	1b1b      	subs	r3, r3, r4
10000bc6:	415b      	adcs	r3, r3
10000bc8:	4359      	muls	r1, r3
10000bca:	0d09      	lsrs	r1, r1, #20
10000bcc:	4b3a      	ldr	r3, [pc, #232]	; (10000cb8 <irq_add_shared_handler+0x1d0>)
10000bce:	5363      	strh	r3, [r4, r5]
10000bd0:	4b3a      	ldr	r3, [pc, #232]	; (10000cbc <irq_add_shared_handler+0x1d4>)
10000bd2:	3502      	adds	r5, #2
10000bd4:	1965      	adds	r5, r4, r5
10000bd6:	3b04      	subs	r3, #4
10000bd8:	1b5b      	subs	r3, r3, r5
10000bda:	051b      	lsls	r3, r3, #20
10000bdc:	4d35      	ldr	r5, [pc, #212]	; (10000cb4 <irq_add_shared_handler+0x1cc>)
10000bde:	0d5b      	lsrs	r3, r3, #21
10000be0:	432b      	orrs	r3, r5
10000be2:	8073      	strh	r3, [r6, #2]
10000be4:	2604      	movs	r6, #4
10000be6:	46b4      	mov	ip, r6
10000be8:	44e0      	add	r8, ip
10000bea:	4444      	add	r4, r8
10000bec:	1f13      	subs	r3, r2, #4
10000bee:	1b1b      	subs	r3, r3, r4
10000bf0:	464c      	mov	r4, r9
10000bf2:	71a1      	strb	r1, [r4, #6]
10000bf4:	9902      	ldr	r1, [sp, #8]
10000bf6:	051b      	lsls	r3, r3, #20
10000bf8:	60a1      	str	r1, [r4, #8]
10000bfa:	4649      	mov	r1, r9
10000bfc:	0d5b      	lsrs	r3, r3, #21
10000bfe:	432b      	orrs	r3, r5
10000c00:	80a3      	strh	r3, [r4, #4]
10000c02:	4b31      	ldr	r3, [pc, #196]	; (10000cc8 <irq_add_shared_handler+0x1e0>)
10000c04:	71e7      	strb	r7, [r4, #7]
10000c06:	4301      	orrs	r1, r0
10000c08:	6013      	str	r3, [r2, #0]
10000c0a:	e7bd      	b.n	10000b88 <irq_add_shared_handler+0xa0>
10000c0c:	0058      	lsls	r0, r3, #1
10000c0e:	18c0      	adds	r0, r0, r3
10000c10:	0080      	lsls	r0, r0, #2
10000c12:	1820      	adds	r0, r4, r0
10000c14:	79c6      	ldrb	r6, [r0, #7]
10000c16:	42be      	cmp	r6, r7
10000c18:	d92b      	bls.n	10000c72 <irq_add_shared_handler+0x18a>
10000c1a:	0002      	movs	r2, r0
10000c1c:	2306      	movs	r3, #6
10000c1e:	56d3      	ldrsb	r3, [r2, r3]
10000c20:	2b00      	cmp	r3, #0
10000c22:	daf3      	bge.n	10000c0c <irq_add_shared_handler+0x124>
10000c24:	1d10      	adds	r0, r2, #4
10000c26:	4682      	mov	sl, r0
10000c28:	4828      	ldr	r0, [pc, #160]	; (10000ccc <irq_add_shared_handler+0x1e4>)
10000c2a:	4680      	mov	r8, r0
10000c2c:	2604      	movs	r6, #4
10000c2e:	4276      	negs	r6, r6
10000c30:	46b4      	mov	ip, r6
10000c32:	44e1      	add	r9, ip
10000c34:	4650      	mov	r0, sl
10000c36:	464e      	mov	r6, r9
10000c38:	1a36      	subs	r6, r6, r0
10000c3a:	0530      	lsls	r0, r6, #20
10000c3c:	0d40      	lsrs	r0, r0, #21
10000c3e:	4682      	mov	sl, r0
10000c40:	4656      	mov	r6, sl
10000c42:	481c      	ldr	r0, [pc, #112]	; (10000cb4 <irq_add_shared_handler+0x1cc>)
10000c44:	7195      	strb	r5, [r2, #6]
10000c46:	4306      	orrs	r6, r0
10000c48:	8096      	strh	r6, [r2, #4]
10000c4a:	9a03      	ldr	r2, [sp, #12]
10000c4c:	4694      	mov	ip, r2
10000c4e:	4465      	add	r5, ip
10000c50:	4a1d      	ldr	r2, [pc, #116]	; (10000cc8 <irq_add_shared_handler+0x1e0>)
10000c52:	00ad      	lsls	r5, r5, #2
10000c54:	1964      	adds	r4, r4, r5
10000c56:	6022      	str	r2, [r4, #0]
10000c58:	4642      	mov	r2, r8
10000c5a:	71a3      	strb	r3, [r4, #6]
10000c5c:	9b02      	ldr	r3, [sp, #8]
10000c5e:	80a2      	strh	r2, [r4, #4]
10000c60:	71e7      	strb	r7, [r4, #7]
10000c62:	60a3      	str	r3, [r4, #8]
10000c64:	e790      	b.n	10000b88 <irq_add_shared_handler+0xa0>
10000c66:	f001 fc0d 	bl	10002484 <hard_assertion_failure>
10000c6a:	2500      	movs	r5, #0
10000c6c:	4653      	mov	r3, sl
10000c6e:	575d      	ldrsb	r5, [r3, r5]
10000c70:	e754      	b.n	10000b1c <irq_add_shared_handler+0x34>
10000c72:	1d10      	adds	r0, r2, #4
10000c74:	4682      	mov	sl, r0
10000c76:	8890      	ldrh	r0, [r2, #4]
10000c78:	0540      	lsls	r0, r0, #21
10000c7a:	1500      	asrs	r0, r0, #20
10000c7c:	4684      	mov	ip, r0
10000c7e:	4640      	mov	r0, r8
10000c80:	44d4      	add	ip, sl
10000c82:	4666      	mov	r6, ip
10000c84:	3004      	adds	r0, #4
10000c86:	1820      	adds	r0, r4, r0
10000c88:	1a30      	subs	r0, r6, r0
10000c8a:	26e0      	movs	r6, #224	; 0xe0
10000c8c:	0500      	lsls	r0, r0, #20
10000c8e:	0d40      	lsrs	r0, r0, #21
10000c90:	0236      	lsls	r6, r6, #8
10000c92:	4330      	orrs	r0, r6
10000c94:	4680      	mov	r8, r0
10000c96:	e7c9      	b.n	10000c2c <irq_add_shared_handler+0x144>
10000c98:	f001 fbf4 	bl	10002484 <hard_assertion_failure>
10000c9c:	e757      	b.n	10000b4e <irq_add_shared_handler+0x66>
10000c9e:	46c0      	nop			; (mov r8, r8)
10000ca0:	d0000124 	.word	0xd0000124
10000ca4:	20001cb8 	.word	0x20001cb8
10000ca8:	20000e2c 	.word	0x20000e2c
10000cac:	e000ed00 	.word	0xe000ed00
10000cb0:	100001cd 	.word	0x100001cd
10000cb4:	ffffe000 	.word	0xffffe000
10000cb8:	ffffa100 	.word	0xffffa100
10000cbc:	20000e5c 	.word	0x20000e5c
10000cc0:	ffffbd01 	.word	0xffffbd01
10000cc4:	0000aaaa 	.word	0x0000aaaa
10000cc8:	47804801 	.word	0x47804801
10000ccc:	0000bd01 	.word	0x0000bd01

10000cd0 <irq_remove_handler>:
10000cd0:	b5f0      	push	{r4, r5, r6, r7, lr}
10000cd2:	46de      	mov	lr, fp
10000cd4:	4657      	mov	r7, sl
10000cd6:	464e      	mov	r6, r9
10000cd8:	4645      	mov	r5, r8
10000cda:	b5e0      	push	{r5, r6, r7, lr}
10000cdc:	000c      	movs	r4, r1
10000cde:	b083      	sub	sp, #12
10000ce0:	f3ef 8910 	mrs	r9, PRIMASK
10000ce4:	b672      	cpsid	i
10000ce6:	4a58      	ldr	r2, [pc, #352]	; (10000e48 <irq_remove_handler+0x178>)
10000ce8:	6813      	ldr	r3, [r2, #0]
10000cea:	2b00      	cmp	r3, #0
10000cec:	d0fc      	beq.n	10000ce8 <irq_remove_handler+0x18>
10000cee:	f3bf 8f5f 	dmb	sy
10000cf2:	4b56      	ldr	r3, [pc, #344]	; (10000e4c <irq_remove_handler+0x17c>)
10000cf4:	689a      	ldr	r2, [r3, #8]
10000cf6:	0003      	movs	r3, r0
10000cf8:	3310      	adds	r3, #16
10000cfa:	009f      	lsls	r7, r3, #2
10000cfc:	59d5      	ldr	r5, [r2, r7]
10000cfe:	4a54      	ldr	r2, [pc, #336]	; (10000e50 <irq_remove_handler+0x180>)
10000d00:	4690      	mov	r8, r2
10000d02:	4295      	cmp	r5, r2
10000d04:	d032      	beq.n	10000d6c <irq_remove_handler+0x9c>
10000d06:	42a5      	cmp	r5, r4
10000d08:	d043      	beq.n	10000d92 <irq_remove_handler+0xc2>
10000d0a:	4e52      	ldr	r6, [pc, #328]	; (10000e54 <irq_remove_handler+0x184>)
10000d0c:	1baa      	subs	r2, r5, r6
10000d0e:	2a2f      	cmp	r2, #47	; 0x2f
10000d10:	d82c      	bhi.n	10000d6c <irq_remove_handler+0x9c>
10000d12:	2201      	movs	r2, #1
10000d14:	4082      	lsls	r2, r0
10000d16:	4692      	mov	sl, r2
10000d18:	4651      	mov	r1, sl
10000d1a:	4a4f      	ldr	r2, [pc, #316]	; (10000e58 <irq_remove_handler+0x188>)
10000d1c:	6812      	ldr	r2, [r2, #0]
10000d1e:	4011      	ands	r1, r2
10000d20:	9101      	str	r1, [sp, #4]
10000d22:	4651      	mov	r1, sl
10000d24:	4a4d      	ldr	r2, [pc, #308]	; (10000e5c <irq_remove_handler+0x18c>)
10000d26:	6011      	str	r1, [r2, #0]
10000d28:	f3bf 8f5f 	dmb	sy
10000d2c:	f3ef 8205 	mrs	r2, IPSR
10000d30:	4693      	mov	fp, r2
10000d32:	2a00      	cmp	r2, #0
10000d34:	d133      	bne.n	10000d9e <irq_remove_handler+0xce>
10000d36:	2301      	movs	r3, #1
10000d38:	002a      	movs	r2, r5
10000d3a:	439a      	bics	r2, r3
10000d3c:	6893      	ldr	r3, [r2, #8]
10000d3e:	429c      	cmp	r4, r3
10000d40:	d108      	bne.n	10000d54 <irq_remove_handler+0x84>
10000d42:	e077      	b.n	10000e34 <irq_remove_handler+0x164>
10000d44:	004b      	lsls	r3, r1, #1
10000d46:	185b      	adds	r3, r3, r1
10000d48:	009b      	lsls	r3, r3, #2
10000d4a:	18f3      	adds	r3, r6, r3
10000d4c:	6899      	ldr	r1, [r3, #8]
10000d4e:	42a1      	cmp	r1, r4
10000d50:	d02a      	beq.n	10000da8 <irq_remove_handler+0xd8>
10000d52:	001a      	movs	r2, r3
10000d54:	2106      	movs	r1, #6
10000d56:	5651      	ldrsb	r1, [r2, r1]
10000d58:	2900      	cmp	r1, #0
10000d5a:	daf3      	bge.n	10000d44 <irq_remove_handler+0x74>
10000d5c:	9b01      	ldr	r3, [sp, #4]
10000d5e:	2b00      	cmp	r3, #0
10000d60:	d019      	beq.n	10000d96 <irq_remove_handler+0xc6>
10000d62:	4652      	mov	r2, sl
10000d64:	4b3e      	ldr	r3, [pc, #248]	; (10000e60 <irq_remove_handler+0x190>)
10000d66:	601a      	str	r2, [r3, #0]
10000d68:	4b3b      	ldr	r3, [pc, #236]	; (10000e58 <irq_remove_handler+0x188>)
10000d6a:	601a      	str	r2, [r3, #0]
10000d6c:	4b37      	ldr	r3, [pc, #220]	; (10000e4c <irq_remove_handler+0x17c>)
10000d6e:	689b      	ldr	r3, [r3, #8]
10000d70:	51dd      	str	r5, [r3, r7]
10000d72:	f3bf 8f5f 	dmb	sy
10000d76:	f3bf 8f5f 	dmb	sy
10000d7a:	2200      	movs	r2, #0
10000d7c:	4b32      	ldr	r3, [pc, #200]	; (10000e48 <irq_remove_handler+0x178>)
10000d7e:	601a      	str	r2, [r3, #0]
10000d80:	f389 8810 	msr	PRIMASK, r9
10000d84:	b003      	add	sp, #12
10000d86:	bcf0      	pop	{r4, r5, r6, r7}
10000d88:	46bb      	mov	fp, r7
10000d8a:	46b2      	mov	sl, r6
10000d8c:	46a9      	mov	r9, r5
10000d8e:	46a0      	mov	r8, r4
10000d90:	bdf0      	pop	{r4, r5, r6, r7, pc}
10000d92:	0015      	movs	r5, r2
10000d94:	e7ea      	b.n	10000d6c <irq_remove_handler+0x9c>
10000d96:	4652      	mov	r2, sl
10000d98:	4b30      	ldr	r3, [pc, #192]	; (10000e5c <irq_remove_handler+0x18c>)
10000d9a:	601a      	str	r2, [r3, #0]
10000d9c:	e7e6      	b.n	10000d6c <irq_remove_handler+0x9c>
10000d9e:	4293      	cmp	r3, r2
10000da0:	d0c9      	beq.n	10000d36 <irq_remove_handler+0x66>
10000da2:	f001 fb6f 	bl	10002484 <hard_assertion_failure>
10000da6:	e7c6      	b.n	10000d36 <irq_remove_handler+0x66>
10000da8:	2106      	movs	r1, #6
10000daa:	5659      	ldrsb	r1, [r3, r1]
10000dac:	2900      	cmp	r1, #0
10000dae:	db21      	blt.n	10000df4 <irq_remove_handler+0x124>
10000db0:	004a      	lsls	r2, r1, #1
10000db2:	1850      	adds	r0, r2, r1
10000db4:	0080      	lsls	r0, r0, #2
10000db6:	1834      	adds	r4, r6, r0
10000db8:	4680      	mov	r8, r0
10000dba:	68a0      	ldr	r0, [r4, #8]
10000dbc:	6098      	str	r0, [r3, #8]
10000dbe:	79e0      	ldrb	r0, [r4, #7]
10000dc0:	71d8      	strb	r0, [r3, #7]
10000dc2:	2006      	movs	r0, #6
10000dc4:	5620      	ldrsb	r0, [r4, r0]
10000dc6:	7198      	strb	r0, [r3, #6]
10000dc8:	2800      	cmp	r0, #0
10000dca:	db24      	blt.n	10000e16 <irq_remove_handler+0x146>
10000dcc:	88a4      	ldrh	r4, [r4, #4]
10000dce:	1af0      	subs	r0, r6, r3
10000dd0:	0564      	lsls	r4, r4, #21
10000dd2:	1524      	asrs	r4, r4, #20
10000dd4:	4444      	add	r4, r8
10000dd6:	1900      	adds	r0, r0, r4
10000dd8:	24e0      	movs	r4, #224	; 0xe0
10000dda:	0500      	lsls	r0, r0, #20
10000ddc:	0d40      	lsrs	r0, r0, #21
10000dde:	0224      	lsls	r4, r4, #8
10000de0:	4320      	orrs	r0, r4
10000de2:	8098      	strh	r0, [r3, #4]
10000de4:	1852      	adds	r2, r2, r1
10000de6:	4b1f      	ldr	r3, [pc, #124]	; (10000e64 <irq_remove_handler+0x194>)
10000de8:	0092      	lsls	r2, r2, #2
10000dea:	18b6      	adds	r6, r6, r2
10000dec:	781a      	ldrb	r2, [r3, #0]
10000dee:	7019      	strb	r1, [r3, #0]
10000df0:	71b2      	strb	r2, [r6, #6]
10000df2:	e7b3      	b.n	10000d5c <irq_remove_handler+0x8c>
10000df4:	4659      	mov	r1, fp
10000df6:	2900      	cmp	r1, #0
10000df8:	d10f      	bne.n	10000e1a <irq_remove_handler+0x14a>
10000dfa:	31ff      	adds	r1, #255	; 0xff
10000dfc:	7191      	strb	r1, [r2, #6]
10000dfe:	491a      	ldr	r1, [pc, #104]	; (10000e68 <irq_remove_handler+0x198>)
10000e00:	8091      	strh	r1, [r2, #4]
10000e02:	4918      	ldr	r1, [pc, #96]	; (10000e64 <irq_remove_handler+0x194>)
10000e04:	780a      	ldrb	r2, [r1, #0]
10000e06:	719a      	strb	r2, [r3, #6]
10000e08:	4a18      	ldr	r2, [pc, #96]	; (10000e6c <irq_remove_handler+0x19c>)
10000e0a:	1b9b      	subs	r3, r3, r6
10000e0c:	415b      	adcs	r3, r3
10000e0e:	435a      	muls	r2, r3
10000e10:	0d12      	lsrs	r2, r2, #20
10000e12:	700a      	strb	r2, [r1, #0]
10000e14:	e7a2      	b.n	10000d5c <irq_remove_handler+0x8c>
10000e16:	4816      	ldr	r0, [pc, #88]	; (10000e70 <irq_remove_handler+0x1a0>)
10000e18:	e7e3      	b.n	10000de2 <irq_remove_handler+0x112>
10000e1a:	4a16      	ldr	r2, [pc, #88]	; (10000e74 <irq_remove_handler+0x1a4>)
10000e1c:	4916      	ldr	r1, [pc, #88]	; (10000e78 <irq_remove_handler+0x1a8>)
10000e1e:	1ad2      	subs	r2, r2, r3
10000e20:	3a08      	subs	r2, #8
10000e22:	0250      	lsls	r0, r2, #9
10000e24:	0d40      	lsrs	r0, r0, #21
10000e26:	4301      	orrs	r1, r0
10000e28:	8099      	strh	r1, [r3, #4]
10000e2a:	4914      	ldr	r1, [pc, #80]	; (10000e7c <irq_remove_handler+0x1ac>)
10000e2c:	0852      	lsrs	r2, r2, #1
10000e2e:	430a      	orrs	r2, r1
10000e30:	80da      	strh	r2, [r3, #6]
10000e32:	e793      	b.n	10000d5c <irq_remove_handler+0x8c>
10000e34:	2106      	movs	r1, #6
10000e36:	5651      	ldrsb	r1, [r2, r1]
10000e38:	0013      	movs	r3, r2
10000e3a:	2900      	cmp	r1, #0
10000e3c:	dab8      	bge.n	10000db0 <irq_remove_handler+0xe0>
10000e3e:	465a      	mov	r2, fp
10000e40:	2a00      	cmp	r2, #0
10000e42:	d1ea      	bne.n	10000e1a <irq_remove_handler+0x14a>
10000e44:	4645      	mov	r5, r8
10000e46:	e7dc      	b.n	10000e02 <irq_remove_handler+0x132>
10000e48:	d0000124 	.word	0xd0000124
10000e4c:	e000ed00 	.word	0xe000ed00
10000e50:	100001cd 	.word	0x100001cd
10000e54:	20000e2c 	.word	0x20000e2c
10000e58:	e000e100 	.word	0xe000e100
10000e5c:	e000e180 	.word	0xe000e180
10000e60:	e000e280 	.word	0xe000e280
10000e64:	20001cb8 	.word	0x20001cb8
10000e68:	ffffbd01 	.word	0xffffbd01
10000e6c:	0000aaaa 	.word	0x0000aaaa
10000e70:	0000bd01 	.word	0x0000bd01
10000e74:	20000e66 	.word	0x20000e66
10000e78:	fffff000 	.word	0xfffff000
10000e7c:	fffff800 	.word	0xfffff800

10000e80 <irq_add_tail_to_free_list>:
10000e80:	b570      	push	{r4, r5, r6, lr}
10000e82:	f3ef 8105 	mrs	r1, IPSR
10000e86:	2401      	movs	r4, #1
10000e88:	4304      	orrs	r4, r0
10000e8a:	f3ef 8c10 	mrs	ip, PRIMASK
10000e8e:	b672      	cpsid	i
10000e90:	4a21      	ldr	r2, [pc, #132]	; (10000f18 <irq_add_tail_to_free_list+0x98>)
10000e92:	6813      	ldr	r3, [r2, #0]
10000e94:	2b00      	cmp	r3, #0
10000e96:	d0fc      	beq.n	10000e92 <irq_add_tail_to_free_list+0x12>
10000e98:	f3bf 8f5f 	dmb	sy
10000e9c:	4b1f      	ldr	r3, [pc, #124]	; (10000f1c <irq_add_tail_to_free_list+0x9c>)
10000e9e:	0005      	movs	r5, r0
10000ea0:	4a1f      	ldr	r2, [pc, #124]	; (10000f20 <irq_add_tail_to_free_list+0xa0>)
10000ea2:	1aed      	subs	r5, r5, r3
10000ea4:	416d      	adcs	r5, r5
10000ea6:	436a      	muls	r2, r5
10000ea8:	0d12      	lsrs	r2, r2, #20
10000eaa:	4d1e      	ldr	r5, [pc, #120]	; (10000f24 <irq_add_tail_to_free_list+0xa4>)
10000eac:	0089      	lsls	r1, r1, #2
10000eae:	68ae      	ldr	r6, [r5, #8]
10000eb0:	b252      	sxtb	r2, r2
10000eb2:	5876      	ldr	r6, [r6, r1]
10000eb4:	42a6      	cmp	r6, r4
10000eb6:	d01c      	beq.n	10000ef2 <irq_add_tail_to_free_list+0x72>
10000eb8:	2106      	movs	r1, #6
10000eba:	5659      	ldrsb	r1, [r3, r1]
10000ebc:	4291      	cmp	r1, r2
10000ebe:	d01c      	beq.n	10000efa <irq_add_tail_to_free_list+0x7a>
10000ec0:	2112      	movs	r1, #18
10000ec2:	5659      	ldrsb	r1, [r3, r1]
10000ec4:	4291      	cmp	r1, r2
10000ec6:	d022      	beq.n	10000f0e <irq_add_tail_to_free_list+0x8e>
10000ec8:	211e      	movs	r1, #30
10000eca:	5659      	ldrsb	r1, [r3, r1]
10000ecc:	4291      	cmp	r1, r2
10000ece:	d020      	beq.n	10000f12 <irq_add_tail_to_free_list+0x92>
10000ed0:	212a      	movs	r1, #42	; 0x2a
10000ed2:	5659      	ldrsb	r1, [r3, r1]
10000ed4:	2403      	movs	r4, #3
10000ed6:	4291      	cmp	r1, r2
10000ed8:	d010      	beq.n	10000efc <irq_add_tail_to_free_list+0x7c>
10000eda:	4b13      	ldr	r3, [pc, #76]	; (10000f28 <irq_add_tail_to_free_list+0xa8>)
10000edc:	7819      	ldrb	r1, [r3, #0]
10000ede:	701a      	strb	r2, [r3, #0]
10000ee0:	7181      	strb	r1, [r0, #6]
10000ee2:	f3bf 8f5f 	dmb	sy
10000ee6:	2200      	movs	r2, #0
10000ee8:	4b0b      	ldr	r3, [pc, #44]	; (10000f18 <irq_add_tail_to_free_list+0x98>)
10000eea:	601a      	str	r2, [r3, #0]
10000eec:	f38c 8810 	msr	PRIMASK, ip
10000ef0:	bd70      	pop	{r4, r5, r6, pc}
10000ef2:	68ab      	ldr	r3, [r5, #8]
10000ef4:	4c0d      	ldr	r4, [pc, #52]	; (10000f2c <irq_add_tail_to_free_list+0xac>)
10000ef6:	505c      	str	r4, [r3, r1]
10000ef8:	e7ef      	b.n	10000eda <irq_add_tail_to_free_list+0x5a>
10000efa:	2400      	movs	r4, #0
10000efc:	0061      	lsls	r1, r4, #1
10000efe:	1909      	adds	r1, r1, r4
10000f00:	0089      	lsls	r1, r1, #2
10000f02:	185b      	adds	r3, r3, r1
10000f04:	21ff      	movs	r1, #255	; 0xff
10000f06:	7199      	strb	r1, [r3, #6]
10000f08:	4909      	ldr	r1, [pc, #36]	; (10000f30 <irq_add_tail_to_free_list+0xb0>)
10000f0a:	8099      	strh	r1, [r3, #4]
10000f0c:	e7e5      	b.n	10000eda <irq_add_tail_to_free_list+0x5a>
10000f0e:	2401      	movs	r4, #1
10000f10:	e7f4      	b.n	10000efc <irq_add_tail_to_free_list+0x7c>
10000f12:	2402      	movs	r4, #2
10000f14:	e7f2      	b.n	10000efc <irq_add_tail_to_free_list+0x7c>
10000f16:	46c0      	nop			; (mov r8, r8)
10000f18:	d0000124 	.word	0xd0000124
10000f1c:	20000e2c 	.word	0x20000e2c
10000f20:	0000aaaa 	.word	0x0000aaaa
10000f24:	e000ed00 	.word	0xe000ed00
10000f28:	20001cb8 	.word	0x20001cb8
10000f2c:	100001cd 	.word	0x100001cd
10000f30:	ffffbd01 	.word	0xffffbd01

10000f34 <irq_init_priorities>:
10000f34:	4b05      	ldr	r3, [pc, #20]	; (10000f4c <irq_init_priorities+0x18>)
10000f36:	4a06      	ldr	r2, [pc, #24]	; (10000f50 <irq_init_priorities+0x1c>)
10000f38:	6013      	str	r3, [r2, #0]
10000f3a:	4a06      	ldr	r2, [pc, #24]	; (10000f54 <irq_init_priorities+0x20>)
10000f3c:	6013      	str	r3, [r2, #0]
10000f3e:	6053      	str	r3, [r2, #4]
10000f40:	6093      	str	r3, [r2, #8]
10000f42:	60d3      	str	r3, [r2, #12]
10000f44:	6113      	str	r3, [r2, #16]
10000f46:	6153      	str	r3, [r2, #20]
10000f48:	6193      	str	r3, [r2, #24]
10000f4a:	4770      	bx	lr
10000f4c:	80808080 	.word	0x80808080
10000f50:	e000e400 	.word	0xe000e400
10000f54:	e000e404 	.word	0xe000e404

10000f58 <user_irq_claim_unused>:
10000f58:	b500      	push	{lr}
10000f5a:	4b07      	ldr	r3, [pc, #28]	; (10000f78 <user_irq_claim_unused+0x20>)
10000f5c:	b083      	sub	sp, #12
10000f5e:	0001      	movs	r1, r0
10000f60:	9300      	str	r3, [sp, #0]
10000f62:	2200      	movs	r2, #0
10000f64:	2305      	movs	r3, #5
10000f66:	4805      	ldr	r0, [pc, #20]	; (10000f7c <user_irq_claim_unused+0x24>)
10000f68:	f7ff fce4 	bl	10000934 <hw_claim_unused_from_range>
10000f6c:	2800      	cmp	r0, #0
10000f6e:	db01      	blt.n	10000f74 <user_irq_claim_unused+0x1c>
10000f70:	231f      	movs	r3, #31
10000f72:	1a18      	subs	r0, r3, r0
10000f74:	b003      	add	sp, #12
10000f76:	bd00      	pop	{pc}
10000f78:	100071c4 	.word	0x100071c4
10000f7c:	20001cbd 	.word	0x20001cbd

10000f80 <lock_init>:
10000f80:	4b02      	ldr	r3, [pc, #8]	; (10000f8c <lock_init+0xc>)
10000f82:	469c      	mov	ip, r3
10000f84:	4461      	add	r1, ip
10000f86:	0089      	lsls	r1, r1, #2
10000f88:	6001      	str	r1, [r0, #0]
10000f8a:	4770      	bx	lr
10000f8c:	34000040 	.word	0x34000040

10000f90 <mutex_init>:
10000f90:	b510      	push	{r4, lr}
10000f92:	0004      	movs	r4, r0
10000f94:	f7ff fd2a 	bl	100009ec <next_striped_spin_lock_num>
10000f98:	0001      	movs	r1, r0
10000f9a:	0020      	movs	r0, r4
10000f9c:	f7ff fff0 	bl	10000f80 <lock_init>
10000fa0:	23ff      	movs	r3, #255	; 0xff
10000fa2:	7123      	strb	r3, [r4, #4]
10000fa4:	f3bf 8f5f 	dmb	sy
10000fa8:	bd10      	pop	{r4, pc}
10000faa:	46c0      	nop			; (mov r8, r8)

10000fac <recursive_mutex_init>:
10000fac:	b510      	push	{r4, lr}
10000fae:	0004      	movs	r4, r0
10000fb0:	f7ff fd1c 	bl	100009ec <next_striped_spin_lock_num>
10000fb4:	0001      	movs	r1, r0
10000fb6:	0020      	movs	r0, r4
10000fb8:	f7ff ffe2 	bl	10000f80 <lock_init>
10000fbc:	23ff      	movs	r3, #255	; 0xff
10000fbe:	80a3      	strh	r3, [r4, #4]
10000fc0:	f3bf 8f5f 	dmb	sy
10000fc4:	bd10      	pop	{r4, pc}
10000fc6:	46c0      	nop			; (mov r8, r8)

10000fc8 <critical_section_init>:
10000fc8:	b510      	push	{r4, lr}
10000fca:	0004      	movs	r4, r0
10000fcc:	2001      	movs	r0, #1
10000fce:	f7ff fd19 	bl	10000a04 <spin_lock_claim_unused>
10000fd2:	4b04      	ldr	r3, [pc, #16]	; (10000fe4 <critical_section_init+0x1c>)
10000fd4:	469c      	mov	ip, r3
10000fd6:	4460      	add	r0, ip
10000fd8:	0080      	lsls	r0, r0, #2
10000fda:	6020      	str	r0, [r4, #0]
10000fdc:	f3bf 8f5f 	dmb	sy
10000fe0:	bd10      	pop	{r4, pc}
10000fe2:	46c0      	nop			; (mov r8, r8)
10000fe4:	34000040 	.word	0x34000040

10000fe8 <critical_section_init_with_lock_num>:
10000fe8:	4b03      	ldr	r3, [pc, #12]	; (10000ff8 <critical_section_init_with_lock_num+0x10>)
10000fea:	469c      	mov	ip, r3
10000fec:	4461      	add	r1, ip
10000fee:	0089      	lsls	r1, r1, #2
10000ff0:	6001      	str	r1, [r0, #0]
10000ff2:	f3bf 8f5f 	dmb	sy
10000ff6:	4770      	bx	lr
10000ff8:	34000040 	.word	0x34000040

10000ffc <timer_pool_entry_comparator>:
10000ffc:	6883      	ldr	r3, [r0, #8]
10000ffe:	480b      	ldr	r0, [pc, #44]	; (1000102c <timer_pool_entry_comparator+0x30>)
10001000:	b510      	push	{r4, lr}
10001002:	4684      	mov	ip, r0
10001004:	4461      	add	r1, ip
10001006:	4462      	add	r2, ip
10001008:	0109      	lsls	r1, r1, #4
1000100a:	0112      	lsls	r2, r2, #4
1000100c:	189a      	adds	r2, r3, r2
1000100e:	1859      	adds	r1, r3, r1
10001010:	6854      	ldr	r4, [r2, #4]
10001012:	684b      	ldr	r3, [r1, #4]
10001014:	2001      	movs	r0, #1
10001016:	429c      	cmp	r4, r3
10001018:	d801      	bhi.n	1000101e <timer_pool_entry_comparator+0x22>
1000101a:	d002      	beq.n	10001022 <timer_pool_entry_comparator+0x26>
1000101c:	2000      	movs	r0, #0
1000101e:	b2c0      	uxtb	r0, r0
10001020:	bd10      	pop	{r4, pc}
10001022:	6812      	ldr	r2, [r2, #0]
10001024:	680b      	ldr	r3, [r1, #0]
10001026:	429a      	cmp	r2, r3
10001028:	d8f9      	bhi.n	1000101e <timer_pool_entry_comparator+0x22>
1000102a:	e7f7      	b.n	1000101c <timer_pool_entry_comparator+0x20>
1000102c:	0fffffff 	.word	0x0fffffff

10001030 <sleep_until_callback>:
10001030:	4b0a      	ldr	r3, [pc, #40]	; (1000105c <sleep_until_callback+0x2c>)
10001032:	6819      	ldr	r1, [r3, #0]
10001034:	f3ef 8010 	mrs	r0, PRIMASK
10001038:	b672      	cpsid	i
1000103a:	680a      	ldr	r2, [r1, #0]
1000103c:	2a00      	cmp	r2, #0
1000103e:	d0fc      	beq.n	1000103a <sleep_until_callback+0xa>
10001040:	f3bf 8f5f 	dmb	sy
10001044:	681b      	ldr	r3, [r3, #0]
10001046:	f3bf 8f5f 	dmb	sy
1000104a:	2200      	movs	r2, #0
1000104c:	601a      	str	r2, [r3, #0]
1000104e:	f380 8810 	msr	PRIMASK, r0
10001052:	bf40      	sev
10001054:	2000      	movs	r0, #0
10001056:	2100      	movs	r1, #0
10001058:	4770      	bx	lr
1000105a:	46c0      	nop			; (mov r8, r8)
1000105c:	20001c80 	.word	0x20001c80

10001060 <add_alarm_under_lock.isra.0>:
10001060:	b5f8      	push	{r3, r4, r5, r6, r7, lr}
10001062:	4657      	mov	r7, sl
10001064:	464e      	mov	r6, r9
10001066:	4645      	mov	r5, r8
10001068:	46de      	mov	lr, fp
1000106a:	b5e0      	push	{r5, r6, r7, lr}
1000106c:	4699      	mov	r9, r3
1000106e:	ab0c      	add	r3, sp, #48	; 0x30
10001070:	781c      	ldrb	r4, [r3, #0]
10001072:	ab0d      	add	r3, sp, #52	; 0x34
10001074:	781b      	ldrb	r3, [r3, #0]
10001076:	0006      	movs	r6, r0
10001078:	4690      	mov	r8, r2
1000107a:	469a      	mov	sl, r3
1000107c:	6807      	ldr	r7, [r0, #0]
1000107e:	2c00      	cmp	r4, #0
10001080:	d111      	bne.n	100010a6 <add_alarm_under_lock.isra.0+0x46>
10001082:	7bbc      	ldrb	r4, [r7, #14]
10001084:	2c00      	cmp	r4, #0
10001086:	d042      	beq.n	1000110e <add_alarm_under_lock.isra.0+0xae>
10001088:	0065      	lsls	r5, r4, #1
1000108a:	683b      	ldr	r3, [r7, #0]
1000108c:	192d      	adds	r5, r5, r4
1000108e:	3d03      	subs	r5, #3
10001090:	1959      	adds	r1, r3, r5
10001092:	784b      	ldrb	r3, [r1, #1]
10001094:	73bb      	strb	r3, [r7, #14]
10001096:	2b00      	cmp	r3, #0
10001098:	d100      	bne.n	1000109c <add_alarm_under_lock.isra.0+0x3c>
1000109a:	73fb      	strb	r3, [r7, #15]
1000109c:	2300      	movs	r3, #0
1000109e:	708b      	strb	r3, [r1, #2]
100010a0:	704b      	strb	r3, [r1, #1]
100010a2:	700b      	strb	r3, [r1, #0]
100010a4:	e004      	b.n	100010b0 <add_alarm_under_lock.isra.0+0x50>
100010a6:	0065      	lsls	r5, r4, #1
100010a8:	683b      	ldr	r3, [r7, #0]
100010aa:	192d      	adds	r5, r5, r4
100010ac:	3d03      	subs	r5, #3
100010ae:	1959      	adds	r1, r3, r5
100010b0:	68b2      	ldr	r2, [r6, #8]
100010b2:	4b2a      	ldr	r3, [pc, #168]	; (1000115c <add_alarm_under_lock.isra.0+0xfc>)
100010b4:	4694      	mov	ip, r2
100010b6:	4642      	mov	r2, r8
100010b8:	18e3      	adds	r3, r4, r3
100010ba:	011b      	lsls	r3, r3, #4
100010bc:	4463      	add	r3, ip
100010be:	601a      	str	r2, [r3, #0]
100010c0:	464a      	mov	r2, r9
100010c2:	605a      	str	r2, [r3, #4]
100010c4:	9a0a      	ldr	r2, [sp, #40]	; 0x28
100010c6:	609a      	str	r2, [r3, #8]
100010c8:	9a0b      	ldr	r2, [sp, #44]	; 0x2c
100010ca:	60da      	str	r2, [r3, #12]
100010cc:	2300      	movs	r3, #0
100010ce:	708b      	strb	r3, [r1, #2]
100010d0:	704b      	strb	r3, [r1, #1]
100010d2:	700b      	strb	r3, [r1, #0]
100010d4:	7b7b      	ldrb	r3, [r7, #13]
100010d6:	469b      	mov	fp, r3
100010d8:	2b00      	cmp	r3, #0
100010da:	d02b      	beq.n	10001134 <add_alarm_under_lock.isra.0+0xd4>
100010dc:	0022      	movs	r2, r4
100010de:	4659      	mov	r1, fp
100010e0:	68b8      	ldr	r0, [r7, #8]
100010e2:	687b      	ldr	r3, [r7, #4]
100010e4:	4798      	blx	r3
100010e6:	683a      	ldr	r2, [r7, #0]
100010e8:	2800      	cmp	r0, #0
100010ea:	d016      	beq.n	1000111a <add_alarm_under_lock.isra.0+0xba>
100010ec:	465b      	mov	r3, fp
100010ee:	4658      	mov	r0, fp
100010f0:	005b      	lsls	r3, r3, #1
100010f2:	445b      	add	r3, fp
100010f4:	1955      	adds	r5, r2, r5
100010f6:	3b03      	subs	r3, #3
100010f8:	70a8      	strb	r0, [r5, #2]
100010fa:	18d1      	adds	r1, r2, r3
100010fc:	5cd3      	ldrb	r3, [r2, r3]
100010fe:	2b00      	cmp	r3, #0
10001100:	d000      	beq.n	10001104 <add_alarm_under_lock.isra.0+0xa4>
10001102:	706b      	strb	r3, [r5, #1]
10001104:	465b      	mov	r3, fp
10001106:	700c      	strb	r4, [r1, #0]
10001108:	737b      	strb	r3, [r7, #13]
1000110a:	45a3      	cmp	fp, r4
1000110c:	d013      	beq.n	10001136 <add_alarm_under_lock.isra.0+0xd6>
1000110e:	bcf0      	pop	{r4, r5, r6, r7}
10001110:	46bb      	mov	fp, r7
10001112:	46b2      	mov	sl, r6
10001114:	46a9      	mov	r9, r5
10001116:	46a0      	mov	r8, r4
10001118:	bdf8      	pop	{r3, r4, r5, r6, r7, pc}
1000111a:	465b      	mov	r3, fp
1000111c:	005b      	lsls	r3, r3, #1
1000111e:	445b      	add	r3, fp
10001120:	3b03      	subs	r3, #3
10001122:	18d3      	adds	r3, r2, r3
10001124:	709c      	strb	r4, [r3, #2]
10001126:	1951      	adds	r1, r2, r5
10001128:	5d52      	ldrb	r2, [r2, r5]
1000112a:	2a00      	cmp	r2, #0
1000112c:	d000      	beq.n	10001130 <add_alarm_under_lock.isra.0+0xd0>
1000112e:	705a      	strb	r2, [r3, #1]
10001130:	465b      	mov	r3, fp
10001132:	700b      	strb	r3, [r1, #0]
10001134:	737c      	strb	r4, [r7, #13]
10001136:	4642      	mov	r2, r8
10001138:	464b      	mov	r3, r9
1000113a:	7d30      	ldrb	r0, [r6, #20]
1000113c:	f000 fbc0 	bl	100018c0 <hardware_alarm_set_target>
10001140:	1e05      	subs	r5, r0, #0
10001142:	d006      	beq.n	10001152 <add_alarm_under_lock.isra.0+0xf2>
10001144:	4653      	mov	r3, sl
10001146:	2b00      	cmp	r3, #0
10001148:	d103      	bne.n	10001152 <add_alarm_under_lock.isra.0+0xf2>
1000114a:	0021      	movs	r1, r4
1000114c:	6830      	ldr	r0, [r6, #0]
1000114e:	f000 fddb 	bl	10001d08 <ph_remove_and_free_node>
10001152:	9b0e      	ldr	r3, [sp, #56]	; 0x38
10001154:	2b00      	cmp	r3, #0
10001156:	d0da      	beq.n	1000110e <add_alarm_under_lock.isra.0+0xae>
10001158:	701d      	strb	r5, [r3, #0]
1000115a:	e7d8      	b.n	1000110e <add_alarm_under_lock.isra.0+0xae>
1000115c:	0fffffff 	.word	0x0fffffff

10001160 <alarm_pool_alarm_callback>:
10001160:	b5f0      	push	{r4, r5, r6, r7, lr}
10001162:	46de      	mov	lr, fp
10001164:	4657      	mov	r7, sl
10001166:	464e      	mov	r6, r9
10001168:	4645      	mov	r5, r8
1000116a:	2300      	movs	r3, #0
1000116c:	b5e0      	push	{r5, r6, r7, lr}
1000116e:	b08b      	sub	sp, #44	; 0x2c
10001170:	9308      	str	r3, [sp, #32]
10001172:	4b67      	ldr	r3, [pc, #412]	; (10001310 <alarm_pool_alarm_callback+0x1b0>)
10001174:	0082      	lsls	r2, r0, #2
10001176:	58d4      	ldr	r4, [r2, r3]
10001178:	2300      	movs	r3, #0
1000117a:	469b      	mov	fp, r3
1000117c:	9009      	str	r0, [sp, #36]	; 0x24
1000117e:	f000 fb15 	bl	100017ac <time_us_64>
10001182:	6862      	ldr	r2, [r4, #4]
10001184:	0006      	movs	r6, r0
10001186:	000f      	movs	r7, r1
10001188:	f3ef 8510 	mrs	r5, PRIMASK
1000118c:	b672      	cpsid	i
1000118e:	6813      	ldr	r3, [r2, #0]
10001190:	2b00      	cmp	r3, #0
10001192:	d0fc      	beq.n	1000118e <alarm_pool_alarm_callback+0x2e>
10001194:	f3bf 8f5f 	dmb	sy
10001198:	6823      	ldr	r3, [r4, #0]
1000119a:	469c      	mov	ip, r3
1000119c:	7b5b      	ldrb	r3, [r3, #13]
1000119e:	4699      	mov	r9, r3
100011a0:	2b00      	cmp	r3, #0
100011a2:	d100      	bne.n	100011a6 <alarm_pool_alarm_callback+0x46>
100011a4:	e069      	b.n	1000127a <alarm_pool_alarm_callback+0x11a>
100011a6:	68a2      	ldr	r2, [r4, #8]
100011a8:	4b5a      	ldr	r3, [pc, #360]	; (10001314 <alarm_pool_alarm_callback+0x1b4>)
100011aa:	4690      	mov	r8, r2
100011ac:	444b      	add	r3, r9
100011ae:	011b      	lsls	r3, r3, #4
100011b0:	4498      	add	r8, r3
100011b2:	4643      	mov	r3, r8
100011b4:	681a      	ldr	r2, [r3, #0]
100011b6:	685b      	ldr	r3, [r3, #4]
100011b8:	0010      	movs	r0, r2
100011ba:	0019      	movs	r1, r3
100011bc:	1b80      	subs	r0, r0, r6
100011be:	41b9      	sbcs	r1, r7
100011c0:	2900      	cmp	r1, #0
100011c2:	dc00      	bgt.n	100011c6 <alarm_pool_alarm_callback+0x66>
100011c4:	e063      	b.n	1000128e <alarm_pool_alarm_callback+0x12e>
100011c6:	9809      	ldr	r0, [sp, #36]	; 0x24
100011c8:	f000 fb7a 	bl	100018c0 <hardware_alarm_set_target>
100011cc:	2300      	movs	r3, #0
100011ce:	2200      	movs	r2, #0
100011d0:	4698      	mov	r8, r3
100011d2:	2300      	movs	r3, #0
100011d4:	9206      	str	r2, [sp, #24]
100011d6:	9307      	str	r3, [sp, #28]
100011d8:	2300      	movs	r3, #0
100011da:	469a      	mov	sl, r3
100011dc:	6863      	ldr	r3, [r4, #4]
100011de:	f3bf 8f5f 	dmb	sy
100011e2:	465a      	mov	r2, fp
100011e4:	601a      	str	r2, [r3, #0]
100011e6:	f385 8810 	msr	PRIMASK, r5
100011ea:	4653      	mov	r3, sl
100011ec:	2b00      	cmp	r3, #0
100011ee:	d108      	bne.n	10001202 <alarm_pool_alarm_callback+0xa2>
100011f0:	2800      	cmp	r0, #0
100011f2:	d1c4      	bne.n	1000117e <alarm_pool_alarm_callback+0x1e>
100011f4:	b00b      	add	sp, #44	; 0x2c
100011f6:	bcf0      	pop	{r4, r5, r6, r7}
100011f8:	46bb      	mov	fp, r7
100011fa:	46b2      	mov	sl, r6
100011fc:	46a9      	mov	r9, r5
100011fe:	46a0      	mov	r8, r4
10001200:	bdf0      	pop	{r4, r5, r6, r7, pc}
10001202:	9b08      	ldr	r3, [sp, #32]
10001204:	4641      	mov	r1, r8
10001206:	0218      	lsls	r0, r3, #8
10001208:	464b      	mov	r3, r9
1000120a:	4318      	orrs	r0, r3
1000120c:	47d0      	blx	sl
1000120e:	6862      	ldr	r2, [r4, #4]
10001210:	0006      	movs	r6, r0
10001212:	000f      	movs	r7, r1
10001214:	f3ef 8510 	mrs	r5, PRIMASK
10001218:	b672      	cpsid	i
1000121a:	6813      	ldr	r3, [r2, #0]
1000121c:	2b00      	cmp	r3, #0
1000121e:	d0fc      	beq.n	1000121a <alarm_pool_alarm_callback+0xba>
10001220:	f3bf 8f5f 	dmb	sy
10001224:	2f00      	cmp	r7, #0
10001226:	db50      	blt.n	100012ca <alarm_pool_alarm_callback+0x16a>
10001228:	0033      	movs	r3, r6
1000122a:	433b      	orrs	r3, r7
1000122c:	d002      	beq.n	10001234 <alarm_pool_alarm_callback+0xd4>
1000122e:	6923      	ldr	r3, [r4, #16]
10001230:	2b00      	cmp	r3, #0
10001232:	d161      	bne.n	100012f8 <alarm_pool_alarm_callback+0x198>
10001234:	6823      	ldr	r3, [r4, #0]
10001236:	7bd9      	ldrb	r1, [r3, #15]
10001238:	2900      	cmp	r1, #0
1000123a:	d007      	beq.n	1000124c <alarm_pool_alarm_callback+0xec>
1000123c:	004a      	lsls	r2, r1, #1
1000123e:	1852      	adds	r2, r2, r1
10001240:	6819      	ldr	r1, [r3, #0]
10001242:	468c      	mov	ip, r1
10001244:	4649      	mov	r1, r9
10001246:	4462      	add	r2, ip
10001248:	3a03      	subs	r2, #3
1000124a:	7051      	strb	r1, [r2, #1]
1000124c:	7b9a      	ldrb	r2, [r3, #14]
1000124e:	2a00      	cmp	r2, #0
10001250:	d101      	bne.n	10001256 <alarm_pool_alarm_callback+0xf6>
10001252:	464a      	mov	r2, r9
10001254:	739a      	strb	r2, [r3, #14]
10001256:	464a      	mov	r2, r9
10001258:	73da      	strb	r2, [r3, #15]
1000125a:	464b      	mov	r3, r9
1000125c:	68e1      	ldr	r1, [r4, #12]
1000125e:	3b01      	subs	r3, #1
10001260:	5cca      	ldrb	r2, [r1, r3]
10001262:	3201      	adds	r2, #1
10001264:	54ca      	strb	r2, [r1, r3]
10001266:	465b      	mov	r3, fp
10001268:	6123      	str	r3, [r4, #16]
1000126a:	6863      	ldr	r3, [r4, #4]
1000126c:	f3bf 8f5f 	dmb	sy
10001270:	465a      	mov	r2, fp
10001272:	601a      	str	r2, [r3, #0]
10001274:	f385 8810 	msr	PRIMASK, r5
10001278:	e781      	b.n	1000117e <alarm_pool_alarm_callback+0x1e>
1000127a:	2300      	movs	r3, #0
1000127c:	2200      	movs	r2, #0
1000127e:	4698      	mov	r8, r3
10001280:	2300      	movs	r3, #0
10001282:	9206      	str	r2, [sp, #24]
10001284:	9307      	str	r3, [sp, #28]
10001286:	2300      	movs	r3, #0
10001288:	2000      	movs	r0, #0
1000128a:	469a      	mov	sl, r3
1000128c:	e7a6      	b.n	100011dc <alarm_pool_alarm_callback+0x7c>
1000128e:	2900      	cmp	r1, #0
10001290:	d102      	bne.n	10001298 <alarm_pool_alarm_callback+0x138>
10001292:	2800      	cmp	r0, #0
10001294:	d000      	beq.n	10001298 <alarm_pool_alarm_callback+0x138>
10001296:	e796      	b.n	100011c6 <alarm_pool_alarm_callback+0x66>
10001298:	2100      	movs	r1, #0
1000129a:	4660      	mov	r0, ip
1000129c:	f000 fcb2 	bl	10001c04 <ph_remove_head>
100012a0:	4643      	mov	r3, r8
100012a2:	681a      	ldr	r2, [r3, #0]
100012a4:	685b      	ldr	r3, [r3, #4]
100012a6:	9206      	str	r2, [sp, #24]
100012a8:	9307      	str	r3, [sp, #28]
100012aa:	4643      	mov	r3, r8
100012ac:	689b      	ldr	r3, [r3, #8]
100012ae:	469a      	mov	sl, r3
100012b0:	4643      	mov	r3, r8
100012b2:	68db      	ldr	r3, [r3, #12]
100012b4:	4698      	mov	r8, r3
100012b6:	68e3      	ldr	r3, [r4, #12]
100012b8:	444b      	add	r3, r9
100012ba:	3b01      	subs	r3, #1
100012bc:	781b      	ldrb	r3, [r3, #0]
100012be:	9308      	str	r3, [sp, #32]
100012c0:	021b      	lsls	r3, r3, #8
100012c2:	4303      	orrs	r3, r0
100012c4:	6123      	str	r3, [r4, #16]
100012c6:	2000      	movs	r0, #0
100012c8:	e788      	b.n	100011dc <alarm_pool_alarm_callback+0x7c>
100012ca:	6923      	ldr	r3, [r4, #16]
100012cc:	2b00      	cmp	r3, #0
100012ce:	d0b1      	beq.n	10001234 <alarm_pool_alarm_callback+0xd4>
100012d0:	9a06      	ldr	r2, [sp, #24]
100012d2:	9b07      	ldr	r3, [sp, #28]
100012d4:	1b92      	subs	r2, r2, r6
100012d6:	41bb      	sbcs	r3, r7
100012d8:	2b00      	cmp	r3, #0
100012da:	db15      	blt.n	10001308 <alarm_pool_alarm_callback+0x1a8>
100012dc:	4659      	mov	r1, fp
100012de:	9104      	str	r1, [sp, #16]
100012e0:	2101      	movs	r1, #1
100012e2:	9103      	str	r1, [sp, #12]
100012e4:	4649      	mov	r1, r9
100012e6:	9102      	str	r1, [sp, #8]
100012e8:	4641      	mov	r1, r8
100012ea:	9101      	str	r1, [sp, #4]
100012ec:	4651      	mov	r1, sl
100012ee:	0020      	movs	r0, r4
100012f0:	9100      	str	r1, [sp, #0]
100012f2:	f7ff feb5 	bl	10001060 <add_alarm_under_lock.isra.0>
100012f6:	e7b6      	b.n	10001266 <alarm_pool_alarm_callback+0x106>
100012f8:	f000 fa58 	bl	100017ac <time_us_64>
100012fc:	0032      	movs	r2, r6
100012fe:	003b      	movs	r3, r7
10001300:	1812      	adds	r2, r2, r0
10001302:	414b      	adcs	r3, r1
10001304:	2b00      	cmp	r3, #0
10001306:	dae9      	bge.n	100012dc <alarm_pool_alarm_callback+0x17c>
10001308:	2201      	movs	r2, #1
1000130a:	4b03      	ldr	r3, [pc, #12]	; (10001318 <alarm_pool_alarm_callback+0x1b8>)
1000130c:	4252      	negs	r2, r2
1000130e:	e7e5      	b.n	100012dc <alarm_pool_alarm_callback+0x17c>
10001310:	20001c54 	.word	0x20001c54
10001314:	0fffffff 	.word	0x0fffffff
10001318:	7fffffff 	.word	0x7fffffff

1000131c <alarm_pool_init_default>:
1000131c:	b510      	push	{r4, lr}
1000131e:	4c14      	ldr	r4, [pc, #80]	; (10001370 <alarm_pool_init_default+0x54>)
10001320:	6863      	ldr	r3, [r4, #4]
10001322:	2b00      	cmp	r3, #0
10001324:	d004      	beq.n	10001330 <alarm_pool_init_default+0x14>
10001326:	210a      	movs	r1, #10
10001328:	4812      	ldr	r0, [pc, #72]	; (10001374 <alarm_pool_init_default+0x58>)
1000132a:	f7ff fe29 	bl	10000f80 <lock_init>
1000132e:	bd10      	pop	{r4, pc}
10001330:	0023      	movs	r3, r4
10001332:	4a11      	ldr	r2, [pc, #68]	; (10001378 <alarm_pool_init_default+0x5c>)
10001334:	2110      	movs	r1, #16
10001336:	6820      	ldr	r0, [r4, #0]
10001338:	f000 fb7e 	bl	10001a38 <ph_post_alloc_init>
1000133c:	2003      	movs	r0, #3
1000133e:	f000 fa29 	bl	10001794 <hardware_alarm_claim>
10001342:	2003      	movs	r0, #3
10001344:	f000 fb26 	bl	10001994 <hardware_alarm_cancel>
10001348:	2003      	movs	r0, #3
1000134a:	490c      	ldr	r1, [pc, #48]	; (1000137c <alarm_pool_init_default+0x60>)
1000134c:	f000 fa72 	bl	10001834 <hardware_alarm_set_callback>
10001350:	f7ff fb4c 	bl	100009ec <next_striped_spin_lock_num>
10001354:	4b0a      	ldr	r3, [pc, #40]	; (10001380 <alarm_pool_init_default+0x64>)
10001356:	469c      	mov	ip, r3
10001358:	2303      	movs	r3, #3
1000135a:	7523      	strb	r3, [r4, #20]
1000135c:	23d0      	movs	r3, #208	; 0xd0
1000135e:	061b      	lsls	r3, r3, #24
10001360:	681b      	ldr	r3, [r3, #0]
10001362:	4460      	add	r0, ip
10001364:	7563      	strb	r3, [r4, #21]
10001366:	4b07      	ldr	r3, [pc, #28]	; (10001384 <alarm_pool_init_default+0x68>)
10001368:	0080      	lsls	r0, r0, #2
1000136a:	6060      	str	r0, [r4, #4]
1000136c:	60dc      	str	r4, [r3, #12]
1000136e:	e7da      	b.n	10001326 <alarm_pool_init_default+0xa>
10001370:	20000e74 	.word	0x20000e74
10001374:	20001c80 	.word	0x20001c80
10001378:	10000ffd 	.word	0x10000ffd
1000137c:	10001161 	.word	0x10001161
10001380:	34000040 	.word	0x34000040
10001384:	20001c54 	.word	0x20001c54

10001388 <alarm_pool_get_default>:
10001388:	4800      	ldr	r0, [pc, #0]	; (1000138c <alarm_pool_get_default+0x4>)
1000138a:	4770      	bx	lr
1000138c:	20000e74 	.word	0x20000e74

10001390 <alarm_pool_add_alarm_at>:
10001390:	b5f0      	push	{r4, r5, r6, r7, lr}
10001392:	464e      	mov	r6, r9
10001394:	4645      	mov	r5, r8
10001396:	46de      	mov	lr, fp
10001398:	4657      	mov	r7, sl
1000139a:	b5e0      	push	{r5, r6, r7, lr}
1000139c:	b085      	sub	sp, #20
1000139e:	9301      	str	r3, [sp, #4]
100013a0:	ab10      	add	r3, sp, #64	; 0x40
100013a2:	781b      	ldrb	r3, [r3, #0]
100013a4:	0006      	movs	r6, r0
100013a6:	9303      	str	r3, [sp, #12]
100013a8:	2300      	movs	r3, #0
100013aa:	4699      	mov	r9, r3
100013ac:	4698      	mov	r8, r3
100013ae:	9200      	str	r2, [sp, #0]
100013b0:	6872      	ldr	r2, [r6, #4]
100013b2:	f3ef 8b10 	mrs	fp, PRIMASK
100013b6:	b672      	cpsid	i
100013b8:	6813      	ldr	r3, [r2, #0]
100013ba:	2b00      	cmp	r3, #0
100013bc:	d0fc      	beq.n	100013b8 <alarm_pool_add_alarm_at+0x28>
100013be:	f3bf 8f5f 	dmb	sy
100013c2:	6835      	ldr	r5, [r6, #0]
100013c4:	7bac      	ldrb	r4, [r5, #14]
100013c6:	2c00      	cmp	r4, #0
100013c8:	d03d      	beq.n	10001446 <alarm_pool_add_alarm_at+0xb6>
100013ca:	0067      	lsls	r7, r4, #1
100013cc:	682b      	ldr	r3, [r5, #0]
100013ce:	193f      	adds	r7, r7, r4
100013d0:	3f03      	subs	r7, #3
100013d2:	19db      	adds	r3, r3, r7
100013d4:	785a      	ldrb	r2, [r3, #1]
100013d6:	73aa      	strb	r2, [r5, #14]
100013d8:	2a00      	cmp	r2, #0
100013da:	d100      	bne.n	100013de <alarm_pool_add_alarm_at+0x4e>
100013dc:	73ea      	strb	r2, [r5, #15]
100013de:	68b1      	ldr	r1, [r6, #8]
100013e0:	4a47      	ldr	r2, [pc, #284]	; (10001500 <alarm_pool_add_alarm_at+0x170>)
100013e2:	468c      	mov	ip, r1
100013e4:	9800      	ldr	r0, [sp, #0]
100013e6:	9901      	ldr	r1, [sp, #4]
100013e8:	18a2      	adds	r2, r4, r2
100013ea:	0112      	lsls	r2, r2, #4
100013ec:	4462      	add	r2, ip
100013ee:	6010      	str	r0, [r2, #0]
100013f0:	6051      	str	r1, [r2, #4]
100013f2:	990e      	ldr	r1, [sp, #56]	; 0x38
100013f4:	6091      	str	r1, [r2, #8]
100013f6:	990f      	ldr	r1, [sp, #60]	; 0x3c
100013f8:	60d1      	str	r1, [r2, #12]
100013fa:	4642      	mov	r2, r8
100013fc:	709a      	strb	r2, [r3, #2]
100013fe:	705a      	strb	r2, [r3, #1]
10001400:	701a      	strb	r2, [r3, #0]
10001402:	7b6b      	ldrb	r3, [r5, #13]
10001404:	469a      	mov	sl, r3
10001406:	2b00      	cmp	r3, #0
10001408:	d067      	beq.n	100014da <alarm_pool_add_alarm_at+0x14a>
1000140a:	0022      	movs	r2, r4
1000140c:	0019      	movs	r1, r3
1000140e:	68a8      	ldr	r0, [r5, #8]
10001410:	686b      	ldr	r3, [r5, #4]
10001412:	4798      	blx	r3
10001414:	682a      	ldr	r2, [r5, #0]
10001416:	2800      	cmp	r0, #0
10001418:	d052      	beq.n	100014c0 <alarm_pool_add_alarm_at+0x130>
1000141a:	4653      	mov	r3, sl
1000141c:	4650      	mov	r0, sl
1000141e:	005b      	lsls	r3, r3, #1
10001420:	4453      	add	r3, sl
10001422:	19d7      	adds	r7, r2, r7
10001424:	3b03      	subs	r3, #3
10001426:	70b8      	strb	r0, [r7, #2]
10001428:	18d1      	adds	r1, r2, r3
1000142a:	5cd3      	ldrb	r3, [r2, r3]
1000142c:	2b00      	cmp	r3, #0
1000142e:	d000      	beq.n	10001432 <alarm_pool_add_alarm_at+0xa2>
10001430:	707b      	strb	r3, [r7, #1]
10001432:	4653      	mov	r3, sl
10001434:	700c      	strb	r4, [r1, #0]
10001436:	736b      	strb	r3, [r5, #13]
10001438:	4554      	cmp	r4, sl
1000143a:	d04f      	beq.n	100014dc <alarm_pool_add_alarm_at+0x14c>
1000143c:	68f3      	ldr	r3, [r6, #12]
1000143e:	191b      	adds	r3, r3, r4
10001440:	3b01      	subs	r3, #1
10001442:	7818      	ldrb	r0, [r3, #0]
10001444:	e000      	b.n	10001448 <alarm_pool_add_alarm_at+0xb8>
10001446:	2000      	movs	r0, #0
10001448:	6873      	ldr	r3, [r6, #4]
1000144a:	f3bf 8f5f 	dmb	sy
1000144e:	4642      	mov	r2, r8
10001450:	601a      	str	r2, [r3, #0]
10001452:	f38b 8810 	msr	PRIMASK, fp
10001456:	2c00      	cmp	r4, #0
10001458:	d04f      	beq.n	100014fa <alarm_pool_add_alarm_at+0x16a>
1000145a:	464b      	mov	r3, r9
1000145c:	2b00      	cmp	r3, #0
1000145e:	d108      	bne.n	10001472 <alarm_pool_add_alarm_at+0xe2>
10001460:	0200      	lsls	r0, r0, #8
10001462:	4320      	orrs	r0, r4
10001464:	b005      	add	sp, #20
10001466:	bcf0      	pop	{r4, r5, r6, r7}
10001468:	46bb      	mov	fp, r7
1000146a:	46b2      	mov	sl, r6
1000146c:	46a9      	mov	r9, r5
1000146e:	46a0      	mov	r8, r4
10001470:	bdf0      	pop	{r4, r5, r6, r7, pc}
10001472:	9b03      	ldr	r3, [sp, #12]
10001474:	2b00      	cmp	r3, #0
10001476:	d03e      	beq.n	100014f6 <alarm_pool_add_alarm_at+0x166>
10001478:	9b0e      	ldr	r3, [sp, #56]	; 0x38
1000147a:	2000      	movs	r0, #0
1000147c:	990f      	ldr	r1, [sp, #60]	; 0x3c
1000147e:	4798      	blx	r3
10001480:	0003      	movs	r3, r0
10001482:	0004      	movs	r4, r0
10001484:	000d      	movs	r5, r1
10001486:	430b      	orrs	r3, r1
10001488:	d035      	beq.n	100014f6 <alarm_pool_add_alarm_at+0x166>
1000148a:	2900      	cmp	r1, #0
1000148c:	da0a      	bge.n	100014a4 <alarm_pool_add_alarm_at+0x114>
1000148e:	9a00      	ldr	r2, [sp, #0]
10001490:	9b01      	ldr	r3, [sp, #4]
10001492:	1b12      	subs	r2, r2, r4
10001494:	41ab      	sbcs	r3, r5
10001496:	9200      	str	r2, [sp, #0]
10001498:	9301      	str	r3, [sp, #4]
1000149a:	2b00      	cmp	r3, #0
1000149c:	db0a      	blt.n	100014b4 <alarm_pool_add_alarm_at+0x124>
1000149e:	9b03      	ldr	r3, [sp, #12]
100014a0:	4699      	mov	r9, r3
100014a2:	e785      	b.n	100013b0 <alarm_pool_add_alarm_at+0x20>
100014a4:	f000 f982 	bl	100017ac <time_us_64>
100014a8:	1824      	adds	r4, r4, r0
100014aa:	414d      	adcs	r5, r1
100014ac:	9400      	str	r4, [sp, #0]
100014ae:	9501      	str	r5, [sp, #4]
100014b0:	2d00      	cmp	r5, #0
100014b2:	daf4      	bge.n	1000149e <alarm_pool_add_alarm_at+0x10e>
100014b4:	2301      	movs	r3, #1
100014b6:	4c13      	ldr	r4, [pc, #76]	; (10001504 <alarm_pool_add_alarm_at+0x174>)
100014b8:	425b      	negs	r3, r3
100014ba:	9300      	str	r3, [sp, #0]
100014bc:	9401      	str	r4, [sp, #4]
100014be:	e7ee      	b.n	1000149e <alarm_pool_add_alarm_at+0x10e>
100014c0:	4653      	mov	r3, sl
100014c2:	005b      	lsls	r3, r3, #1
100014c4:	4453      	add	r3, sl
100014c6:	3b03      	subs	r3, #3
100014c8:	18d3      	adds	r3, r2, r3
100014ca:	709c      	strb	r4, [r3, #2]
100014cc:	19d1      	adds	r1, r2, r7
100014ce:	5dd2      	ldrb	r2, [r2, r7]
100014d0:	2a00      	cmp	r2, #0
100014d2:	d000      	beq.n	100014d6 <alarm_pool_add_alarm_at+0x146>
100014d4:	705a      	strb	r2, [r3, #1]
100014d6:	4653      	mov	r3, sl
100014d8:	700b      	strb	r3, [r1, #0]
100014da:	736c      	strb	r4, [r5, #13]
100014dc:	7d30      	ldrb	r0, [r6, #20]
100014de:	9a00      	ldr	r2, [sp, #0]
100014e0:	9b01      	ldr	r3, [sp, #4]
100014e2:	f000 f9ed 	bl	100018c0 <hardware_alarm_set_target>
100014e6:	4681      	mov	r9, r0
100014e8:	2800      	cmp	r0, #0
100014ea:	d0a7      	beq.n	1000143c <alarm_pool_add_alarm_at+0xac>
100014ec:	0021      	movs	r1, r4
100014ee:	6830      	ldr	r0, [r6, #0]
100014f0:	f000 fc0a 	bl	10001d08 <ph_remove_and_free_node>
100014f4:	e7a2      	b.n	1000143c <alarm_pool_add_alarm_at+0xac>
100014f6:	2000      	movs	r0, #0
100014f8:	e7b4      	b.n	10001464 <alarm_pool_add_alarm_at+0xd4>
100014fa:	2001      	movs	r0, #1
100014fc:	4240      	negs	r0, r0
100014fe:	e7b1      	b.n	10001464 <alarm_pool_add_alarm_at+0xd4>
10001500:	0fffffff 	.word	0x0fffffff
10001504:	7fffffff 	.word	0x7fffffff

10001508 <alarm_pool_core_num>:
10001508:	7d40      	ldrb	r0, [r0, #21]
1000150a:	4770      	bx	lr

1000150c <sleep_until>:
1000150c:	b5f0      	push	{r4, r5, r6, r7, lr}
1000150e:	0004      	movs	r4, r0
10001510:	000d      	movs	r5, r1
10001512:	2606      	movs	r6, #6
10001514:	4276      	negs	r6, r6
10001516:	17f7      	asrs	r7, r6, #31
10001518:	46c6      	mov	lr, r8
1000151a:	1936      	adds	r6, r6, r4
1000151c:	416f      	adcs	r7, r5
1000151e:	b500      	push	{lr}
10001520:	b084      	sub	sp, #16
10001522:	428f      	cmp	r7, r1
10001524:	d814      	bhi.n	10001550 <sleep_until+0x44>
10001526:	d011      	beq.n	1000154c <sleep_until+0x40>
10001528:	f000 f940 	bl	100017ac <time_us_64>
1000152c:	0032      	movs	r2, r6
1000152e:	003b      	movs	r3, r7
10001530:	1a12      	subs	r2, r2, r0
10001532:	418b      	sbcs	r3, r1
10001534:	2b00      	cmp	r3, #0
10001536:	dc15      	bgt.n	10001564 <sleep_until+0x58>
10001538:	2b00      	cmp	r3, #0
1000153a:	d03e      	beq.n	100015ba <sleep_until+0xae>
1000153c:	0020      	movs	r0, r4
1000153e:	0029      	movs	r1, r5
10001540:	f000 f968 	bl	10001814 <busy_wait_until>
10001544:	b004      	add	sp, #16
10001546:	bc80      	pop	{r7}
10001548:	46b8      	mov	r8, r7
1000154a:	bdf0      	pop	{r4, r5, r6, r7, pc}
1000154c:	4286      	cmp	r6, r0
1000154e:	d9eb      	bls.n	10001528 <sleep_until+0x1c>
10001550:	2600      	movs	r6, #0
10001552:	2700      	movs	r7, #0
10001554:	f000 f92a 	bl	100017ac <time_us_64>
10001558:	0032      	movs	r2, r6
1000155a:	003b      	movs	r3, r7
1000155c:	1a12      	subs	r2, r2, r0
1000155e:	418b      	sbcs	r3, r1
10001560:	2b00      	cmp	r3, #0
10001562:	dde9      	ble.n	10001538 <sleep_until+0x2c>
10001564:	2300      	movs	r3, #0
10001566:	9302      	str	r3, [sp, #8]
10001568:	9301      	str	r3, [sp, #4]
1000156a:	4b15      	ldr	r3, [pc, #84]	; (100015c0 <sleep_until+0xb4>)
1000156c:	0032      	movs	r2, r6
1000156e:	9300      	str	r3, [sp, #0]
10001570:	4814      	ldr	r0, [pc, #80]	; (100015c4 <sleep_until+0xb8>)
10001572:	003b      	movs	r3, r7
10001574:	f7ff ff0c 	bl	10001390 <alarm_pool_add_alarm_at>
10001578:	2800      	cmp	r0, #0
1000157a:	dbdf      	blt.n	1000153c <sleep_until+0x30>
1000157c:	2300      	movs	r3, #0
1000157e:	4698      	mov	r8, r3
10001580:	46bc      	mov	ip, r7
10001582:	4a11      	ldr	r2, [pc, #68]	; (100015c8 <sleep_until+0xbc>)
10001584:	4f11      	ldr	r7, [pc, #68]	; (100015cc <sleep_until+0xc0>)
10001586:	6a7b      	ldr	r3, [r7, #36]	; 0x24
10001588:	459c      	cmp	ip, r3
1000158a:	d804      	bhi.n	10001596 <sleep_until+0x8a>
1000158c:	6ab9      	ldr	r1, [r7, #40]	; 0x28
1000158e:	428e      	cmp	r6, r1
10001590:	d9d4      	bls.n	1000153c <sleep_until+0x30>
10001592:	459c      	cmp	ip, r3
10001594:	d1d2      	bne.n	1000153c <sleep_until+0x30>
10001596:	6811      	ldr	r1, [r2, #0]
10001598:	f3ef 8010 	mrs	r0, PRIMASK
1000159c:	b672      	cpsid	i
1000159e:	680b      	ldr	r3, [r1, #0]
100015a0:	2b00      	cmp	r3, #0
100015a2:	d0fc      	beq.n	1000159e <sleep_until+0x92>
100015a4:	f3bf 8f5f 	dmb	sy
100015a8:	6813      	ldr	r3, [r2, #0]
100015aa:	f3bf 8f5f 	dmb	sy
100015ae:	4641      	mov	r1, r8
100015b0:	6019      	str	r1, [r3, #0]
100015b2:	f380 8810 	msr	PRIMASK, r0
100015b6:	bf20      	wfe
100015b8:	e7e5      	b.n	10001586 <sleep_until+0x7a>
100015ba:	2a00      	cmp	r2, #0
100015bc:	d0be      	beq.n	1000153c <sleep_until+0x30>
100015be:	e7d1      	b.n	10001564 <sleep_until+0x58>
100015c0:	10001031 	.word	0x10001031
100015c4:	20000e74 	.word	0x20000e74
100015c8:	20001c80 	.word	0x20001c80
100015cc:	40054000 	.word	0x40054000

100015d0 <sleep_ms>:
100015d0:	b570      	push	{r4, r5, r6, lr}
100015d2:	0006      	movs	r6, r0
100015d4:	f000 f8ea 	bl	100017ac <time_us_64>
100015d8:	22fa      	movs	r2, #250	; 0xfa
100015da:	0004      	movs	r4, r0
100015dc:	000d      	movs	r5, r1
100015de:	2300      	movs	r3, #0
100015e0:	0030      	movs	r0, r6
100015e2:	2100      	movs	r1, #0
100015e4:	0092      	lsls	r2, r2, #2
100015e6:	f003 f8b5 	bl	10004754 <__wrap___aeabi_lmul>
100015ea:	1900      	adds	r0, r0, r4
100015ec:	4169      	adcs	r1, r5
100015ee:	2900      	cmp	r1, #0
100015f0:	db02      	blt.n	100015f8 <sleep_ms+0x28>
100015f2:	f7ff ff8b 	bl	1000150c <sleep_until>
100015f6:	bd70      	pop	{r4, r5, r6, pc}
100015f8:	2001      	movs	r0, #1
100015fa:	4901      	ldr	r1, [pc, #4]	; (10001600 <sleep_ms+0x30>)
100015fc:	4240      	negs	r0, r0
100015fe:	e7f8      	b.n	100015f2 <sleep_ms+0x22>
10001600:	7fffffff 	.word	0x7fffffff

10001604 <best_effort_wfe_or_timeout>:
10001604:	b5f0      	push	{r4, r5, r6, r7, lr}
10001606:	f3ef 8305 	mrs	r3, IPSR
1000160a:	46ce      	mov	lr, r9
1000160c:	4647      	mov	r7, r8
1000160e:	b580      	push	{r7, lr}
10001610:	0005      	movs	r5, r0
10001612:	000c      	movs	r4, r1
10001614:	b085      	sub	sp, #20
10001616:	2b00      	cmp	r3, #0
10001618:	d012      	beq.n	10001640 <best_effort_wfe_or_timeout+0x3c>
1000161a:	4a2c      	ldr	r2, [pc, #176]	; (100016cc <best_effort_wfe_or_timeout+0xc8>)
1000161c:	2000      	movs	r0, #0
1000161e:	6a53      	ldr	r3, [r2, #36]	; 0x24
10001620:	429c      	cmp	r4, r3
10001622:	d803      	bhi.n	1000162c <best_effort_wfe_or_timeout+0x28>
10001624:	6a92      	ldr	r2, [r2, #40]	; 0x28
10001626:	3001      	adds	r0, #1
10001628:	42aa      	cmp	r2, r5
1000162a:	d304      	bcc.n	10001636 <best_effort_wfe_or_timeout+0x32>
1000162c:	b005      	add	sp, #20
1000162e:	bcc0      	pop	{r6, r7}
10001630:	46b9      	mov	r9, r7
10001632:	46b0      	mov	r8, r6
10001634:	bdf0      	pop	{r4, r5, r6, r7, pc}
10001636:	1ae0      	subs	r0, r4, r3
10001638:	1e42      	subs	r2, r0, #1
1000163a:	4190      	sbcs	r0, r2
1000163c:	b2c0      	uxtb	r0, r0
1000163e:	e7f5      	b.n	1000162c <best_effort_wfe_or_timeout+0x28>
10001640:	4e23      	ldr	r6, [pc, #140]	; (100016d0 <best_effort_wfe_or_timeout+0xcc>)
10001642:	9302      	str	r3, [sp, #8]
10001644:	9301      	str	r3, [sp, #4]
10001646:	4b23      	ldr	r3, [pc, #140]	; (100016d4 <best_effort_wfe_or_timeout+0xd0>)
10001648:	0002      	movs	r2, r0
1000164a:	9300      	str	r3, [sp, #0]
1000164c:	0030      	movs	r0, r6
1000164e:	000b      	movs	r3, r1
10001650:	f7ff fe9e 	bl	10001390 <alarm_pool_add_alarm_at>
10001654:	1e03      	subs	r3, r0, #0
10001656:	dde0      	ble.n	1000161a <best_effort_wfe_or_timeout+0x16>
10001658:	bf20      	wfe
1000165a:	6871      	ldr	r1, [r6, #4]
1000165c:	f3ef 8710 	mrs	r7, PRIMASK
10001660:	b672      	cpsid	i
10001662:	680a      	ldr	r2, [r1, #0]
10001664:	2a00      	cmp	r2, #0
10001666:	d0fc      	beq.n	10001662 <best_effort_wfe_or_timeout+0x5e>
10001668:	f3bf 8f5f 	dmb	sy
1000166c:	b2da      	uxtb	r2, r3
1000166e:	4694      	mov	ip, r2
10001670:	6830      	ldr	r0, [r6, #0]
10001672:	7b42      	ldrb	r2, [r0, #13]
10001674:	4562      	cmp	r2, ip
10001676:	d01d      	beq.n	100016b4 <best_effort_wfe_or_timeout+0xb0>
10001678:	22ff      	movs	r2, #255	; 0xff
1000167a:	401a      	ands	r2, r3
1000167c:	0051      	lsls	r1, r2, #1
1000167e:	4689      	mov	r9, r1
10001680:	6801      	ldr	r1, [r0, #0]
10001682:	4491      	add	r9, r2
10001684:	4688      	mov	r8, r1
10001686:	4649      	mov	r1, r9
10001688:	4441      	add	r1, r8
1000168a:	3903      	subs	r1, #3
1000168c:	7889      	ldrb	r1, [r1, #2]
1000168e:	2900      	cmp	r1, #0
10001690:	d013      	beq.n	100016ba <best_effort_wfe_or_timeout+0xb6>
10001692:	68f1      	ldr	r1, [r6, #12]
10001694:	0a1b      	lsrs	r3, r3, #8
10001696:	4688      	mov	r8, r1
10001698:	4442      	add	r2, r8
1000169a:	3a01      	subs	r2, #1
1000169c:	7812      	ldrb	r2, [r2, #0]
1000169e:	b2db      	uxtb	r3, r3
100016a0:	429a      	cmp	r2, r3
100016a2:	d00f      	beq.n	100016c4 <best_effort_wfe_or_timeout+0xc0>
100016a4:	6873      	ldr	r3, [r6, #4]
100016a6:	f3bf 8f5f 	dmb	sy
100016aa:	2200      	movs	r2, #0
100016ac:	601a      	str	r2, [r3, #0]
100016ae:	f387 8810 	msr	PRIMASK, r7
100016b2:	e7b2      	b.n	1000161a <best_effort_wfe_or_timeout+0x16>
100016b4:	22ff      	movs	r2, #255	; 0xff
100016b6:	401a      	ands	r2, r3
100016b8:	e7eb      	b.n	10001692 <best_effort_wfe_or_timeout+0x8e>
100016ba:	6932      	ldr	r2, [r6, #16]
100016bc:	4293      	cmp	r3, r2
100016be:	d1f1      	bne.n	100016a4 <best_effort_wfe_or_timeout+0xa0>
100016c0:	6131      	str	r1, [r6, #16]
100016c2:	e7ef      	b.n	100016a4 <best_effort_wfe_or_timeout+0xa0>
100016c4:	4661      	mov	r1, ip
100016c6:	f000 fb1f 	bl	10001d08 <ph_remove_and_free_node>
100016ca:	e7eb      	b.n	100016a4 <best_effort_wfe_or_timeout+0xa0>
100016cc:	40054000 	.word	0x40054000
100016d0:	20000e74 	.word	0x20000e74
100016d4:	10001031 	.word	0x10001031

100016d8 <hardware_alarm_irq_handler>:
100016d8:	b5f0      	push	{r4, r5, r6, r7, lr}
100016da:	f3ef 8205 	mrs	r2, IPSR
100016de:	46d6      	mov	lr, sl
100016e0:	464f      	mov	r7, r9
100016e2:	4646      	mov	r6, r8
100016e4:	0010      	movs	r0, r2
100016e6:	b5c0      	push	{r6, r7, lr}
100016e8:	3810      	subs	r0, #16
100016ea:	f3ef 8810 	mrs	r8, PRIMASK
100016ee:	b672      	cpsid	i
100016f0:	4c21      	ldr	r4, [pc, #132]	; (10001778 <hardware_alarm_irq_handler+0xa0>)
100016f2:	6823      	ldr	r3, [r4, #0]
100016f4:	2b00      	cmp	r3, #0
100016f6:	d0fc      	beq.n	100016f2 <hardware_alarm_irq_handler+0x1a>
100016f8:	f3bf 8f5f 	dmb	sy
100016fc:	2301      	movs	r3, #1
100016fe:	0019      	movs	r1, r3
10001700:	4081      	lsls	r1, r0
10001702:	4d1e      	ldr	r5, [pc, #120]	; (1000177c <hardware_alarm_irq_handler+0xa4>)
10001704:	001f      	movs	r7, r3
10001706:	6369      	str	r1, [r5, #52]	; 0x34
10001708:	46aa      	mov	sl, r5
1000170a:	4d1d      	ldr	r5, [pc, #116]	; (10001780 <hardware_alarm_irq_handler+0xa8>)
1000170c:	6029      	str	r1, [r5, #0]
1000170e:	4d1d      	ldr	r5, [pc, #116]	; (10001784 <hardware_alarm_irq_handler+0xac>)
10001710:	782e      	ldrb	r6, [r5, #0]
10001712:	46ac      	mov	ip, r5
10001714:	0035      	movs	r5, r6
10001716:	40c5      	lsrs	r5, r0
10001718:	402f      	ands	r7, r5
1000171a:	422b      	tst	r3, r5
1000171c:	d109      	bne.n	10001732 <hardware_alarm_irq_handler+0x5a>
1000171e:	f3bf 8f5f 	dmb	sy
10001722:	6027      	str	r7, [r4, #0]
10001724:	f388 8810 	msr	PRIMASK, r8
10001728:	bce0      	pop	{r5, r6, r7}
1000172a:	46ba      	mov	sl, r7
1000172c:	46b1      	mov	r9, r6
1000172e:	46a8      	mov	r8, r5
10001730:	bdf0      	pop	{r4, r5, r6, r7, pc}
10001732:	4653      	mov	r3, sl
10001734:	4d14      	ldr	r5, [pc, #80]	; (10001788 <hardware_alarm_irq_handler+0xb0>)
10001736:	6a5f      	ldr	r7, [r3, #36]	; 0x24
10001738:	0083      	lsls	r3, r0, #2
1000173a:	595d      	ldr	r5, [r3, r5]
1000173c:	42af      	cmp	r7, r5
1000173e:	d30e      	bcc.n	1000175e <hardware_alarm_irq_handler+0x86>
10001740:	4a12      	ldr	r2, [pc, #72]	; (1000178c <hardware_alarm_irq_handler+0xb4>)
10001742:	438e      	bics	r6, r1
10001744:	589b      	ldr	r3, [r3, r2]
10001746:	4662      	mov	r2, ip
10001748:	7016      	strb	r6, [r2, #0]
1000174a:	f3bf 8f5f 	dmb	sy
1000174e:	2200      	movs	r2, #0
10001750:	6022      	str	r2, [r4, #0]
10001752:	f388 8810 	msr	PRIMASK, r8
10001756:	2b00      	cmp	r3, #0
10001758:	d0e6      	beq.n	10001728 <hardware_alarm_irq_handler+0x50>
1000175a:	4798      	blx	r3
1000175c:	e7e4      	b.n	10001728 <hardware_alarm_irq_handler+0x50>
1000175e:	4b0c      	ldr	r3, [pc, #48]	; (10001790 <hardware_alarm_irq_handler+0xb8>)
10001760:	0092      	lsls	r2, r2, #2
10001762:	469c      	mov	ip, r3
10001764:	4462      	add	r2, ip
10001766:	6813      	ldr	r3, [r2, #0]
10001768:	6013      	str	r3, [r2, #0]
1000176a:	f3bf 8f5f 	dmb	sy
1000176e:	2300      	movs	r3, #0
10001770:	6023      	str	r3, [r4, #0]
10001772:	f388 8810 	msr	PRIMASK, r8
10001776:	e7d7      	b.n	10001728 <hardware_alarm_irq_handler+0x50>
10001778:	d0000128 	.word	0xd0000128
1000177c:	40054000 	.word	0x40054000
10001780:	4005703c 	.word	0x4005703c
10001784:	20001cbc 	.word	0x20001cbc
10001788:	20001c8c 	.word	0x20001c8c
1000178c:	20001688 	.word	0x20001688
10001790:	40053fd0 	.word	0x40053fd0

10001794 <hardware_alarm_claim>:
10001794:	b510      	push	{r4, lr}
10001796:	0001      	movs	r1, r0
10001798:	4a02      	ldr	r2, [pc, #8]	; (100017a4 <hardware_alarm_claim+0x10>)
1000179a:	4803      	ldr	r0, [pc, #12]	; (100017a8 <hardware_alarm_claim+0x14>)
1000179c:	f7ff f8a8 	bl	100008f0 <hw_claim_or_assert>
100017a0:	bd10      	pop	{r4, pc}
100017a2:	46c0      	nop			; (mov r8, r8)
100017a4:	100071e0 	.word	0x100071e0
100017a8:	20001cb7 	.word	0x20001cb7

100017ac <time_us_64>:
100017ac:	4b03      	ldr	r3, [pc, #12]	; (100017bc <time_us_64+0x10>)
100017ae:	6a59      	ldr	r1, [r3, #36]	; 0x24
100017b0:	000a      	movs	r2, r1
100017b2:	6a98      	ldr	r0, [r3, #40]	; 0x28
100017b4:	6a59      	ldr	r1, [r3, #36]	; 0x24
100017b6:	428a      	cmp	r2, r1
100017b8:	d1fa      	bne.n	100017b0 <time_us_64+0x4>
100017ba:	4770      	bx	lr
100017bc:	40054000 	.word	0x40054000

100017c0 <busy_wait_us>:
100017c0:	b570      	push	{r4, r5, r6, lr}
100017c2:	0004      	movs	r4, r0
100017c4:	000d      	movs	r5, r1
100017c6:	4a12      	ldr	r2, [pc, #72]	; (10001810 <busy_wait_us+0x50>)
100017c8:	6a53      	ldr	r3, [r2, #36]	; 0x24
100017ca:	0019      	movs	r1, r3
100017cc:	6a96      	ldr	r6, [r2, #40]	; 0x28
100017ce:	6a53      	ldr	r3, [r2, #36]	; 0x24
100017d0:	428b      	cmp	r3, r1
100017d2:	d1fa      	bne.n	100017ca <busy_wait_us+0xa>
100017d4:	0030      	movs	r0, r6
100017d6:	0019      	movs	r1, r3
100017d8:	1824      	adds	r4, r4, r0
100017da:	414d      	adcs	r5, r1
100017dc:	42ab      	cmp	r3, r5
100017de:	d811      	bhi.n	10001804 <busy_wait_us+0x44>
100017e0:	d00e      	beq.n	10001800 <busy_wait_us+0x40>
100017e2:	002b      	movs	r3, r5
100017e4:	490a      	ldr	r1, [pc, #40]	; (10001810 <busy_wait_us+0x50>)
100017e6:	6a4a      	ldr	r2, [r1, #36]	; 0x24
100017e8:	429a      	cmp	r2, r3
100017ea:	d3fc      	bcc.n	100017e6 <busy_wait_us+0x26>
100017ec:	d107      	bne.n	100017fe <busy_wait_us+0x3e>
100017ee:	4a08      	ldr	r2, [pc, #32]	; (10001810 <busy_wait_us+0x50>)
100017f0:	e002      	b.n	100017f8 <busy_wait_us+0x38>
100017f2:	6a51      	ldr	r1, [r2, #36]	; 0x24
100017f4:	4299      	cmp	r1, r3
100017f6:	d102      	bne.n	100017fe <busy_wait_us+0x3e>
100017f8:	6a91      	ldr	r1, [r2, #40]	; 0x28
100017fa:	42a1      	cmp	r1, r4
100017fc:	d3f9      	bcc.n	100017f2 <busy_wait_us+0x32>
100017fe:	bd70      	pop	{r4, r5, r6, pc}
10001800:	42a6      	cmp	r6, r4
10001802:	d9ee      	bls.n	100017e2 <busy_wait_us+0x22>
10001804:	2301      	movs	r3, #1
10001806:	2401      	movs	r4, #1
10001808:	4264      	negs	r4, r4
1000180a:	17e5      	asrs	r5, r4, #31
1000180c:	425b      	negs	r3, r3
1000180e:	e7e9      	b.n	100017e4 <busy_wait_us+0x24>
10001810:	40054000 	.word	0x40054000

10001814 <busy_wait_until>:
10001814:	4a06      	ldr	r2, [pc, #24]	; (10001830 <busy_wait_until+0x1c>)
10001816:	6a53      	ldr	r3, [r2, #36]	; 0x24
10001818:	4299      	cmp	r1, r3
1000181a:	d8fc      	bhi.n	10001816 <busy_wait_until+0x2>
1000181c:	d107      	bne.n	1000182e <busy_wait_until+0x1a>
1000181e:	4b04      	ldr	r3, [pc, #16]	; (10001830 <busy_wait_until+0x1c>)
10001820:	e002      	b.n	10001828 <busy_wait_until+0x14>
10001822:	6a5a      	ldr	r2, [r3, #36]	; 0x24
10001824:	4291      	cmp	r1, r2
10001826:	d102      	bne.n	1000182e <busy_wait_until+0x1a>
10001828:	6a9a      	ldr	r2, [r3, #40]	; 0x28
1000182a:	4282      	cmp	r2, r0
1000182c:	d3f9      	bcc.n	10001822 <busy_wait_until+0xe>
1000182e:	4770      	bx	lr
10001830:	40054000 	.word	0x40054000

10001834 <hardware_alarm_set_callback>:
10001834:	b570      	push	{r4, r5, r6, lr}
10001836:	0004      	movs	r4, r0
10001838:	000d      	movs	r5, r1
1000183a:	f3ef 8610 	mrs	r6, PRIMASK
1000183e:	b672      	cpsid	i
10001840:	4a1a      	ldr	r2, [pc, #104]	; (100018ac <hardware_alarm_set_callback+0x78>)
10001842:	6813      	ldr	r3, [r2, #0]
10001844:	2b00      	cmp	r3, #0
10001846:	d0fc      	beq.n	10001842 <hardware_alarm_set_callback+0xe>
10001848:	f3bf 8f5f 	dmb	sy
1000184c:	2d00      	cmp	r5, #0
1000184e:	d01b      	beq.n	10001888 <hardware_alarm_set_callback+0x54>
10001850:	0020      	movs	r0, r4
10001852:	f7ff f917 	bl	10000a84 <irq_get_vtable_handler>
10001856:	4916      	ldr	r1, [pc, #88]	; (100018b0 <hardware_alarm_set_callback+0x7c>)
10001858:	4281      	cmp	r1, r0
1000185a:	d00a      	beq.n	10001872 <hardware_alarm_set_callback+0x3e>
1000185c:	0020      	movs	r0, r4
1000185e:	f7ff f919 	bl	10000a94 <irq_set_exclusive_handler>
10001862:	2101      	movs	r1, #1
10001864:	0020      	movs	r0, r4
10001866:	f7ff f8dd 	bl	10000a24 <irq_set_enabled>
1000186a:	2301      	movs	r3, #1
1000186c:	40a3      	lsls	r3, r4
1000186e:	4a11      	ldr	r2, [pc, #68]	; (100018b4 <hardware_alarm_set_callback+0x80>)
10001870:	6013      	str	r3, [r2, #0]
10001872:	4b11      	ldr	r3, [pc, #68]	; (100018b8 <hardware_alarm_set_callback+0x84>)
10001874:	00a4      	lsls	r4, r4, #2
10001876:	50e5      	str	r5, [r4, r3]
10001878:	f3bf 8f5f 	dmb	sy
1000187c:	2200      	movs	r2, #0
1000187e:	4b0b      	ldr	r3, [pc, #44]	; (100018ac <hardware_alarm_set_callback+0x78>)
10001880:	601a      	str	r2, [r3, #0]
10001882:	f386 8810 	msr	PRIMASK, r6
10001886:	bd70      	pop	{r4, r5, r6, pc}
10001888:	4b0b      	ldr	r3, [pc, #44]	; (100018b8 <hardware_alarm_set_callback+0x84>)
1000188a:	00a2      	lsls	r2, r4, #2
1000188c:	50d5      	str	r5, [r2, r3]
1000188e:	2201      	movs	r2, #1
10001890:	40a2      	lsls	r2, r4
10001892:	490a      	ldr	r1, [pc, #40]	; (100018bc <hardware_alarm_set_callback+0x88>)
10001894:	0020      	movs	r0, r4
10001896:	780b      	ldrb	r3, [r1, #0]
10001898:	4393      	bics	r3, r2
1000189a:	700b      	strb	r3, [r1, #0]
1000189c:	4904      	ldr	r1, [pc, #16]	; (100018b0 <hardware_alarm_set_callback+0x7c>)
1000189e:	f7ff fa17 	bl	10000cd0 <irq_remove_handler>
100018a2:	2100      	movs	r1, #0
100018a4:	0020      	movs	r0, r4
100018a6:	f7ff f8bd 	bl	10000a24 <irq_set_enabled>
100018aa:	e7e5      	b.n	10001878 <hardware_alarm_set_callback+0x44>
100018ac:	d0000128 	.word	0xd0000128
100018b0:	100016d9 	.word	0x100016d9
100018b4:	40056038 	.word	0x40056038
100018b8:	20001688 	.word	0x20001688
100018bc:	20001cbc 	.word	0x20001cbc

100018c0 <hardware_alarm_set_target>:
100018c0:	b5f0      	push	{r4, r5, r6, r7, lr}
100018c2:	464f      	mov	r7, r9
100018c4:	46d6      	mov	lr, sl
100018c6:	4646      	mov	r6, r8
100018c8:	b5c0      	push	{r6, r7, lr}
100018ca:	0007      	movs	r7, r0
100018cc:	4c2c      	ldr	r4, [pc, #176]	; (10001980 <hardware_alarm_set_target+0xc0>)
100018ce:	6a61      	ldr	r1, [r4, #36]	; 0x24
100018d0:	000d      	movs	r5, r1
100018d2:	6aa6      	ldr	r6, [r4, #40]	; 0x28
100018d4:	6a61      	ldr	r1, [r4, #36]	; 0x24
100018d6:	42a9      	cmp	r1, r5
100018d8:	d1fa      	bne.n	100018d0 <hardware_alarm_set_target+0x10>
100018da:	428b      	cmp	r3, r1
100018dc:	d808      	bhi.n	100018f0 <hardware_alarm_set_target+0x30>
100018de:	d005      	beq.n	100018ec <hardware_alarm_set_target+0x2c>
100018e0:	2001      	movs	r0, #1
100018e2:	bce0      	pop	{r5, r6, r7}
100018e4:	46ba      	mov	sl, r7
100018e6:	46b1      	mov	r9, r6
100018e8:	46a8      	mov	r8, r5
100018ea:	bdf0      	pop	{r4, r5, r6, r7, pc}
100018ec:	42b2      	cmp	r2, r6
100018ee:	d9f7      	bls.n	100018e0 <hardware_alarm_set_target+0x20>
100018f0:	f3ef 8a10 	mrs	sl, PRIMASK
100018f4:	b672      	cpsid	i
100018f6:	4823      	ldr	r0, [pc, #140]	; (10001984 <hardware_alarm_set_target+0xc4>)
100018f8:	6801      	ldr	r1, [r0, #0]
100018fa:	2900      	cmp	r1, #0
100018fc:	d0fc      	beq.n	100018f8 <hardware_alarm_set_target+0x38>
100018fe:	f3bf 8f5f 	dmb	sy
10001902:	2501      	movs	r5, #1
10001904:	40bd      	lsls	r5, r7
10001906:	4920      	ldr	r1, [pc, #128]	; (10001988 <hardware_alarm_set_target+0xc8>)
10001908:	4c1d      	ldr	r4, [pc, #116]	; (10001980 <hardware_alarm_set_target+0xc0>)
1000190a:	4688      	mov	r8, r1
1000190c:	7809      	ldrb	r1, [r1, #0]
1000190e:	4689      	mov	r9, r1
10001910:	4329      	orrs	r1, r5
10001912:	b2c9      	uxtb	r1, r1
10001914:	468c      	mov	ip, r1
10001916:	4641      	mov	r1, r8
10001918:	4660      	mov	r0, ip
1000191a:	7008      	strb	r0, [r1, #0]
1000191c:	1d39      	adds	r1, r7, #4
1000191e:	481b      	ldr	r0, [pc, #108]	; (1000198c <hardware_alarm_set_target+0xcc>)
10001920:	0089      	lsls	r1, r1, #2
10001922:	6365      	str	r5, [r4, #52]	; 0x34
10001924:	510a      	str	r2, [r1, r4]
10001926:	00b9      	lsls	r1, r7, #2
10001928:	500b      	str	r3, [r1, r0]
1000192a:	6a21      	ldr	r1, [r4, #32]
1000192c:	2000      	movs	r0, #0
1000192e:	4229      	tst	r1, r5
10001930:	d019      	beq.n	10001966 <hardware_alarm_set_target+0xa6>
10001932:	6a61      	ldr	r1, [r4, #36]	; 0x24
10001934:	0008      	movs	r0, r1
10001936:	6aa6      	ldr	r6, [r4, #40]	; 0x28
10001938:	6a61      	ldr	r1, [r4, #36]	; 0x24
1000193a:	4281      	cmp	r1, r0
1000193c:	d1fa      	bne.n	10001934 <hardware_alarm_set_target+0x74>
1000193e:	428b      	cmp	r3, r1
10001940:	d819      	bhi.n	10001976 <hardware_alarm_set_target+0xb6>
10001942:	d101      	bne.n	10001948 <hardware_alarm_set_target+0x88>
10001944:	42b2      	cmp	r2, r6
10001946:	d816      	bhi.n	10001976 <hardware_alarm_set_target+0xb6>
10001948:	45cc      	cmp	ip, r9
1000194a:	d016      	beq.n	1000197a <hardware_alarm_set_target+0xba>
1000194c:	4b0c      	ldr	r3, [pc, #48]	; (10001980 <hardware_alarm_set_target+0xc0>)
1000194e:	201f      	movs	r0, #31
10001950:	621d      	str	r5, [r3, #32]
10001952:	635d      	str	r5, [r3, #52]	; 0x34
10001954:	2301      	movs	r3, #1
10001956:	4007      	ands	r7, r0
10001958:	40bb      	lsls	r3, r7
1000195a:	4a0d      	ldr	r2, [pc, #52]	; (10001990 <hardware_alarm_set_target+0xd0>)
1000195c:	381e      	subs	r0, #30
1000195e:	6013      	str	r3, [r2, #0]
10001960:	4643      	mov	r3, r8
10001962:	464a      	mov	r2, r9
10001964:	701a      	strb	r2, [r3, #0]
10001966:	f3bf 8f5f 	dmb	sy
1000196a:	2200      	movs	r2, #0
1000196c:	4b05      	ldr	r3, [pc, #20]	; (10001984 <hardware_alarm_set_target+0xc4>)
1000196e:	601a      	str	r2, [r3, #0]
10001970:	f38a 8810 	msr	PRIMASK, sl
10001974:	e7b5      	b.n	100018e2 <hardware_alarm_set_target+0x22>
10001976:	2000      	movs	r0, #0
10001978:	e7f5      	b.n	10001966 <hardware_alarm_set_target+0xa6>
1000197a:	2001      	movs	r0, #1
1000197c:	e7f3      	b.n	10001966 <hardware_alarm_set_target+0xa6>
1000197e:	46c0      	nop			; (mov r8, r8)
10001980:	40054000 	.word	0x40054000
10001984:	d0000128 	.word	0xd0000128
10001988:	20001cbc 	.word	0x20001cbc
1000198c:	20001c8c 	.word	0x20001c8c
10001990:	e000e280 	.word	0xe000e280

10001994 <hardware_alarm_cancel>:
10001994:	f3ef 8c10 	mrs	ip, PRIMASK
10001998:	b672      	cpsid	i
1000199a:	490a      	ldr	r1, [pc, #40]	; (100019c4 <hardware_alarm_cancel+0x30>)
1000199c:	680b      	ldr	r3, [r1, #0]
1000199e:	2b00      	cmp	r3, #0
100019a0:	d0fc      	beq.n	1000199c <hardware_alarm_cancel+0x8>
100019a2:	f3bf 8f5f 	dmb	sy
100019a6:	2301      	movs	r3, #1
100019a8:	4083      	lsls	r3, r0
100019aa:	4a07      	ldr	r2, [pc, #28]	; (100019c8 <hardware_alarm_cancel+0x34>)
100019ac:	4807      	ldr	r0, [pc, #28]	; (100019cc <hardware_alarm_cancel+0x38>)
100019ae:	6213      	str	r3, [r2, #32]
100019b0:	7802      	ldrb	r2, [r0, #0]
100019b2:	439a      	bics	r2, r3
100019b4:	7002      	strb	r2, [r0, #0]
100019b6:	f3bf 8f5f 	dmb	sy
100019ba:	2300      	movs	r3, #0
100019bc:	600b      	str	r3, [r1, #0]
100019be:	f38c 8810 	msr	PRIMASK, ip
100019c2:	4770      	bx	lr
100019c4:	d0000128 	.word	0xd0000128
100019c8:	40054000 	.word	0x40054000
100019cc:	20001cbc 	.word	0x20001cbc

100019d0 <ph_merge_nodes>:
100019d0:	b570      	push	{r4, r5, r6, lr}
100019d2:	0005      	movs	r5, r0
100019d4:	0014      	movs	r4, r2
100019d6:	0016      	movs	r6, r2
100019d8:	2900      	cmp	r1, #0
100019da:	d015      	beq.n	10001a08 <ph_merge_nodes+0x38>
100019dc:	000c      	movs	r4, r1
100019de:	2a00      	cmp	r2, #0
100019e0:	d012      	beq.n	10001a08 <ph_merge_nodes+0x38>
100019e2:	6880      	ldr	r0, [r0, #8]
100019e4:	686b      	ldr	r3, [r5, #4]
100019e6:	4798      	blx	r3
100019e8:	6829      	ldr	r1, [r5, #0]
100019ea:	2800      	cmp	r0, #0
100019ec:	d00e      	beq.n	10001a0c <ph_merge_nodes+0x3c>
100019ee:	0073      	lsls	r3, r6, #1
100019f0:	199b      	adds	r3, r3, r6
100019f2:	0062      	lsls	r2, r4, #1
100019f4:	3b03      	subs	r3, #3
100019f6:	1912      	adds	r2, r2, r4
100019f8:	18cb      	adds	r3, r1, r3
100019fa:	3a03      	subs	r2, #3
100019fc:	709c      	strb	r4, [r3, #2]
100019fe:	1888      	adds	r0, r1, r2
10001a00:	5c8a      	ldrb	r2, [r1, r2]
10001a02:	2a00      	cmp	r2, #0
10001a04:	d115      	bne.n	10001a32 <ph_merge_nodes+0x62>
10001a06:	7006      	strb	r6, [r0, #0]
10001a08:	0020      	movs	r0, r4
10001a0a:	bd70      	pop	{r4, r5, r6, pc}
10001a0c:	0063      	lsls	r3, r4, #1
10001a0e:	191b      	adds	r3, r3, r4
10001a10:	0072      	lsls	r2, r6, #1
10001a12:	3b03      	subs	r3, #3
10001a14:	1992      	adds	r2, r2, r6
10001a16:	18cb      	adds	r3, r1, r3
10001a18:	3a03      	subs	r2, #3
10001a1a:	709e      	strb	r6, [r3, #2]
10001a1c:	1888      	adds	r0, r1, r2
10001a1e:	5c8a      	ldrb	r2, [r1, r2]
10001a20:	2a00      	cmp	r2, #0
10001a22:	d102      	bne.n	10001a2a <ph_merge_nodes+0x5a>
10001a24:	7004      	strb	r4, [r0, #0]
10001a26:	0034      	movs	r4, r6
10001a28:	e7ee      	b.n	10001a08 <ph_merge_nodes+0x38>
10001a2a:	705a      	strb	r2, [r3, #1]
10001a2c:	7004      	strb	r4, [r0, #0]
10001a2e:	0034      	movs	r4, r6
10001a30:	e7ea      	b.n	10001a08 <ph_merge_nodes+0x38>
10001a32:	705a      	strb	r2, [r3, #1]
10001a34:	7006      	strb	r6, [r0, #0]
10001a36:	e7e7      	b.n	10001a08 <ph_merge_nodes+0x38>

10001a38 <ph_post_alloc_init>:
10001a38:	b530      	push	{r4, r5, lr}
10001a3a:	6083      	str	r3, [r0, #8]
10001a3c:	2300      	movs	r3, #0
10001a3e:	b2cc      	uxtb	r4, r1
10001a40:	7343      	strb	r3, [r0, #13]
10001a42:	3301      	adds	r3, #1
10001a44:	7304      	strb	r4, [r0, #12]
10001a46:	6042      	str	r2, [r0, #4]
10001a48:	7383      	strb	r3, [r0, #14]
10001a4a:	73c4      	strb	r4, [r0, #15]
10001a4c:	000d      	movs	r5, r1
10001a4e:	6800      	ldr	r0, [r0, #0]
10001a50:	2c01      	cmp	r4, #1
10001a52:	d906      	bls.n	10001a62 <ph_post_alloc_init+0x2a>
10001a54:	1c42      	adds	r2, r0, #1
10001a56:	3301      	adds	r3, #1
10001a58:	b2db      	uxtb	r3, r3
10001a5a:	7013      	strb	r3, [r2, #0]
10001a5c:	3203      	adds	r2, #3
10001a5e:	429c      	cmp	r4, r3
10001a60:	d1f9      	bne.n	10001a56 <ph_post_alloc_init+0x1e>
10001a62:	21ff      	movs	r1, #255	; 0xff
10001a64:	4029      	ands	r1, r5
10001a66:	004b      	lsls	r3, r1, #1
10001a68:	1859      	adds	r1, r3, r1
10001a6a:	2300      	movs	r3, #0
10001a6c:	1840      	adds	r0, r0, r1
10001a6e:	3803      	subs	r0, #3
10001a70:	7043      	strb	r3, [r0, #1]
10001a72:	bd30      	pop	{r4, r5, pc}

10001a74 <ph_merge_two_pass>:
10001a74:	b5f8      	push	{r3, r4, r5, r6, r7, lr}
10001a76:	46ce      	mov	lr, r9
10001a78:	4647      	mov	r7, r8
10001a7a:	0006      	movs	r6, r0
10001a7c:	000c      	movs	r4, r1
10001a7e:	b580      	push	{r7, lr}
10001a80:	2900      	cmp	r1, #0
10001a82:	d007      	beq.n	10001a94 <ph_merge_two_pass+0x20>
10001a84:	004d      	lsls	r5, r1, #1
10001a86:	6803      	ldr	r3, [r0, #0]
10001a88:	186d      	adds	r5, r5, r1
10001a8a:	3d03      	subs	r5, #3
10001a8c:	195a      	adds	r2, r3, r5
10001a8e:	7857      	ldrb	r7, [r2, #1]
10001a90:	2f00      	cmp	r7, #0
10001a92:	d104      	bne.n	10001a9e <ph_merge_two_pass+0x2a>
10001a94:	0020      	movs	r0, r4
10001a96:	bcc0      	pop	{r6, r7}
10001a98:	46b9      	mov	r9, r7
10001a9a:	46b0      	mov	r8, r6
10001a9c:	bdf8      	pop	{r3, r4, r5, r6, r7, pc}
10001a9e:	0079      	lsls	r1, r7, #1
10001aa0:	19c9      	adds	r1, r1, r7
10001aa2:	3903      	subs	r1, #3
10001aa4:	4688      	mov	r8, r1
10001aa6:	4443      	add	r3, r8
10001aa8:	7859      	ldrb	r1, [r3, #1]
10001aaa:	4689      	mov	r9, r1
10001aac:	2100      	movs	r1, #0
10001aae:	7059      	strb	r1, [r3, #1]
10001ab0:	7051      	strb	r1, [r2, #1]
10001ab2:	6873      	ldr	r3, [r6, #4]
10001ab4:	003a      	movs	r2, r7
10001ab6:	0021      	movs	r1, r4
10001ab8:	6880      	ldr	r0, [r0, #8]
10001aba:	4798      	blx	r3
10001abc:	6833      	ldr	r3, [r6, #0]
10001abe:	2800      	cmp	r0, #0
10001ac0:	d014      	beq.n	10001aec <ph_merge_two_pass+0x78>
10001ac2:	4642      	mov	r2, r8
10001ac4:	189a      	adds	r2, r3, r2
10001ac6:	7094      	strb	r4, [r2, #2]
10001ac8:	1959      	adds	r1, r3, r5
10001aca:	5d5b      	ldrb	r3, [r3, r5]
10001acc:	2b00      	cmp	r3, #0
10001ace:	d000      	beq.n	10001ad2 <ph_merge_two_pass+0x5e>
10001ad0:	7053      	strb	r3, [r2, #1]
10001ad2:	700f      	strb	r7, [r1, #0]
10001ad4:	0027      	movs	r7, r4
10001ad6:	4649      	mov	r1, r9
10001ad8:	0030      	movs	r0, r6
10001ada:	f7ff ffcb 	bl	10001a74 <ph_merge_two_pass>
10001ade:	0039      	movs	r1, r7
10001ae0:	0002      	movs	r2, r0
10001ae2:	0030      	movs	r0, r6
10001ae4:	f7ff ff74 	bl	100019d0 <ph_merge_nodes>
10001ae8:	0004      	movs	r4, r0
10001aea:	e7d3      	b.n	10001a94 <ph_merge_two_pass+0x20>
10001aec:	4642      	mov	r2, r8
10001aee:	4641      	mov	r1, r8
10001af0:	195d      	adds	r5, r3, r5
10001af2:	70af      	strb	r7, [r5, #2]
10001af4:	189a      	adds	r2, r3, r2
10001af6:	5c5b      	ldrb	r3, [r3, r1]
10001af8:	2b00      	cmp	r3, #0
10001afa:	d000      	beq.n	10001afe <ph_merge_two_pass+0x8a>
10001afc:	706b      	strb	r3, [r5, #1]
10001afe:	7014      	strb	r4, [r2, #0]
10001b00:	e7e9      	b.n	10001ad6 <ph_merge_two_pass+0x62>
10001b02:	46c0      	nop			; (mov r8, r8)

10001b04 <ph_remove_any_head>:
10001b04:	b5f0      	push	{r4, r5, r6, r7, lr}
10001b06:	4657      	mov	r7, sl
10001b08:	4645      	mov	r5, r8
10001b0a:	46de      	mov	lr, fp
10001b0c:	464e      	mov	r6, r9
10001b0e:	b5e0      	push	{r5, r6, r7, lr}
10001b10:	000d      	movs	r5, r1
10001b12:	006b      	lsls	r3, r5, #1
10001b14:	6801      	ldr	r1, [r0, #0]
10001b16:	195b      	adds	r3, r3, r5
10001b18:	1edf      	subs	r7, r3, #3
10001b1a:	0004      	movs	r4, r0
10001b1c:	5dc8      	ldrb	r0, [r1, r7]
10001b1e:	b083      	sub	sp, #12
10001b20:	9201      	str	r2, [sp, #4]
10001b22:	19ca      	adds	r2, r1, r7
10001b24:	2800      	cmp	r0, #0
10001b26:	d050      	beq.n	10001bca <ph_remove_any_head+0xc6>
10001b28:	0043      	lsls	r3, r0, #1
10001b2a:	181b      	adds	r3, r3, r0
10001b2c:	3b03      	subs	r3, #3
10001b2e:	18cb      	adds	r3, r1, r3
10001b30:	785e      	ldrb	r6, [r3, #1]
10001b32:	46b4      	mov	ip, r6
10001b34:	2e00      	cmp	r6, #0
10001b36:	d11a      	bne.n	10001b6e <ph_remove_any_head+0x6a>
10001b38:	9e01      	ldr	r6, [sp, #4]
10001b3a:	2e00      	cmp	r6, #0
10001b3c:	d042      	beq.n	10001bc4 <ph_remove_any_head+0xc0>
10001b3e:	7be6      	ldrb	r6, [r4, #15]
10001b40:	2e00      	cmp	r6, #0
10001b42:	d004      	beq.n	10001b4e <ph_remove_any_head+0x4a>
10001b44:	0073      	lsls	r3, r6, #1
10001b46:	199b      	adds	r3, r3, r6
10001b48:	18cb      	adds	r3, r1, r3
10001b4a:	3b03      	subs	r3, #3
10001b4c:	705d      	strb	r5, [r3, #1]
10001b4e:	7ba3      	ldrb	r3, [r4, #14]
10001b50:	2b00      	cmp	r3, #0
10001b52:	d100      	bne.n	10001b56 <ph_remove_any_head+0x52>
10001b54:	73a5      	strb	r5, [r4, #14]
10001b56:	73e5      	strb	r5, [r4, #15]
10001b58:	2800      	cmp	r0, #0
10001b5a:	d12f      	bne.n	10001bbc <ph_remove_any_head+0xb8>
10001b5c:	2300      	movs	r3, #0
10001b5e:	7053      	strb	r3, [r2, #1]
10001b60:	b003      	add	sp, #12
10001b62:	bcf0      	pop	{r4, r5, r6, r7}
10001b64:	46bb      	mov	fp, r7
10001b66:	46b2      	mov	sl, r6
10001b68:	46a9      	mov	r9, r5
10001b6a:	46a0      	mov	r8, r4
10001b6c:	bdf0      	pop	{r4, r5, r6, r7, pc}
10001b6e:	0072      	lsls	r2, r6, #1
10001b70:	4462      	add	r2, ip
10001b72:	3a03      	subs	r2, #3
10001b74:	1889      	adds	r1, r1, r2
10001b76:	784a      	ldrb	r2, [r1, #1]
10001b78:	4690      	mov	r8, r2
10001b7a:	2200      	movs	r2, #0
10001b7c:	704a      	strb	r2, [r1, #1]
10001b7e:	4691      	mov	r9, r2
10001b80:	705a      	strb	r2, [r3, #1]
10001b82:	0001      	movs	r1, r0
10001b84:	0032      	movs	r2, r6
10001b86:	0020      	movs	r0, r4
10001b88:	f7ff ff22 	bl	100019d0 <ph_merge_nodes>
10001b8c:	4643      	mov	r3, r8
10001b8e:	4682      	mov	sl, r0
10001b90:	2b00      	cmp	r3, #0
10001b92:	d007      	beq.n	10001ba4 <ph_remove_any_head+0xa0>
10001b94:	005b      	lsls	r3, r3, #1
10001b96:	6821      	ldr	r1, [r4, #0]
10001b98:	4443      	add	r3, r8
10001b9a:	3b03      	subs	r3, #3
10001b9c:	18cb      	adds	r3, r1, r3
10001b9e:	785a      	ldrb	r2, [r3, #1]
10001ba0:	2a00      	cmp	r2, #0
10001ba2:	d116      	bne.n	10001bd2 <ph_remove_any_head+0xce>
10001ba4:	4642      	mov	r2, r8
10001ba6:	4651      	mov	r1, sl
10001ba8:	0020      	movs	r0, r4
10001baa:	f7ff ff11 	bl	100019d0 <ph_merge_nodes>
10001bae:	6821      	ldr	r1, [r4, #0]
10001bb0:	9b01      	ldr	r3, [sp, #4]
10001bb2:	19ca      	adds	r2, r1, r7
10001bb4:	2b00      	cmp	r3, #0
10001bb6:	d1c2      	bne.n	10001b3e <ph_remove_any_head+0x3a>
10001bb8:	2800      	cmp	r0, #0
10001bba:	d0cf      	beq.n	10001b5c <ph_remove_any_head+0x58>
10001bbc:	0043      	lsls	r3, r0, #1
10001bbe:	181b      	adds	r3, r3, r0
10001bc0:	3b03      	subs	r3, #3
10001bc2:	18cb      	adds	r3, r1, r3
10001bc4:	2100      	movs	r1, #0
10001bc6:	7099      	strb	r1, [r3, #2]
10001bc8:	e7c8      	b.n	10001b5c <ph_remove_any_head+0x58>
10001bca:	9b01      	ldr	r3, [sp, #4]
10001bcc:	2b00      	cmp	r3, #0
10001bce:	d1b6      	bne.n	10001b3e <ph_remove_any_head+0x3a>
10001bd0:	e7c4      	b.n	10001b5c <ph_remove_any_head+0x58>
10001bd2:	0050      	lsls	r0, r2, #1
10001bd4:	1880      	adds	r0, r0, r2
10001bd6:	3803      	subs	r0, #3
10001bd8:	1809      	adds	r1, r1, r0
10001bda:	7848      	ldrb	r0, [r1, #1]
10001bdc:	4683      	mov	fp, r0
10001bde:	4648      	mov	r0, r9
10001be0:	7048      	strb	r0, [r1, #1]
10001be2:	7058      	strb	r0, [r3, #1]
10001be4:	4641      	mov	r1, r8
10001be6:	0020      	movs	r0, r4
10001be8:	f7ff fef2 	bl	100019d0 <ph_merge_nodes>
10001bec:	4659      	mov	r1, fp
10001bee:	4680      	mov	r8, r0
10001bf0:	0020      	movs	r0, r4
10001bf2:	f7ff ff3f 	bl	10001a74 <ph_merge_two_pass>
10001bf6:	4641      	mov	r1, r8
10001bf8:	0002      	movs	r2, r0
10001bfa:	0020      	movs	r0, r4
10001bfc:	f7ff fee8 	bl	100019d0 <ph_merge_nodes>
10001c00:	4680      	mov	r8, r0
10001c02:	e7cf      	b.n	10001ba4 <ph_remove_any_head+0xa0>

10001c04 <ph_remove_head>:
10001c04:	b5f0      	push	{r4, r5, r6, r7, lr}
10001c06:	4657      	mov	r7, sl
10001c08:	4645      	mov	r5, r8
10001c0a:	46de      	mov	lr, fp
10001c0c:	464e      	mov	r6, r9
10001c0e:	b5e0      	push	{r5, r6, r7, lr}
10001c10:	b083      	sub	sp, #12
10001c12:	9101      	str	r1, [sp, #4]
10001c14:	7b45      	ldrb	r5, [r0, #13]
10001c16:	0004      	movs	r4, r0
10001c18:	006b      	lsls	r3, r5, #1
10001c1a:	6800      	ldr	r0, [r0, #0]
10001c1c:	195b      	adds	r3, r3, r5
10001c1e:	1edf      	subs	r7, r3, #3
10001c20:	5dc1      	ldrb	r1, [r0, r7]
10001c22:	19c2      	adds	r2, r0, r7
10001c24:	2900      	cmp	r1, #0
10001c26:	d052      	beq.n	10001cce <ph_remove_head+0xca>
10001c28:	004b      	lsls	r3, r1, #1
10001c2a:	185b      	adds	r3, r3, r1
10001c2c:	3b03      	subs	r3, #3
10001c2e:	18c3      	adds	r3, r0, r3
10001c30:	785e      	ldrb	r6, [r3, #1]
10001c32:	46b4      	mov	ip, r6
10001c34:	2e00      	cmp	r6, #0
10001c36:	d11c      	bne.n	10001c72 <ph_remove_head+0x6e>
10001c38:	9e01      	ldr	r6, [sp, #4]
10001c3a:	2e00      	cmp	r6, #0
10001c3c:	d044      	beq.n	10001cc8 <ph_remove_head+0xc4>
10001c3e:	7be6      	ldrb	r6, [r4, #15]
10001c40:	2e00      	cmp	r6, #0
10001c42:	d004      	beq.n	10001c4e <ph_remove_head+0x4a>
10001c44:	0073      	lsls	r3, r6, #1
10001c46:	199b      	adds	r3, r3, r6
10001c48:	18c3      	adds	r3, r0, r3
10001c4a:	3b03      	subs	r3, #3
10001c4c:	705d      	strb	r5, [r3, #1]
10001c4e:	7ba3      	ldrb	r3, [r4, #14]
10001c50:	2b00      	cmp	r3, #0
10001c52:	d100      	bne.n	10001c56 <ph_remove_head+0x52>
10001c54:	73a5      	strb	r5, [r4, #14]
10001c56:	73e5      	strb	r5, [r4, #15]
10001c58:	2900      	cmp	r1, #0
10001c5a:	d131      	bne.n	10001cc0 <ph_remove_head+0xbc>
10001c5c:	2300      	movs	r3, #0
10001c5e:	0028      	movs	r0, r5
10001c60:	7053      	strb	r3, [r2, #1]
10001c62:	7361      	strb	r1, [r4, #13]
10001c64:	b003      	add	sp, #12
10001c66:	bcf0      	pop	{r4, r5, r6, r7}
10001c68:	46bb      	mov	fp, r7
10001c6a:	46b2      	mov	sl, r6
10001c6c:	46a9      	mov	r9, r5
10001c6e:	46a0      	mov	r8, r4
10001c70:	bdf0      	pop	{r4, r5, r6, r7, pc}
10001c72:	0072      	lsls	r2, r6, #1
10001c74:	4462      	add	r2, ip
10001c76:	3a03      	subs	r2, #3
10001c78:	1880      	adds	r0, r0, r2
10001c7a:	7842      	ldrb	r2, [r0, #1]
10001c7c:	4690      	mov	r8, r2
10001c7e:	2200      	movs	r2, #0
10001c80:	7042      	strb	r2, [r0, #1]
10001c82:	4691      	mov	r9, r2
10001c84:	705a      	strb	r2, [r3, #1]
10001c86:	0020      	movs	r0, r4
10001c88:	0032      	movs	r2, r6
10001c8a:	f7ff fea1 	bl	100019d0 <ph_merge_nodes>
10001c8e:	4643      	mov	r3, r8
10001c90:	4682      	mov	sl, r0
10001c92:	2b00      	cmp	r3, #0
10001c94:	d007      	beq.n	10001ca6 <ph_remove_head+0xa2>
10001c96:	005b      	lsls	r3, r3, #1
10001c98:	6821      	ldr	r1, [r4, #0]
10001c9a:	4443      	add	r3, r8
10001c9c:	3b03      	subs	r3, #3
10001c9e:	18cb      	adds	r3, r1, r3
10001ca0:	785a      	ldrb	r2, [r3, #1]
10001ca2:	2a00      	cmp	r2, #0
10001ca4:	d117      	bne.n	10001cd6 <ph_remove_head+0xd2>
10001ca6:	4642      	mov	r2, r8
10001ca8:	4651      	mov	r1, sl
10001caa:	0020      	movs	r0, r4
10001cac:	f7ff fe90 	bl	100019d0 <ph_merge_nodes>
10001cb0:	9b01      	ldr	r3, [sp, #4]
10001cb2:	0001      	movs	r1, r0
10001cb4:	6820      	ldr	r0, [r4, #0]
10001cb6:	19c2      	adds	r2, r0, r7
10001cb8:	2b00      	cmp	r3, #0
10001cba:	d1c0      	bne.n	10001c3e <ph_remove_head+0x3a>
10001cbc:	2900      	cmp	r1, #0
10001cbe:	d0cd      	beq.n	10001c5c <ph_remove_head+0x58>
10001cc0:	004b      	lsls	r3, r1, #1
10001cc2:	185b      	adds	r3, r3, r1
10001cc4:	3b03      	subs	r3, #3
10001cc6:	18c3      	adds	r3, r0, r3
10001cc8:	2000      	movs	r0, #0
10001cca:	7098      	strb	r0, [r3, #2]
10001ccc:	e7c6      	b.n	10001c5c <ph_remove_head+0x58>
10001cce:	9b01      	ldr	r3, [sp, #4]
10001cd0:	2b00      	cmp	r3, #0
10001cd2:	d1b4      	bne.n	10001c3e <ph_remove_head+0x3a>
10001cd4:	e7c2      	b.n	10001c5c <ph_remove_head+0x58>
10001cd6:	0050      	lsls	r0, r2, #1
10001cd8:	1880      	adds	r0, r0, r2
10001cda:	3803      	subs	r0, #3
10001cdc:	1809      	adds	r1, r1, r0
10001cde:	7848      	ldrb	r0, [r1, #1]
10001ce0:	4683      	mov	fp, r0
10001ce2:	4648      	mov	r0, r9
10001ce4:	7048      	strb	r0, [r1, #1]
10001ce6:	7058      	strb	r0, [r3, #1]
10001ce8:	4641      	mov	r1, r8
10001cea:	0020      	movs	r0, r4
10001cec:	f7ff fe70 	bl	100019d0 <ph_merge_nodes>
10001cf0:	4659      	mov	r1, fp
10001cf2:	4680      	mov	r8, r0
10001cf4:	0020      	movs	r0, r4
10001cf6:	f7ff febd 	bl	10001a74 <ph_merge_two_pass>
10001cfa:	4641      	mov	r1, r8
10001cfc:	0002      	movs	r2, r0
10001cfe:	0020      	movs	r0, r4
10001d00:	f7ff fe66 	bl	100019d0 <ph_merge_nodes>
10001d04:	4680      	mov	r8, r0
10001d06:	e7ce      	b.n	10001ca6 <ph_remove_head+0xa2>

10001d08 <ph_remove_and_free_node>:
10001d08:	b570      	push	{r4, r5, r6, lr}
10001d0a:	0004      	movs	r4, r0
10001d0c:	2900      	cmp	r1, #0
10001d0e:	d02c      	beq.n	10001d6a <ph_remove_and_free_node+0x62>
10001d10:	7b43      	ldrb	r3, [r0, #13]
10001d12:	428b      	cmp	r3, r1
10001d14:	d02e      	beq.n	10001d74 <ph_remove_and_free_node+0x6c>
10001d16:	6805      	ldr	r5, [r0, #0]
10001d18:	0048      	lsls	r0, r1, #1
10001d1a:	1840      	adds	r0, r0, r1
10001d1c:	3803      	subs	r0, #3
10001d1e:	1828      	adds	r0, r5, r0
10001d20:	7882      	ldrb	r2, [r0, #2]
10001d22:	2a00      	cmp	r2, #0
10001d24:	d021      	beq.n	10001d6a <ph_remove_and_free_node+0x62>
10001d26:	0053      	lsls	r3, r2, #1
10001d28:	189b      	adds	r3, r3, r2
10001d2a:	3b03      	subs	r3, #3
10001d2c:	5cea      	ldrb	r2, [r5, r3]
10001d2e:	18ee      	adds	r6, r5, r3
10001d30:	428a      	cmp	r2, r1
10001d32:	d102      	bne.n	10001d3a <ph_remove_and_free_node+0x32>
10001d34:	e01b      	b.n	10001d6e <ph_remove_and_free_node+0x66>
10001d36:	2a00      	cmp	r2, #0
10001d38:	d008      	beq.n	10001d4c <ph_remove_and_free_node+0x44>
10001d3a:	0053      	lsls	r3, r2, #1
10001d3c:	189b      	adds	r3, r3, r2
10001d3e:	3b03      	subs	r3, #3
10001d40:	18eb      	adds	r3, r5, r3
10001d42:	785a      	ldrb	r2, [r3, #1]
10001d44:	428a      	cmp	r2, r1
10001d46:	d1f6      	bne.n	10001d36 <ph_remove_and_free_node+0x2e>
10001d48:	7842      	ldrb	r2, [r0, #1]
10001d4a:	705a      	strb	r2, [r3, #1]
10001d4c:	2300      	movs	r3, #0
10001d4e:	2201      	movs	r2, #1
10001d50:	7083      	strb	r3, [r0, #2]
10001d52:	7043      	strb	r3, [r0, #1]
10001d54:	0020      	movs	r0, r4
10001d56:	f7ff fed5 	bl	10001b04 <ph_remove_any_head>
10001d5a:	7b61      	ldrb	r1, [r4, #13]
10001d5c:	0002      	movs	r2, r0
10001d5e:	0020      	movs	r0, r4
10001d60:	f7ff fe36 	bl	100019d0 <ph_merge_nodes>
10001d64:	7360      	strb	r0, [r4, #13]
10001d66:	2001      	movs	r0, #1
10001d68:	e000      	b.n	10001d6c <ph_remove_and_free_node+0x64>
10001d6a:	2000      	movs	r0, #0
10001d6c:	bd70      	pop	{r4, r5, r6, pc}
10001d6e:	7843      	ldrb	r3, [r0, #1]
10001d70:	7033      	strb	r3, [r6, #0]
10001d72:	e7eb      	b.n	10001d4c <ph_remove_and_free_node+0x44>
10001d74:	2201      	movs	r2, #1
10001d76:	0019      	movs	r1, r3
10001d78:	f7ff fec4 	bl	10001b04 <ph_remove_any_head>
10001d7c:	7360      	strb	r0, [r4, #13]
10001d7e:	2001      	movs	r0, #1
10001d80:	e7f4      	b.n	10001d6c <ph_remove_and_free_node+0x64>
10001d82:	46c0      	nop			; (mov r8, r8)

10001d84 <uart_init>:
10001d84:	b5f8      	push	{r3, r4, r5, r6, r7, lr}
10001d86:	46ce      	mov	lr, r9
10001d88:	4647      	mov	r7, r8
10001d8a:	0004      	movs	r4, r0
10001d8c:	b580      	push	{r7, lr}
10001d8e:	2006      	movs	r0, #6
10001d90:	000e      	movs	r6, r1
10001d92:	f000 fa23 	bl	100021dc <clock_get_hz>
10001d96:	1e05      	subs	r5, r0, #0
10001d98:	d051      	beq.n	10001e3e <uart_init+0xba>
10001d9a:	4b52      	ldr	r3, [pc, #328]	; (10001ee4 <uart_init+0x160>)
10001d9c:	4952      	ldr	r1, [pc, #328]	; (10001ee8 <uart_init+0x164>)
10001d9e:	18e2      	adds	r2, r4, r3
10001da0:	4253      	negs	r3, r2
10001da2:	415a      	adcs	r2, r3
10001da4:	2380      	movs	r3, #128	; 0x80
10001da6:	03db      	lsls	r3, r3, #15
10001da8:	469c      	mov	ip, r3
10001daa:	0592      	lsls	r2, r2, #22
10001dac:	4b4f      	ldr	r3, [pc, #316]	; (10001eec <uart_init+0x168>)
10001dae:	4462      	add	r2, ip
10001db0:	601a      	str	r2, [r3, #0]
10001db2:	4b4f      	ldr	r3, [pc, #316]	; (10001ef0 <uart_init+0x16c>)
10001db4:	601a      	str	r2, [r3, #0]
10001db6:	0010      	movs	r0, r2
10001db8:	688b      	ldr	r3, [r1, #8]
10001dba:	4398      	bics	r0, r3
10001dbc:	d1fb      	bne.n	10001db6 <uart_init+0x32>
10001dbe:	4b49      	ldr	r3, [pc, #292]	; (10001ee4 <uart_init+0x160>)
10001dc0:	2180      	movs	r1, #128	; 0x80
10001dc2:	18e3      	adds	r3, r4, r3
10001dc4:	425a      	negs	r2, r3
10001dc6:	4153      	adcs	r3, r2
10001dc8:	4a4a      	ldr	r2, [pc, #296]	; (10001ef4 <uart_init+0x170>)
10001dca:	005b      	lsls	r3, r3, #1
10001dcc:	0049      	lsls	r1, r1, #1
10001dce:	5299      	strh	r1, [r3, r2]
10001dd0:	2006      	movs	r0, #6
10001dd2:	f000 fa03 	bl	100021dc <clock_get_hz>
10001dd6:	0031      	movs	r1, r6
10001dd8:	00c0      	lsls	r0, r0, #3
10001dda:	f001 fe9d 	bl	10003b18 <__wrap___aeabi_uidiv>
10001dde:	09c3      	lsrs	r3, r0, #7
10001de0:	d132      	bne.n	10001e48 <uart_init+0xc4>
10001de2:	2240      	movs	r2, #64	; 0x40
10001de4:	2101      	movs	r1, #1
10001de6:	4690      	mov	r8, r2
10001de8:	6261      	str	r1, [r4, #36]	; 0x24
10001dea:	62a3      	str	r3, [r4, #40]	; 0x28
10001dec:	6b25      	ldr	r5, [r4, #48]	; 0x30
10001dee:	07eb      	lsls	r3, r5, #31
10001df0:	d436      	bmi.n	10001e60 <uart_init+0xdc>
10001df2:	0027      	movs	r7, r4
10001df4:	2680      	movs	r6, #128	; 0x80
10001df6:	6ae3      	ldr	r3, [r4, #44]	; 0x2c
10001df8:	2300      	movs	r3, #0
10001dfa:	372c      	adds	r7, #44	; 0x2c
10001dfc:	0176      	lsls	r6, r6, #5
10001dfe:	433e      	orrs	r6, r7
10001e00:	6033      	str	r3, [r6, #0]
10001e02:	2006      	movs	r0, #6
10001e04:	6325      	str	r5, [r4, #48]	; 0x30
10001e06:	f000 f9e9 	bl	100021dc <clock_get_hz>
10001e0a:	4641      	mov	r1, r8
10001e0c:	0080      	lsls	r0, r0, #2
10001e0e:	f001 fe83 	bl	10003b18 <__wrap___aeabi_uidiv>
10001e12:	6b23      	ldr	r3, [r4, #48]	; 0x30
10001e14:	0005      	movs	r5, r0
10001e16:	4698      	mov	r8, r3
10001e18:	07db      	lsls	r3, r3, #31
10001e1a:	d43b      	bmi.n	10001e94 <uart_init+0x110>
10001e1c:	2260      	movs	r2, #96	; 0x60
10001e1e:	6ae3      	ldr	r3, [r4, #44]	; 0x2c
10001e20:	405a      	eors	r2, r3
10001e22:	236e      	movs	r3, #110	; 0x6e
10001e24:	4013      	ands	r3, r2
10001e26:	6033      	str	r3, [r6, #0]
10001e28:	4643      	mov	r3, r8
10001e2a:	6323      	str	r3, [r4, #48]	; 0x30
10001e2c:	2380      	movs	r3, #128	; 0x80
10001e2e:	2210      	movs	r2, #16
10001e30:	019b      	lsls	r3, r3, #6
10001e32:	433b      	orrs	r3, r7
10001e34:	601a      	str	r2, [r3, #0]
10001e36:	4b30      	ldr	r3, [pc, #192]	; (10001ef8 <uart_init+0x174>)
10001e38:	6323      	str	r3, [r4, #48]	; 0x30
10001e3a:	2303      	movs	r3, #3
10001e3c:	64a3      	str	r3, [r4, #72]	; 0x48
10001e3e:	0028      	movs	r0, r5
10001e40:	bcc0      	pop	{r6, r7}
10001e42:	46b9      	mov	r9, r7
10001e44:	46b0      	mov	r8, r6
10001e46:	bdf8      	pop	{r3, r4, r5, r6, r7, pc}
10001e48:	4a2c      	ldr	r2, [pc, #176]	; (10001efc <uart_init+0x178>)
10001e4a:	4293      	cmp	r3, r2
10001e4c:	d93f      	bls.n	10001ece <uart_init+0x14a>
10001e4e:	2300      	movs	r3, #0
10001e50:	492b      	ldr	r1, [pc, #172]	; (10001f00 <uart_init+0x17c>)
10001e52:	4a2c      	ldr	r2, [pc, #176]	; (10001f04 <uart_init+0x180>)
10001e54:	6261      	str	r1, [r4, #36]	; 0x24
10001e56:	62a3      	str	r3, [r4, #40]	; 0x28
10001e58:	6b25      	ldr	r5, [r4, #48]	; 0x30
10001e5a:	4690      	mov	r8, r2
10001e5c:	07eb      	lsls	r3, r5, #31
10001e5e:	d5c8      	bpl.n	10001df2 <uart_init+0x6e>
10001e60:	0022      	movs	r2, r4
10001e62:	23c0      	movs	r3, #192	; 0xc0
10001e64:	3230      	adds	r2, #48	; 0x30
10001e66:	019b      	lsls	r3, r3, #6
10001e68:	4313      	orrs	r3, r2
10001e6a:	4a23      	ldr	r2, [pc, #140]	; (10001ef8 <uart_init+0x174>)
10001e6c:	2006      	movs	r0, #6
10001e6e:	601a      	str	r2, [r3, #0]
10001e70:	6a66      	ldr	r6, [r4, #36]	; 0x24
10001e72:	6aa2      	ldr	r2, [r4, #40]	; 0x28
10001e74:	01b6      	lsls	r6, r6, #6
10001e76:	18b6      	adds	r6, r6, r2
10001e78:	f000 f9b0 	bl	100021dc <clock_get_hz>
10001e7c:	4922      	ldr	r1, [pc, #136]	; (10001f08 <uart_init+0x184>)
10001e7e:	f001 fe4b 	bl	10003b18 <__wrap___aeabi_uidiv>
10001e82:	02b6      	lsls	r6, r6, #10
10001e84:	0001      	movs	r1, r0
10001e86:	0030      	movs	r0, r6
10001e88:	f001 fe46 	bl	10003b18 <__wrap___aeabi_uidiv>
10001e8c:	2100      	movs	r1, #0
10001e8e:	f7ff fc97 	bl	100017c0 <busy_wait_us>
10001e92:	e7ae      	b.n	10001df2 <uart_init+0x6e>
10001e94:	0022      	movs	r2, r4
10001e96:	23c0      	movs	r3, #192	; 0xc0
10001e98:	3230      	adds	r2, #48	; 0x30
10001e9a:	019b      	lsls	r3, r3, #6
10001e9c:	4313      	orrs	r3, r2
10001e9e:	4a16      	ldr	r2, [pc, #88]	; (10001ef8 <uart_init+0x174>)
10001ea0:	2006      	movs	r0, #6
10001ea2:	601a      	str	r2, [r3, #0]
10001ea4:	6a63      	ldr	r3, [r4, #36]	; 0x24
10001ea6:	6aa2      	ldr	r2, [r4, #40]	; 0x28
10001ea8:	019b      	lsls	r3, r3, #6
10001eaa:	4699      	mov	r9, r3
10001eac:	4491      	add	r9, r2
10001eae:	f000 f995 	bl	100021dc <clock_get_hz>
10001eb2:	464b      	mov	r3, r9
10001eb4:	4914      	ldr	r1, [pc, #80]	; (10001f08 <uart_init+0x184>)
10001eb6:	029b      	lsls	r3, r3, #10
10001eb8:	4699      	mov	r9, r3
10001eba:	f001 fe2d 	bl	10003b18 <__wrap___aeabi_uidiv>
10001ebe:	0001      	movs	r1, r0
10001ec0:	4648      	mov	r0, r9
10001ec2:	f001 fe29 	bl	10003b18 <__wrap___aeabi_uidiv>
10001ec6:	2100      	movs	r1, #0
10001ec8:	f7ff fc7a 	bl	100017c0 <busy_wait_us>
10001ecc:	e7a6      	b.n	10001e1c <uart_init+0x98>
10001ece:	227f      	movs	r2, #127	; 0x7f
10001ed0:	0199      	lsls	r1, r3, #6
10001ed2:	4688      	mov	r8, r1
10001ed4:	4010      	ands	r0, r2
10001ed6:	3001      	adds	r0, #1
10001ed8:	0840      	lsrs	r0, r0, #1
10001eda:	0019      	movs	r1, r3
10001edc:	4480      	add	r8, r0
10001ede:	0003      	movs	r3, r0
10001ee0:	e782      	b.n	10001de8 <uart_init+0x64>
10001ee2:	46c0      	nop			; (mov r8, r8)
10001ee4:	bffc8000 	.word	0xbffc8000
10001ee8:	4000c000 	.word	0x4000c000
10001eec:	4000e000 	.word	0x4000e000
10001ef0:	4000f000 	.word	0x4000f000
10001ef4:	20001c9c 	.word	0x20001c9c
10001ef8:	00000301 	.word	0x00000301
10001efc:	0000fffe 	.word	0x0000fffe
10001f00:	0000ffff 	.word	0x0000ffff
10001f04:	003fffc0 	.word	0x003fffc0
10001f08:	00000e4e 	.word	0x00000e4e

10001f0c <clocks_init>:
10001f0c:	b530      	push	{r4, r5, lr}
10001f0e:	200c      	movs	r0, #12
10001f10:	b083      	sub	sp, #12
10001f12:	f000 f9b9 	bl	10002288 <watchdog_start_tick>
10001f16:	f7fe fce3 	bl	100008e0 <running_on_fpga>
10001f1a:	2800      	cmp	r0, #0
10001f1c:	d00e      	beq.n	10001f3c <clocks_init+0x30>
10001f1e:	4b99      	ldr	r3, [pc, #612]	; (10002184 <clocks_init+0x278>)
10001f20:	4a99      	ldr	r2, [pc, #612]	; (10002188 <clocks_init+0x27c>)
10001f22:	601a      	str	r2, [r3, #0]
10001f24:	605a      	str	r2, [r3, #4]
10001f26:	609a      	str	r2, [r3, #8]
10001f28:	60da      	str	r2, [r3, #12]
10001f2a:	611a      	str	r2, [r3, #16]
10001f2c:	615a      	str	r2, [r3, #20]
10001f2e:	619a      	str	r2, [r3, #24]
10001f30:	61da      	str	r2, [r3, #28]
10001f32:	621a      	str	r2, [r3, #32]
10001f34:	4a95      	ldr	r2, [pc, #596]	; (1000218c <clocks_init+0x280>)
10001f36:	625a      	str	r2, [r3, #36]	; 0x24
10001f38:	b003      	add	sp, #12
10001f3a:	bd30      	pop	{r4, r5, pc}
10001f3c:	4c94      	ldr	r4, [pc, #592]	; (10002190 <clocks_init+0x284>)
10001f3e:	67a0      	str	r0, [r4, #120]	; 0x78
10001f40:	f000 f9f6 	bl	10002330 <xosc_init>
10001f44:	2201      	movs	r2, #1
10001f46:	4b93      	ldr	r3, [pc, #588]	; (10002194 <clocks_init+0x288>)
10001f48:	601a      	str	r2, [r3, #0]
10001f4a:	6c63      	ldr	r3, [r4, #68]	; 0x44
10001f4c:	2b01      	cmp	r3, #1
10001f4e:	d1fc      	bne.n	10001f4a <clocks_init+0x3e>
10001f50:	2203      	movs	r2, #3
10001f52:	4b91      	ldr	r3, [pc, #580]	; (10002198 <clocks_init+0x28c>)
10001f54:	601a      	str	r2, [r3, #0]
10001f56:	4a8e      	ldr	r2, [pc, #568]	; (10002190 <clocks_init+0x284>)
10001f58:	6b93      	ldr	r3, [r2, #56]	; 0x38
10001f5a:	2b01      	cmp	r3, #1
10001f5c:	d1fc      	bne.n	10001f58 <clocks_init+0x4c>
10001f5e:	3301      	adds	r3, #1
10001f60:	2101      	movs	r1, #1
10001f62:	4a8e      	ldr	r2, [pc, #568]	; (1000219c <clocks_init+0x290>)
10001f64:	488e      	ldr	r0, [pc, #568]	; (100021a0 <clocks_init+0x294>)
10001f66:	9300      	str	r3, [sp, #0]
10001f68:	3304      	adds	r3, #4
10001f6a:	f000 f93d 	bl	100021e8 <pll_init>
10001f6e:	2305      	movs	r3, #5
10001f70:	4a8c      	ldr	r2, [pc, #560]	; (100021a4 <clocks_init+0x298>)
10001f72:	9300      	str	r3, [sp, #0]
10001f74:	2101      	movs	r1, #1
10001f76:	488c      	ldr	r0, [pc, #560]	; (100021a8 <clocks_init+0x29c>)
10001f78:	f000 f936 	bl	100021e8 <pll_init>
10001f7c:	4b8b      	ldr	r3, [pc, #556]	; (100021ac <clocks_init+0x2a0>)
10001f7e:	685a      	ldr	r2, [r3, #4]
10001f80:	2aff      	cmp	r2, #255	; 0xff
10001f82:	d802      	bhi.n	10001f8a <clocks_init+0x7e>
10001f84:	2280      	movs	r2, #128	; 0x80
10001f86:	0052      	lsls	r2, r2, #1
10001f88:	605a      	str	r2, [r3, #4]
10001f8a:	2280      	movs	r2, #128	; 0x80
10001f8c:	4c7d      	ldr	r4, [pc, #500]	; (10002184 <clocks_init+0x278>)
10001f8e:	4b82      	ldr	r3, [pc, #520]	; (10002198 <clocks_init+0x28c>)
10001f90:	6921      	ldr	r1, [r4, #16]
10001f92:	0112      	lsls	r2, r2, #4
10001f94:	4d85      	ldr	r5, [pc, #532]	; (100021ac <clocks_init+0x2a0>)
10001f96:	601a      	str	r2, [r3, #0]
10001f98:	2900      	cmp	r1, #0
10001f9a:	d007      	beq.n	10001fac <clocks_init+0xa0>
10001f9c:	6960      	ldr	r0, [r4, #20]
10001f9e:	f001 fdbb 	bl	10003b18 <__wrap___aeabi_uidiv>
10001fa2:	1c43      	adds	r3, r0, #1
10001fa4:	0058      	lsls	r0, r3, #1
10001fa6:	18c0      	adds	r0, r0, r3
10001fa8:	3803      	subs	r0, #3
10001faa:	d2fd      	bcs.n	10001fa8 <clocks_init+0x9c>
10001fac:	21e0      	movs	r1, #224	; 0xe0
10001fae:	4b7f      	ldr	r3, [pc, #508]	; (100021ac <clocks_init+0x2a0>)
10001fb0:	2002      	movs	r0, #2
10001fb2:	681a      	ldr	r2, [r3, #0]
10001fb4:	4011      	ands	r1, r2
10001fb6:	2280      	movs	r2, #128	; 0x80
10001fb8:	0152      	lsls	r2, r2, #5
10001fba:	432a      	orrs	r2, r5
10001fbc:	6011      	str	r1, [r2, #0]
10001fbe:	6819      	ldr	r1, [r3, #0]
10001fc0:	4048      	eors	r0, r1
10001fc2:	2103      	movs	r1, #3
10001fc4:	4001      	ands	r1, r0
10001fc6:	6011      	str	r1, [r2, #0]
10001fc8:	2104      	movs	r1, #4
10001fca:	689a      	ldr	r2, [r3, #8]
10001fcc:	4211      	tst	r1, r2
10001fce:	d0fc      	beq.n	10001fca <clocks_init+0xbe>
10001fd0:	2280      	movs	r2, #128	; 0x80
10001fd2:	2180      	movs	r1, #128	; 0x80
10001fd4:	0192      	lsls	r2, r2, #6
10001fd6:	432a      	orrs	r2, r5
10001fd8:	0109      	lsls	r1, r1, #4
10001fda:	6011      	str	r1, [r2, #0]
10001fdc:	2280      	movs	r2, #128	; 0x80
10001fde:	0052      	lsls	r2, r2, #1
10001fe0:	605a      	str	r2, [r3, #4]
10001fe2:	4b73      	ldr	r3, [pc, #460]	; (100021b0 <clocks_init+0x2a4>)
10001fe4:	6123      	str	r3, [r4, #16]
10001fe6:	4b73      	ldr	r3, [pc, #460]	; (100021b4 <clocks_init+0x2a8>)
10001fe8:	6859      	ldr	r1, [r3, #4]
10001fea:	29ff      	cmp	r1, #255	; 0xff
10001fec:	d800      	bhi.n	10001ff0 <clocks_init+0xe4>
10001fee:	605a      	str	r2, [r3, #4]
10001ff0:	2103      	movs	r1, #3
10001ff2:	4a68      	ldr	r2, [pc, #416]	; (10002194 <clocks_init+0x288>)
10001ff4:	4b6f      	ldr	r3, [pc, #444]	; (100021b4 <clocks_init+0x2a8>)
10001ff6:	6011      	str	r1, [r2, #0]
10001ff8:	3902      	subs	r1, #2
10001ffa:	689a      	ldr	r2, [r3, #8]
10001ffc:	4211      	tst	r1, r2
10001ffe:	d0fc      	beq.n	10001ffa <clocks_init+0xee>
10002000:	20e0      	movs	r0, #224	; 0xe0
10002002:	681a      	ldr	r2, [r3, #0]
10002004:	4010      	ands	r0, r2
10002006:	2280      	movs	r2, #128	; 0x80
10002008:	0152      	lsls	r2, r2, #5
1000200a:	431a      	orrs	r2, r3
1000200c:	6010      	str	r0, [r2, #0]
1000200e:	6818      	ldr	r0, [r3, #0]
10002010:	4048      	eors	r0, r1
10002012:	2103      	movs	r1, #3
10002014:	4001      	ands	r1, r0
10002016:	2002      	movs	r0, #2
10002018:	6011      	str	r1, [r2, #0]
1000201a:	4966      	ldr	r1, [pc, #408]	; (100021b4 <clocks_init+0x2a8>)
1000201c:	688a      	ldr	r2, [r1, #8]
1000201e:	4210      	tst	r0, r2
10002020:	d0fc      	beq.n	1000201c <clocks_init+0x110>
10002022:	2280      	movs	r2, #128	; 0x80
10002024:	0192      	lsls	r2, r2, #6
10002026:	4313      	orrs	r3, r2
10002028:	2280      	movs	r2, #128	; 0x80
1000202a:	0112      	lsls	r2, r2, #4
1000202c:	601a      	str	r2, [r3, #0]
1000202e:	2280      	movs	r2, #128	; 0x80
10002030:	4b61      	ldr	r3, [pc, #388]	; (100021b8 <clocks_init+0x2ac>)
10002032:	0052      	lsls	r2, r2, #1
10002034:	604a      	str	r2, [r1, #4]
10002036:	6163      	str	r3, [r4, #20]
10002038:	4b60      	ldr	r3, [pc, #384]	; (100021bc <clocks_init+0x2b0>)
1000203a:	6859      	ldr	r1, [r3, #4]
1000203c:	29ff      	cmp	r1, #255	; 0xff
1000203e:	d800      	bhi.n	10002042 <clocks_init+0x136>
10002040:	605a      	str	r2, [r3, #4]
10002042:	2280      	movs	r2, #128	; 0x80
10002044:	4b5e      	ldr	r3, [pc, #376]	; (100021c0 <clocks_init+0x2b4>)
10002046:	69e1      	ldr	r1, [r4, #28]
10002048:	0112      	lsls	r2, r2, #4
1000204a:	4d5c      	ldr	r5, [pc, #368]	; (100021bc <clocks_init+0x2b0>)
1000204c:	601a      	str	r2, [r3, #0]
1000204e:	2900      	cmp	r1, #0
10002050:	d007      	beq.n	10002062 <clocks_init+0x156>
10002052:	6960      	ldr	r0, [r4, #20]
10002054:	f001 fd60 	bl	10003b18 <__wrap___aeabi_uidiv>
10002058:	1c43      	adds	r3, r0, #1
1000205a:	0058      	lsls	r0, r3, #1
1000205c:	18c0      	adds	r0, r0, r3
1000205e:	3803      	subs	r0, #3
10002060:	d2fd      	bcs.n	1000205e <clocks_init+0x152>
10002062:	22e0      	movs	r2, #224	; 0xe0
10002064:	4955      	ldr	r1, [pc, #340]	; (100021bc <clocks_init+0x2b0>)
10002066:	680b      	ldr	r3, [r1, #0]
10002068:	401a      	ands	r2, r3
1000206a:	2380      	movs	r3, #128	; 0x80
1000206c:	015b      	lsls	r3, r3, #5
1000206e:	432b      	orrs	r3, r5
10002070:	601a      	str	r2, [r3, #0]
10002072:	2380      	movs	r3, #128	; 0x80
10002074:	2280      	movs	r2, #128	; 0x80
10002076:	019b      	lsls	r3, r3, #6
10002078:	432b      	orrs	r3, r5
1000207a:	0112      	lsls	r2, r2, #4
1000207c:	601a      	str	r2, [r3, #0]
1000207e:	2280      	movs	r2, #128	; 0x80
10002080:	4b41      	ldr	r3, [pc, #260]	; (10002188 <clocks_init+0x27c>)
10002082:	0052      	lsls	r2, r2, #1
10002084:	604a      	str	r2, [r1, #4]
10002086:	61e3      	str	r3, [r4, #28]
10002088:	4b4e      	ldr	r3, [pc, #312]	; (100021c4 <clocks_init+0x2b8>)
1000208a:	6859      	ldr	r1, [r3, #4]
1000208c:	29ff      	cmp	r1, #255	; 0xff
1000208e:	d800      	bhi.n	10002092 <clocks_init+0x186>
10002090:	605a      	str	r2, [r3, #4]
10002092:	2280      	movs	r2, #128	; 0x80
10002094:	4b4c      	ldr	r3, [pc, #304]	; (100021c8 <clocks_init+0x2bc>)
10002096:	6a21      	ldr	r1, [r4, #32]
10002098:	0112      	lsls	r2, r2, #4
1000209a:	4d4a      	ldr	r5, [pc, #296]	; (100021c4 <clocks_init+0x2b8>)
1000209c:	601a      	str	r2, [r3, #0]
1000209e:	2900      	cmp	r1, #0
100020a0:	d007      	beq.n	100020b2 <clocks_init+0x1a6>
100020a2:	6960      	ldr	r0, [r4, #20]
100020a4:	f001 fd38 	bl	10003b18 <__wrap___aeabi_uidiv>
100020a8:	1c43      	adds	r3, r0, #1
100020aa:	0058      	lsls	r0, r3, #1
100020ac:	18c0      	adds	r0, r0, r3
100020ae:	3803      	subs	r0, #3
100020b0:	d2fd      	bcs.n	100020ae <clocks_init+0x1a2>
100020b2:	22e0      	movs	r2, #224	; 0xe0
100020b4:	4943      	ldr	r1, [pc, #268]	; (100021c4 <clocks_init+0x2b8>)
100020b6:	680b      	ldr	r3, [r1, #0]
100020b8:	401a      	ands	r2, r3
100020ba:	2380      	movs	r3, #128	; 0x80
100020bc:	015b      	lsls	r3, r3, #5
100020be:	432b      	orrs	r3, r5
100020c0:	601a      	str	r2, [r3, #0]
100020c2:	2380      	movs	r3, #128	; 0x80
100020c4:	2280      	movs	r2, #128	; 0x80
100020c6:	019b      	lsls	r3, r3, #6
100020c8:	432b      	orrs	r3, r5
100020ca:	0112      	lsls	r2, r2, #4
100020cc:	601a      	str	r2, [r3, #0]
100020ce:	2380      	movs	r3, #128	; 0x80
100020d0:	2280      	movs	r2, #128	; 0x80
100020d2:	005b      	lsls	r3, r3, #1
100020d4:	604b      	str	r3, [r1, #4]
100020d6:	4b2c      	ldr	r3, [pc, #176]	; (10002188 <clocks_init+0x27c>)
100020d8:	02d2      	lsls	r2, r2, #11
100020da:	6223      	str	r3, [r4, #32]
100020dc:	4b3b      	ldr	r3, [pc, #236]	; (100021cc <clocks_init+0x2c0>)
100020de:	6859      	ldr	r1, [r3, #4]
100020e0:	4291      	cmp	r1, r2
100020e2:	d200      	bcs.n	100020e6 <clocks_init+0x1da>
100020e4:	605a      	str	r2, [r3, #4]
100020e6:	2280      	movs	r2, #128	; 0x80
100020e8:	4b39      	ldr	r3, [pc, #228]	; (100021d0 <clocks_init+0x2c4>)
100020ea:	6a61      	ldr	r1, [r4, #36]	; 0x24
100020ec:	0112      	lsls	r2, r2, #4
100020ee:	4d37      	ldr	r5, [pc, #220]	; (100021cc <clocks_init+0x2c0>)
100020f0:	601a      	str	r2, [r3, #0]
100020f2:	2900      	cmp	r1, #0
100020f4:	d007      	beq.n	10002106 <clocks_init+0x1fa>
100020f6:	6960      	ldr	r0, [r4, #20]
100020f8:	f001 fd0e 	bl	10003b18 <__wrap___aeabi_uidiv>
100020fc:	1c43      	adds	r3, r0, #1
100020fe:	0058      	lsls	r0, r3, #1
10002100:	18c0      	adds	r0, r0, r3
10002102:	3803      	subs	r0, #3
10002104:	d2fd      	bcs.n	10002102 <clocks_init+0x1f6>
10002106:	22e0      	movs	r2, #224	; 0xe0
10002108:	4930      	ldr	r1, [pc, #192]	; (100021cc <clocks_init+0x2c0>)
1000210a:	680b      	ldr	r3, [r1, #0]
1000210c:	401a      	ands	r2, r3
1000210e:	2380      	movs	r3, #128	; 0x80
10002110:	015b      	lsls	r3, r3, #5
10002112:	432b      	orrs	r3, r5
10002114:	601a      	str	r2, [r3, #0]
10002116:	2380      	movs	r3, #128	; 0x80
10002118:	2280      	movs	r2, #128	; 0x80
1000211a:	019b      	lsls	r3, r3, #6
1000211c:	432b      	orrs	r3, r5
1000211e:	0112      	lsls	r2, r2, #4
10002120:	601a      	str	r2, [r3, #0]
10002122:	2380      	movs	r3, #128	; 0x80
10002124:	02db      	lsls	r3, r3, #11
10002126:	604b      	str	r3, [r1, #4]
10002128:	4b18      	ldr	r3, [pc, #96]	; (1000218c <clocks_init+0x280>)
1000212a:	6263      	str	r3, [r4, #36]	; 0x24
1000212c:	4b29      	ldr	r3, [pc, #164]	; (100021d4 <clocks_init+0x2c8>)
1000212e:	685a      	ldr	r2, [r3, #4]
10002130:	2aff      	cmp	r2, #255	; 0xff
10002132:	d802      	bhi.n	1000213a <clocks_init+0x22e>
10002134:	2280      	movs	r2, #128	; 0x80
10002136:	0052      	lsls	r2, r2, #1
10002138:	605a      	str	r2, [r3, #4]
1000213a:	2280      	movs	r2, #128	; 0x80
1000213c:	4b26      	ldr	r3, [pc, #152]	; (100021d8 <clocks_init+0x2cc>)
1000213e:	69a1      	ldr	r1, [r4, #24]
10002140:	0112      	lsls	r2, r2, #4
10002142:	4d24      	ldr	r5, [pc, #144]	; (100021d4 <clocks_init+0x2c8>)
10002144:	601a      	str	r2, [r3, #0]
10002146:	2900      	cmp	r1, #0
10002148:	d007      	beq.n	1000215a <clocks_init+0x24e>
1000214a:	6960      	ldr	r0, [r4, #20]
1000214c:	f001 fce4 	bl	10003b18 <__wrap___aeabi_uidiv>
10002150:	1c43      	adds	r3, r0, #1
10002152:	0058      	lsls	r0, r3, #1
10002154:	18c0      	adds	r0, r0, r3
10002156:	3803      	subs	r0, #3
10002158:	d2fd      	bcs.n	10002156 <clocks_init+0x24a>
1000215a:	22e0      	movs	r2, #224	; 0xe0
1000215c:	491d      	ldr	r1, [pc, #116]	; (100021d4 <clocks_init+0x2c8>)
1000215e:	680b      	ldr	r3, [r1, #0]
10002160:	401a      	ands	r2, r3
10002162:	2380      	movs	r3, #128	; 0x80
10002164:	015b      	lsls	r3, r3, #5
10002166:	432b      	orrs	r3, r5
10002168:	601a      	str	r2, [r3, #0]
1000216a:	2380      	movs	r3, #128	; 0x80
1000216c:	2280      	movs	r2, #128	; 0x80
1000216e:	019b      	lsls	r3, r3, #6
10002170:	432b      	orrs	r3, r5
10002172:	0112      	lsls	r2, r2, #4
10002174:	601a      	str	r2, [r3, #0]
10002176:	2380      	movs	r3, #128	; 0x80
10002178:	005b      	lsls	r3, r3, #1
1000217a:	604b      	str	r3, [r1, #4]
1000217c:	4b0e      	ldr	r3, [pc, #56]	; (100021b8 <clocks_init+0x2ac>)
1000217e:	61a3      	str	r3, [r4, #24]
10002180:	e6da      	b.n	10001f38 <clocks_init+0x2c>
10002182:	46c0      	nop			; (mov r8, r8)
10002184:	200017a4 	.word	0x200017a4
10002188:	02dc6c00 	.word	0x02dc6c00
1000218c:	0000b71b 	.word	0x0000b71b
10002190:	40008000 	.word	0x40008000
10002194:	4000b03c 	.word	0x4000b03c
10002198:	4000b030 	.word	0x4000b030
1000219c:	59682f00 	.word	0x59682f00
100021a0:	40028000 	.word	0x40028000
100021a4:	47868c00 	.word	0x47868c00
100021a8:	4002c000 	.word	0x4002c000
100021ac:	40008030 	.word	0x40008030
100021b0:	00b71b00 	.word	0x00b71b00
100021b4:	4000803c 	.word	0x4000803c
100021b8:	07735940 	.word	0x07735940
100021bc:	40008054 	.word	0x40008054
100021c0:	4000b054 	.word	0x4000b054
100021c4:	40008060 	.word	0x40008060
100021c8:	4000b060 	.word	0x4000b060
100021cc:	4000806c 	.word	0x4000806c
100021d0:	4000b06c 	.word	0x4000b06c
100021d4:	40008048 	.word	0x40008048
100021d8:	4000b048 	.word	0x4000b048

100021dc <clock_get_hz>:
100021dc:	4b01      	ldr	r3, [pc, #4]	; (100021e4 <clock_get_hz+0x8>)
100021de:	0080      	lsls	r0, r0, #2
100021e0:	58c0      	ldr	r0, [r0, r3]
100021e2:	4770      	bx	lr
100021e4:	200017a4 	.word	0x200017a4

100021e8 <pll_init>:
100021e8:	b5f8      	push	{r3, r4, r5, r6, r7, lr}
100021ea:	0004      	movs	r4, r0
100021ec:	4821      	ldr	r0, [pc, #132]	; (10002274 <pll_init+0x8c>)
100021ee:	001d      	movs	r5, r3
100021f0:	0017      	movs	r7, r2
100021f2:	000e      	movs	r6, r1
100021f4:	f001 fc90 	bl	10003b18 <__wrap___aeabi_uidiv>
100021f8:	0001      	movs	r1, r0
100021fa:	0038      	movs	r0, r7
100021fc:	f001 fc8c 	bl	10003b18 <__wrap___aeabi_uidiv>
10002200:	9b06      	ldr	r3, [sp, #24]
10002202:	0429      	lsls	r1, r5, #16
10002204:	031b      	lsls	r3, r3, #12
10002206:	4319      	orrs	r1, r3
10002208:	6823      	ldr	r3, [r4, #0]
1000220a:	2b00      	cmp	r3, #0
1000220c:	db20      	blt.n	10002250 <pll_init+0x68>
1000220e:	4b1a      	ldr	r3, [pc, #104]	; (10002278 <pll_init+0x90>)
10002210:	4d1a      	ldr	r5, [pc, #104]	; (1000227c <pll_init+0x94>)
10002212:	18e2      	adds	r2, r4, r3
10002214:	4253      	negs	r3, r2
10002216:	415a      	adcs	r2, r3
10002218:	2380      	movs	r3, #128	; 0x80
1000221a:	015b      	lsls	r3, r3, #5
1000221c:	469c      	mov	ip, r3
1000221e:	0312      	lsls	r2, r2, #12
10002220:	4b17      	ldr	r3, [pc, #92]	; (10002280 <pll_init+0x98>)
10002222:	4462      	add	r2, ip
10002224:	601a      	str	r2, [r3, #0]
10002226:	4b17      	ldr	r3, [pc, #92]	; (10002284 <pll_init+0x9c>)
10002228:	601a      	str	r2, [r3, #0]
1000222a:	0017      	movs	r7, r2
1000222c:	68ab      	ldr	r3, [r5, #8]
1000222e:	439f      	bics	r7, r3
10002230:	d1fb      	bne.n	1000222a <pll_init+0x42>
10002232:	22c0      	movs	r2, #192	; 0xc0
10002234:	1d23      	adds	r3, r4, #4
10002236:	0192      	lsls	r2, r2, #6
10002238:	431a      	orrs	r2, r3
1000223a:	2321      	movs	r3, #33	; 0x21
1000223c:	6026      	str	r6, [r4, #0]
1000223e:	60a0      	str	r0, [r4, #8]
10002240:	6013      	str	r3, [r2, #0]
10002242:	6823      	ldr	r3, [r4, #0]
10002244:	2b00      	cmp	r3, #0
10002246:	dafc      	bge.n	10002242 <pll_init+0x5a>
10002248:	2308      	movs	r3, #8
1000224a:	60e1      	str	r1, [r4, #12]
1000224c:	6013      	str	r3, [r2, #0]
1000224e:	bdf8      	pop	{r3, r4, r5, r6, r7, pc}
10002250:	233f      	movs	r3, #63	; 0x3f
10002252:	6822      	ldr	r2, [r4, #0]
10002254:	4013      	ands	r3, r2
10002256:	42b3      	cmp	r3, r6
10002258:	d1d9      	bne.n	1000220e <pll_init+0x26>
1000225a:	68a3      	ldr	r3, [r4, #8]
1000225c:	051b      	lsls	r3, r3, #20
1000225e:	0d1b      	lsrs	r3, r3, #20
10002260:	4283      	cmp	r3, r0
10002262:	d1d4      	bne.n	1000220e <pll_init+0x26>
10002264:	22ee      	movs	r2, #238	; 0xee
10002266:	68e3      	ldr	r3, [r4, #12]
10002268:	02d2      	lsls	r2, r2, #11
1000226a:	4013      	ands	r3, r2
1000226c:	428b      	cmp	r3, r1
1000226e:	d1ce      	bne.n	1000220e <pll_init+0x26>
10002270:	e7ed      	b.n	1000224e <pll_init+0x66>
10002272:	46c0      	nop			; (mov r8, r8)
10002274:	00b71b00 	.word	0x00b71b00
10002278:	bffd4000 	.word	0xbffd4000
1000227c:	4000c000 	.word	0x4000c000
10002280:	4000e000 	.word	0x4000e000
10002284:	4000f000 	.word	0x4000f000

10002288 <watchdog_start_tick>:
10002288:	2380      	movs	r3, #128	; 0x80
1000228a:	4a02      	ldr	r2, [pc, #8]	; (10002294 <watchdog_start_tick+0xc>)
1000228c:	009b      	lsls	r3, r3, #2
1000228e:	4303      	orrs	r3, r0
10002290:	62d3      	str	r3, [r2, #44]	; 0x2c
10002292:	4770      	bx	lr
10002294:	40058000 	.word	0x40058000

10002298 <watchdog_reboot>:
10002298:	b510      	push	{r4, lr}
1000229a:	0014      	movs	r4, r2
1000229c:	2280      	movs	r2, #128	; 0x80
1000229e:	4b1b      	ldr	r3, [pc, #108]	; (1000230c <watchdog_reboot+0x74>)
100022a0:	05d2      	lsls	r2, r2, #23
100022a2:	601a      	str	r2, [r3, #0]
100022a4:	2800      	cmp	r0, #0
100022a6:	d01a      	beq.n	100022de <watchdog_reboot+0x46>
100022a8:	2301      	movs	r3, #1
100022aa:	4a19      	ldr	r2, [pc, #100]	; (10002310 <watchdog_reboot+0x78>)
100022ac:	4318      	orrs	r0, r3
100022ae:	4b19      	ldr	r3, [pc, #100]	; (10002314 <watchdog_reboot+0x7c>)
100022b0:	61da      	str	r2, [r3, #28]
100022b2:	4a19      	ldr	r2, [pc, #100]	; (10002318 <watchdog_reboot+0x80>)
100022b4:	4042      	eors	r2, r0
100022b6:	621a      	str	r2, [r3, #32]
100022b8:	6259      	str	r1, [r3, #36]	; 0x24
100022ba:	6298      	str	r0, [r3, #40]	; 0x28
100022bc:	2280      	movs	r2, #128	; 0x80
100022be:	4b13      	ldr	r3, [pc, #76]	; (1000230c <watchdog_reboot+0x74>)
100022c0:	05d2      	lsls	r2, r2, #23
100022c2:	601a      	str	r2, [r3, #0]
100022c4:	4915      	ldr	r1, [pc, #84]	; (1000231c <watchdog_reboot+0x84>)
100022c6:	4a16      	ldr	r2, [pc, #88]	; (10002320 <watchdog_reboot+0x88>)
100022c8:	6011      	str	r1, [r2, #0]
100022ca:	22e0      	movs	r2, #224	; 0xe0
100022cc:	04d2      	lsls	r2, r2, #19
100022ce:	601a      	str	r2, [r3, #0]
100022d0:	2c00      	cmp	r4, #0
100022d2:	d107      	bne.n	100022e4 <watchdog_reboot+0x4c>
100022d4:	2280      	movs	r2, #128	; 0x80
100022d6:	4b13      	ldr	r3, [pc, #76]	; (10002324 <watchdog_reboot+0x8c>)
100022d8:	0612      	lsls	r2, r2, #24
100022da:	601a      	str	r2, [r3, #0]
100022dc:	bd10      	pop	{r4, pc}
100022de:	4b0d      	ldr	r3, [pc, #52]	; (10002314 <watchdog_reboot+0x7c>)
100022e0:	61d8      	str	r0, [r3, #28]
100022e2:	e7eb      	b.n	100022bc <watchdog_reboot+0x24>
100022e4:	0163      	lsls	r3, r4, #5
100022e6:	1b1b      	subs	r3, r3, r4
100022e8:	009a      	lsls	r2, r3, #2
100022ea:	2380      	movs	r3, #128	; 0x80
100022ec:	1912      	adds	r2, r2, r4
100022ee:	0112      	lsls	r2, r2, #4
100022f0:	045b      	lsls	r3, r3, #17
100022f2:	429a      	cmp	r2, r3
100022f4:	d300      	bcc.n	100022f8 <watchdog_reboot+0x60>
100022f6:	4a0c      	ldr	r2, [pc, #48]	; (10002328 <watchdog_reboot+0x90>)
100022f8:	4b0c      	ldr	r3, [pc, #48]	; (1000232c <watchdog_reboot+0x94>)
100022fa:	601a      	str	r2, [r3, #0]
100022fc:	4b05      	ldr	r3, [pc, #20]	; (10002314 <watchdog_reboot+0x7c>)
100022fe:	605a      	str	r2, [r3, #4]
10002300:	2280      	movs	r2, #128	; 0x80
10002302:	4b08      	ldr	r3, [pc, #32]	; (10002324 <watchdog_reboot+0x8c>)
10002304:	05d2      	lsls	r2, r2, #23
10002306:	601a      	str	r2, [r3, #0]
10002308:	e7e8      	b.n	100022dc <watchdog_reboot+0x44>
1000230a:	46c0      	nop			; (mov r8, r8)
1000230c:	4005b000 	.word	0x4005b000
10002310:	b007c0d3 	.word	0xb007c0d3
10002314:	40058000 	.word	0x40058000
10002318:	4ff83f2d 	.word	0x4ff83f2d
1000231c:	0001fffc 	.word	0x0001fffc
10002320:	40012008 	.word	0x40012008
10002324:	4005a000 	.word	0x4005a000
10002328:	00ffffff 	.word	0x00ffffff
1000232c:	20001c44 	.word	0x20001c44

10002330 <xosc_init>:
10002330:	23aa      	movs	r3, #170	; 0xaa
10002332:	4a06      	ldr	r2, [pc, #24]	; (1000234c <xosc_init+0x1c>)
10002334:	011b      	lsls	r3, r3, #4
10002336:	6013      	str	r3, [r2, #0]
10002338:	232f      	movs	r3, #47	; 0x2f
1000233a:	4905      	ldr	r1, [pc, #20]	; (10002350 <xosc_init+0x20>)
1000233c:	60d3      	str	r3, [r2, #12]
1000233e:	4b05      	ldr	r3, [pc, #20]	; (10002354 <xosc_init+0x24>)
10002340:	6019      	str	r1, [r3, #0]
10002342:	6853      	ldr	r3, [r2, #4]
10002344:	2b00      	cmp	r3, #0
10002346:	dafc      	bge.n	10002342 <xosc_init+0x12>
10002348:	4770      	bx	lr
1000234a:	46c0      	nop			; (mov r8, r8)
1000234c:	40024000 	.word	0x40024000
10002350:	00fab000 	.word	0x00fab000
10002354:	40026000 	.word	0x40026000

10002358 <runtime_init>:
10002358:	4b2c      	ldr	r3, [pc, #176]	; (1000240c <runtime_init+0xb4>)
1000235a:	4a2d      	ldr	r2, [pc, #180]	; (10002410 <runtime_init+0xb8>)
1000235c:	b570      	push	{r4, r5, r6, lr}
1000235e:	601a      	str	r2, [r3, #0]
10002360:	4a2c      	ldr	r2, [pc, #176]	; (10002414 <runtime_init+0xbc>)
10002362:	4b2d      	ldr	r3, [pc, #180]	; (10002418 <runtime_init+0xc0>)
10002364:	492d      	ldr	r1, [pc, #180]	; (1000241c <runtime_init+0xc4>)
10002366:	601a      	str	r2, [r3, #0]
10002368:	0014      	movs	r4, r2
1000236a:	688b      	ldr	r3, [r1, #8]
1000236c:	439c      	bics	r4, r3
1000236e:	d1fb      	bne.n	10002368 <runtime_init+0x10>
10002370:	4d2b      	ldr	r5, [pc, #172]	; (10002420 <runtime_init+0xc8>)
10002372:	4e2c      	ldr	r6, [pc, #176]	; (10002424 <runtime_init+0xcc>)
10002374:	42b5      	cmp	r5, r6
10002376:	d208      	bcs.n	1000238a <runtime_init+0x32>
10002378:	3e01      	subs	r6, #1
1000237a:	1b76      	subs	r6, r6, r5
1000237c:	08b6      	lsrs	r6, r6, #2
1000237e:	cd08      	ldmia	r5!, {r3}
10002380:	4798      	blx	r3
10002382:	0023      	movs	r3, r4
10002384:	3401      	adds	r4, #1
10002386:	42b3      	cmp	r3, r6
10002388:	d1f9      	bne.n	1000237e <runtime_init+0x26>
1000238a:	f7ff fdbf 	bl	10001f0c <clocks_init>
1000238e:	4a26      	ldr	r2, [pc, #152]	; (10002428 <runtime_init+0xd0>)
10002390:	4b21      	ldr	r3, [pc, #132]	; (10002418 <runtime_init+0xc0>)
10002392:	601a      	str	r2, [r3, #0]
10002394:	4a21      	ldr	r2, [pc, #132]	; (1000241c <runtime_init+0xc4>)
10002396:	6893      	ldr	r3, [r2, #8]
10002398:	43db      	mvns	r3, r3
1000239a:	01db      	lsls	r3, r3, #7
1000239c:	09dd      	lsrs	r5, r3, #7
1000239e:	2b00      	cmp	r3, #0
100023a0:	d1f9      	bne.n	10002396 <runtime_init+0x3e>
100023a2:	2240      	movs	r2, #64	; 0x40
100023a4:	4b21      	ldr	r3, [pc, #132]	; (1000242c <runtime_init+0xd4>)
100023a6:	4c22      	ldr	r4, [pc, #136]	; (10002430 <runtime_init+0xd8>)
100023a8:	4e22      	ldr	r6, [pc, #136]	; (10002434 <runtime_init+0xdc>)
100023aa:	679a      	str	r2, [r3, #120]	; 0x78
100023ac:	675a      	str	r2, [r3, #116]	; 0x74
100023ae:	671a      	str	r2, [r3, #112]	; 0x70
100023b0:	66da      	str	r2, [r3, #108]	; 0x6c
100023b2:	42b4      	cmp	r4, r6
100023b4:	d208      	bcs.n	100023c8 <runtime_init+0x70>
100023b6:	6823      	ldr	r3, [r4, #0]
100023b8:	0020      	movs	r0, r4
100023ba:	2b00      	cmp	r3, #0
100023bc:	d020      	beq.n	10002400 <runtime_init+0xa8>
100023be:	3408      	adds	r4, #8
100023c0:	f7fe fdf4 	bl	10000fac <recursive_mutex_init>
100023c4:	42b4      	cmp	r4, r6
100023c6:	d3f6      	bcc.n	100023b6 <runtime_init+0x5e>
100023c8:	4e1b      	ldr	r6, [pc, #108]	; (10002438 <runtime_init+0xe0>)
100023ca:	4c1c      	ldr	r4, [pc, #112]	; (1000243c <runtime_init+0xe4>)
100023cc:	22c0      	movs	r2, #192	; 0xc0
100023ce:	68a1      	ldr	r1, [r4, #8]
100023d0:	0030      	movs	r0, r6
100023d2:	f002 faaf 	bl	10004934 <__wrap___aeabi_memcpy>
100023d6:	60a6      	str	r6, [r4, #8]
100023d8:	f7fe fafa 	bl	100009d0 <spin_locks_reset>
100023dc:	f7fe fdaa 	bl	10000f34 <irq_init_priorities>
100023e0:	f7fe ff9c 	bl	1000131c <alarm_pool_init_default>
100023e4:	4c16      	ldr	r4, [pc, #88]	; (10002440 <runtime_init+0xe8>)
100023e6:	4e17      	ldr	r6, [pc, #92]	; (10002444 <runtime_init+0xec>)
100023e8:	42b4      	cmp	r4, r6
100023ea:	d208      	bcs.n	100023fe <runtime_init+0xa6>
100023ec:	3e01      	subs	r6, #1
100023ee:	1b36      	subs	r6, r6, r4
100023f0:	08b6      	lsrs	r6, r6, #2
100023f2:	cc08      	ldmia	r4!, {r3}
100023f4:	4798      	blx	r3
100023f6:	002b      	movs	r3, r5
100023f8:	3501      	adds	r5, #1
100023fa:	429e      	cmp	r6, r3
100023fc:	d1f9      	bne.n	100023f2 <runtime_init+0x9a>
100023fe:	bd70      	pop	{r4, r5, r6, pc}
10002400:	3408      	adds	r4, #8
10002402:	f7fe fdc5 	bl	10000f90 <mutex_init>
10002406:	42b4      	cmp	r4, r6
10002408:	d3d5      	bcc.n	100023b6 <runtime_init+0x5e>
1000240a:	e7dd      	b.n	100023c8 <runtime_init+0x70>
1000240c:	4000e000 	.word	0x4000e000
10002410:	fefbcdbf 	.word	0xfefbcdbf
10002414:	003c7ffe 	.word	0x003c7ffe
10002418:	4000f000 	.word	0x4000f000
1000241c:	4000c000 	.word	0x4000c000
10002420:	20000f08 	.word	0x20000f08
10002424:	20000f18 	.word	0x20000f18
10002428:	01ffffff 	.word	0x01ffffff
1000242c:	4001f000 	.word	0x4001f000
10002430:	20000f00 	.word	0x20000f00
10002434:	20000f08 	.word	0x20000f08
10002438:	20000000 	.word	0x20000000
1000243c:	e000ed00 	.word	0xe000ed00
10002440:	20000f18 	.word	0x20000f18
10002444:	20000f20 	.word	0x20000f20

10002448 <_exit>:
10002448:	be00      	bkpt	0x0000
1000244a:	e7fd      	b.n	10002448 <_exit>

1000244c <exit>:
1000244c:	b510      	push	{r4, lr}
1000244e:	f7ff fffb 	bl	10002448 <_exit>
10002452:	46c0      	nop			; (mov r8, r8)

10002454 <panic>:
10002454:	b40f      	push	{r0, r1, r2, r3}
10002456:	b500      	push	{lr}
10002458:	4808      	ldr	r0, [pc, #32]	; (1000247c <panic+0x28>)
1000245a:	b083      	sub	sp, #12
1000245c:	f002 fbce 	bl	10004bfc <__wrap_puts>
10002460:	9b04      	ldr	r3, [sp, #16]
10002462:	2b00      	cmp	r3, #0
10002464:	d007      	beq.n	10002476 <panic+0x22>
10002466:	a905      	add	r1, sp, #20
10002468:	0018      	movs	r0, r3
1000246a:	9101      	str	r1, [sp, #4]
1000246c:	f001 fada 	bl	10003a24 <weak_raw_vprintf>
10002470:	4803      	ldr	r0, [pc, #12]	; (10002480 <panic+0x2c>)
10002472:	f002 fbc3 	bl	10004bfc <__wrap_puts>
10002476:	2001      	movs	r0, #1
10002478:	f7ff ffe6 	bl	10002448 <_exit>
1000247c:	10007204 	.word	0x10007204
10002480:	10007214 	.word	0x10007214

10002484 <hard_assertion_failure>:
10002484:	b510      	push	{r4, lr}
10002486:	4801      	ldr	r0, [pc, #4]	; (1000248c <hard_assertion_failure+0x8>)
10002488:	f7ff ffe4 	bl	10002454 <panic>
1000248c:	10007218 	.word	0x10007218

10002490 <_out_null>:
10002490:	4770      	bx	lr
10002492:	46c0      	nop			; (mov r8, r8)

10002494 <_out_rev>:
10002494:	b5f8      	push	{r3, r4, r5, r6, r7, lr}
10002496:	4657      	mov	r7, sl
10002498:	464e      	mov	r6, r9
1000249a:	4645      	mov	r5, r8
1000249c:	46de      	mov	lr, fp
1000249e:	b5e0      	push	{r5, r6, r7, lr}
100024a0:	4699      	mov	r9, r3
100024a2:	9b0a      	ldr	r3, [sp, #40]	; 0x28
100024a4:	0007      	movs	r7, r0
100024a6:	469a      	mov	sl, r3
100024a8:	9b0d      	ldr	r3, [sp, #52]	; 0x34
100024aa:	4688      	mov	r8, r1
100024ac:	4693      	mov	fp, r2
100024ae:	0015      	movs	r5, r2
100024b0:	9e0b      	ldr	r6, [sp, #44]	; 0x2c
100024b2:	079b      	lsls	r3, r3, #30
100024b4:	d110      	bne.n	100024d8 <_out_rev+0x44>
100024b6:	9b0c      	ldr	r3, [sp, #48]	; 0x30
100024b8:	429e      	cmp	r6, r3
100024ba:	d20d      	bcs.n	100024d8 <_out_rev+0x44>
100024bc:	1b9d      	subs	r5, r3, r6
100024be:	0014      	movs	r4, r2
100024c0:	000e      	movs	r6, r1
100024c2:	445d      	add	r5, fp
100024c4:	0022      	movs	r2, r4
100024c6:	464b      	mov	r3, r9
100024c8:	3401      	adds	r4, #1
100024ca:	0031      	movs	r1, r6
100024cc:	2020      	movs	r0, #32
100024ce:	47b8      	blx	r7
100024d0:	42a5      	cmp	r5, r4
100024d2:	d1f7      	bne.n	100024c4 <_out_rev+0x30>
100024d4:	46b0      	mov	r8, r6
100024d6:	9e0b      	ldr	r6, [sp, #44]	; 0x2c
100024d8:	2e00      	cmp	r6, #0
100024da:	d027      	beq.n	1000252c <_out_rev+0x98>
100024dc:	4644      	mov	r4, r8
100024de:	1975      	adds	r5, r6, r5
100024e0:	4653      	mov	r3, sl
100024e2:	1baa      	subs	r2, r5, r6
100024e4:	3e01      	subs	r6, #1
100024e6:	5d98      	ldrb	r0, [r3, r6]
100024e8:	0021      	movs	r1, r4
100024ea:	464b      	mov	r3, r9
100024ec:	47b8      	blx	r7
100024ee:	2e00      	cmp	r6, #0
100024f0:	d1f6      	bne.n	100024e0 <_out_rev+0x4c>
100024f2:	0023      	movs	r3, r4
100024f4:	002c      	movs	r4, r5
100024f6:	4698      	mov	r8, r3
100024f8:	9b0d      	ldr	r3, [sp, #52]	; 0x34
100024fa:	079b      	lsls	r3, r3, #30
100024fc:	d50f      	bpl.n	1000251e <_out_rev+0x8a>
100024fe:	465b      	mov	r3, fp
10002500:	1ae5      	subs	r5, r4, r3
10002502:	9b0c      	ldr	r3, [sp, #48]	; 0x30
10002504:	42ab      	cmp	r3, r5
10002506:	d90a      	bls.n	1000251e <_out_rev+0x8a>
10002508:	4646      	mov	r6, r8
1000250a:	4698      	mov	r8, r3
1000250c:	0022      	movs	r2, r4
1000250e:	464b      	mov	r3, r9
10002510:	0031      	movs	r1, r6
10002512:	2020      	movs	r0, #32
10002514:	3501      	adds	r5, #1
10002516:	47b8      	blx	r7
10002518:	3401      	adds	r4, #1
1000251a:	45a8      	cmp	r8, r5
1000251c:	d8f6      	bhi.n	1000250c <_out_rev+0x78>
1000251e:	0020      	movs	r0, r4
10002520:	bcf0      	pop	{r4, r5, r6, r7}
10002522:	46bb      	mov	fp, r7
10002524:	46b2      	mov	sl, r6
10002526:	46a9      	mov	r9, r5
10002528:	46a0      	mov	r8, r4
1000252a:	bdf8      	pop	{r3, r4, r5, r6, r7, pc}
1000252c:	002c      	movs	r4, r5
1000252e:	e7e3      	b.n	100024f8 <_out_rev+0x64>

10002530 <_ntoa_format>:
10002530:	b5f0      	push	{r4, r5, r6, r7, lr}
10002532:	464f      	mov	r7, r9
10002534:	4646      	mov	r6, r8
10002536:	46d6      	mov	lr, sl
10002538:	b5c0      	push	{r6, r7, lr}
1000253a:	b084      	sub	sp, #16
1000253c:	4698      	mov	r8, r3
1000253e:	ab0e      	add	r3, sp, #56	; 0x38
10002540:	781b      	ldrb	r3, [r3, #0]
10002542:	9f12      	ldr	r7, [sp, #72]	; 0x48
10002544:	4699      	mov	r9, r3
10002546:	4694      	mov	ip, r2
10002548:	9c0d      	ldr	r4, [sp, #52]	; 0x34
1000254a:	9b10      	ldr	r3, [sp, #64]	; 0x40
1000254c:	9e11      	ldr	r6, [sp, #68]	; 0x44
1000254e:	07ba      	lsls	r2, r7, #30
10002550:	d425      	bmi.n	1000259e <_ntoa_format+0x6e>
10002552:	2e00      	cmp	r6, #0
10002554:	d14b      	bne.n	100025ee <_ntoa_format+0xbe>
10002556:	429c      	cmp	r4, r3
10002558:	d300      	bcc.n	1000255c <_ntoa_format+0x2c>
1000255a:	e0bf      	b.n	100026dc <_ntoa_format+0x1ac>
1000255c:	2201      	movs	r2, #1
1000255e:	403a      	ands	r2, r7
10002560:	4692      	mov	sl, r2
10002562:	2c1f      	cmp	r4, #31
10002564:	d900      	bls.n	10002568 <_ntoa_format+0x38>
10002566:	e0b8      	b.n	100026da <_ntoa_format+0x1aa>
10002568:	9a0c      	ldr	r2, [sp, #48]	; 0x30
1000256a:	1e55      	subs	r5, r2, #1
1000256c:	2230      	movs	r2, #48	; 0x30
1000256e:	e001      	b.n	10002574 <_ntoa_format+0x44>
10002570:	2c20      	cmp	r4, #32
10002572:	d003      	beq.n	1000257c <_ntoa_format+0x4c>
10002574:	3401      	adds	r4, #1
10002576:	552a      	strb	r2, [r5, r4]
10002578:	42a3      	cmp	r3, r4
1000257a:	d8f9      	bhi.n	10002570 <_ntoa_format+0x40>
1000257c:	4652      	mov	r2, sl
1000257e:	2a00      	cmp	r2, #0
10002580:	d00d      	beq.n	1000259e <_ntoa_format+0x6e>
10002582:	42a6      	cmp	r6, r4
10002584:	d90b      	bls.n	1000259e <_ntoa_format+0x6e>
10002586:	2c20      	cmp	r4, #32
10002588:	d044      	beq.n	10002614 <_ntoa_format+0xe4>
1000258a:	9a0c      	ldr	r2, [sp, #48]	; 0x30
1000258c:	1e55      	subs	r5, r2, #1
1000258e:	2230      	movs	r2, #48	; 0x30
10002590:	e001      	b.n	10002596 <_ntoa_format+0x66>
10002592:	2c20      	cmp	r4, #32
10002594:	d03e      	beq.n	10002614 <_ntoa_format+0xe4>
10002596:	3401      	adds	r4, #1
10002598:	552a      	strb	r2, [r5, r4]
1000259a:	42b4      	cmp	r4, r6
1000259c:	d1f9      	bne.n	10002592 <_ntoa_format+0x62>
1000259e:	06fa      	lsls	r2, r7, #27
100025a0:	d54d      	bpl.n	1000263e <_ntoa_format+0x10e>
100025a2:	057a      	lsls	r2, r7, #21
100025a4:	d43f      	bmi.n	10002626 <_ntoa_format+0xf6>
100025a6:	2c00      	cmp	r4, #0
100025a8:	d139      	bne.n	1000261e <_ntoa_format+0xee>
100025aa:	9b0f      	ldr	r3, [sp, #60]	; 0x3c
100025ac:	2b10      	cmp	r3, #16
100025ae:	d100      	bne.n	100025b2 <_ntoa_format+0x82>
100025b0:	e079      	b.n	100026a6 <_ntoa_format+0x176>
100025b2:	9b0f      	ldr	r3, [sp, #60]	; 0x3c
100025b4:	2b02      	cmp	r3, #2
100025b6:	d100      	bne.n	100025ba <_ntoa_format+0x8a>
100025b8:	e08a      	b.n	100026d0 <_ntoa_format+0x1a0>
100025ba:	2330      	movs	r3, #48	; 0x30
100025bc:	9a0c      	ldr	r2, [sp, #48]	; 0x30
100025be:	2401      	movs	r4, #1
100025c0:	7013      	strb	r3, [r2, #0]
100025c2:	464b      	mov	r3, r9
100025c4:	2b00      	cmp	r3, #0
100025c6:	d03f      	beq.n	10002648 <_ntoa_format+0x118>
100025c8:	232d      	movs	r3, #45	; 0x2d
100025ca:	9a0c      	ldr	r2, [sp, #48]	; 0x30
100025cc:	5513      	strb	r3, [r2, r4]
100025ce:	3401      	adds	r4, #1
100025d0:	9b0c      	ldr	r3, [sp, #48]	; 0x30
100025d2:	4662      	mov	r2, ip
100025d4:	9300      	str	r3, [sp, #0]
100025d6:	9703      	str	r7, [sp, #12]
100025d8:	4643      	mov	r3, r8
100025da:	9602      	str	r6, [sp, #8]
100025dc:	9401      	str	r4, [sp, #4]
100025de:	f7ff ff59 	bl	10002494 <_out_rev>
100025e2:	b004      	add	sp, #16
100025e4:	bce0      	pop	{r5, r6, r7}
100025e6:	46ba      	mov	sl, r7
100025e8:	46b1      	mov	r9, r6
100025ea:	46a8      	mov	r8, r5
100025ec:	bdf0      	pop	{r4, r5, r6, r7, pc}
100025ee:	2201      	movs	r2, #1
100025f0:	0015      	movs	r5, r2
100025f2:	403d      	ands	r5, r7
100025f4:	46aa      	mov	sl, r5
100025f6:	423a      	tst	r2, r7
100025f8:	d02f      	beq.n	1000265a <_ntoa_format+0x12a>
100025fa:	464a      	mov	r2, r9
100025fc:	2a00      	cmp	r2, #0
100025fe:	d102      	bne.n	10002606 <_ntoa_format+0xd6>
10002600:	320c      	adds	r2, #12
10002602:	423a      	tst	r2, r7
10002604:	d000      	beq.n	10002608 <_ntoa_format+0xd8>
10002606:	3e01      	subs	r6, #1
10002608:	429c      	cmp	r4, r3
1000260a:	d2ba      	bcs.n	10002582 <_ntoa_format+0x52>
1000260c:	2c1f      	cmp	r4, #31
1000260e:	d9ab      	bls.n	10002568 <_ntoa_format+0x38>
10002610:	2e20      	cmp	r6, #32
10002612:	d927      	bls.n	10002664 <_ntoa_format+0x134>
10002614:	2420      	movs	r4, #32
10002616:	06fa      	lsls	r2, r7, #27
10002618:	d5da      	bpl.n	100025d0 <_ntoa_format+0xa0>
1000261a:	057a      	lsls	r2, r7, #21
1000261c:	d403      	bmi.n	10002626 <_ntoa_format+0xf6>
1000261e:	42a3      	cmp	r3, r4
10002620:	d02d      	beq.n	1000267e <_ntoa_format+0x14e>
10002622:	42a6      	cmp	r6, r4
10002624:	d02b      	beq.n	1000267e <_ntoa_format+0x14e>
10002626:	9b0f      	ldr	r3, [sp, #60]	; 0x3c
10002628:	2b10      	cmp	r3, #16
1000262a:	d032      	beq.n	10002692 <_ntoa_format+0x162>
1000262c:	2b02      	cmp	r3, #2
1000262e:	d020      	beq.n	10002672 <_ntoa_format+0x142>
10002630:	2c20      	cmp	r4, #32
10002632:	d0cd      	beq.n	100025d0 <_ntoa_format+0xa0>
10002634:	2230      	movs	r2, #48	; 0x30
10002636:	9b0c      	ldr	r3, [sp, #48]	; 0x30
10002638:	191b      	adds	r3, r3, r4
1000263a:	701a      	strb	r2, [r3, #0]
1000263c:	3401      	adds	r4, #1
1000263e:	2c20      	cmp	r4, #32
10002640:	d0c6      	beq.n	100025d0 <_ntoa_format+0xa0>
10002642:	464b      	mov	r3, r9
10002644:	2b00      	cmp	r3, #0
10002646:	d1bf      	bne.n	100025c8 <_ntoa_format+0x98>
10002648:	077b      	lsls	r3, r7, #29
1000264a:	d40d      	bmi.n	10002668 <_ntoa_format+0x138>
1000264c:	073b      	lsls	r3, r7, #28
1000264e:	d5bf      	bpl.n	100025d0 <_ntoa_format+0xa0>
10002650:	2320      	movs	r3, #32
10002652:	9a0c      	ldr	r2, [sp, #48]	; 0x30
10002654:	5513      	strb	r3, [r2, r4]
10002656:	3401      	adds	r4, #1
10002658:	e7ba      	b.n	100025d0 <_ntoa_format+0xa0>
1000265a:	429c      	cmp	r4, r3
1000265c:	d29f      	bcs.n	1000259e <_ntoa_format+0x6e>
1000265e:	2c1f      	cmp	r4, #31
10002660:	d800      	bhi.n	10002664 <_ntoa_format+0x134>
10002662:	e781      	b.n	10002568 <_ntoa_format+0x38>
10002664:	2420      	movs	r4, #32
10002666:	e79a      	b.n	1000259e <_ntoa_format+0x6e>
10002668:	232b      	movs	r3, #43	; 0x2b
1000266a:	9a0c      	ldr	r2, [sp, #48]	; 0x30
1000266c:	5513      	strb	r3, [r2, r4]
1000266e:	3401      	adds	r4, #1
10002670:	e7ae      	b.n	100025d0 <_ntoa_format+0xa0>
10002672:	2c20      	cmp	r4, #32
10002674:	d0ac      	beq.n	100025d0 <_ntoa_format+0xa0>
10002676:	9b0c      	ldr	r3, [sp, #48]	; 0x30
10002678:	191b      	adds	r3, r3, r4
1000267a:	3401      	adds	r4, #1
1000267c:	e03a      	b.n	100026f4 <_ntoa_format+0x1c4>
1000267e:	1e63      	subs	r3, r4, #1
10002680:	2c01      	cmp	r4, #1
10002682:	d092      	beq.n	100025aa <_ntoa_format+0x7a>
10002684:	9a0f      	ldr	r2, [sp, #60]	; 0x3c
10002686:	2a10      	cmp	r2, #16
10002688:	d02a      	beq.n	100026e0 <_ntoa_format+0x1b0>
1000268a:	2a02      	cmp	r2, #2
1000268c:	d02f      	beq.n	100026ee <_ntoa_format+0x1be>
1000268e:	001c      	movs	r4, r3
10002690:	e7d0      	b.n	10002634 <_ntoa_format+0x104>
10002692:	06bb      	lsls	r3, r7, #26
10002694:	d40e      	bmi.n	100026b4 <_ntoa_format+0x184>
10002696:	2c20      	cmp	r4, #32
10002698:	d09a      	beq.n	100025d0 <_ntoa_format+0xa0>
1000269a:	9b0c      	ldr	r3, [sp, #48]	; 0x30
1000269c:	191a      	adds	r2, r3, r4
1000269e:	3401      	adds	r4, #1
100026a0:	2378      	movs	r3, #120	; 0x78
100026a2:	7013      	strb	r3, [r2, #0]
100026a4:	e7c4      	b.n	10002630 <_ntoa_format+0x100>
100026a6:	06bb      	lsls	r3, r7, #26
100026a8:	d40d      	bmi.n	100026c6 <_ntoa_format+0x196>
100026aa:	2378      	movs	r3, #120	; 0x78
100026ac:	9a0c      	ldr	r2, [sp, #48]	; 0x30
100026ae:	2401      	movs	r4, #1
100026b0:	7013      	strb	r3, [r2, #0]
100026b2:	e7bf      	b.n	10002634 <_ntoa_format+0x104>
100026b4:	2c20      	cmp	r4, #32
100026b6:	d100      	bne.n	100026ba <_ntoa_format+0x18a>
100026b8:	e78a      	b.n	100025d0 <_ntoa_format+0xa0>
100026ba:	2258      	movs	r2, #88	; 0x58
100026bc:	9b0c      	ldr	r3, [sp, #48]	; 0x30
100026be:	191b      	adds	r3, r3, r4
100026c0:	701a      	strb	r2, [r3, #0]
100026c2:	3401      	adds	r4, #1
100026c4:	e7b4      	b.n	10002630 <_ntoa_format+0x100>
100026c6:	2358      	movs	r3, #88	; 0x58
100026c8:	9a0c      	ldr	r2, [sp, #48]	; 0x30
100026ca:	2401      	movs	r4, #1
100026cc:	7013      	strb	r3, [r2, #0]
100026ce:	e7b1      	b.n	10002634 <_ntoa_format+0x104>
100026d0:	9a0c      	ldr	r2, [sp, #48]	; 0x30
100026d2:	3360      	adds	r3, #96	; 0x60
100026d4:	2401      	movs	r4, #1
100026d6:	7013      	strb	r3, [r2, #0]
100026d8:	e7ac      	b.n	10002634 <_ntoa_format+0x104>
100026da:	2420      	movs	r4, #32
100026dc:	2600      	movs	r6, #0
100026de:	e75e      	b.n	1000259e <_ntoa_format+0x6e>
100026e0:	3c02      	subs	r4, #2
100026e2:	06ba      	lsls	r2, r7, #26
100026e4:	d4e9      	bmi.n	100026ba <_ntoa_format+0x18a>
100026e6:	9a0c      	ldr	r2, [sp, #48]	; 0x30
100026e8:	1912      	adds	r2, r2, r4
100026ea:	001c      	movs	r4, r3
100026ec:	e7d8      	b.n	100026a0 <_ntoa_format+0x170>
100026ee:	9a0c      	ldr	r2, [sp, #48]	; 0x30
100026f0:	4692      	mov	sl, r2
100026f2:	4453      	add	r3, sl
100026f4:	2262      	movs	r2, #98	; 0x62
100026f6:	701a      	strb	r2, [r3, #0]
100026f8:	e79a      	b.n	10002630 <_ntoa_format+0x100>
100026fa:	46c0      	nop			; (mov r8, r8)

100026fc <_out_char>:
100026fc:	b510      	push	{r4, lr}
100026fe:	2800      	cmp	r0, #0
10002700:	d100      	bne.n	10002704 <_out_char+0x8>
10002702:	bd10      	pop	{r4, pc}
10002704:	f002 fa2e 	bl	10004b64 <__wrap_putchar>
10002708:	e7fb      	b.n	10002702 <_out_char+0x6>
1000270a:	46c0      	nop			; (mov r8, r8)

1000270c <_out_fct>:
1000270c:	000b      	movs	r3, r1
1000270e:	b510      	push	{r4, lr}
10002710:	2800      	cmp	r0, #0
10002712:	d002      	beq.n	1000271a <_out_fct+0xe>
10002714:	6849      	ldr	r1, [r1, #4]
10002716:	681b      	ldr	r3, [r3, #0]
10002718:	4798      	blx	r3
1000271a:	bd10      	pop	{r4, pc}

1000271c <_etoa>:
1000271c:	b5f0      	push	{r4, r5, r6, r7, lr}
1000271e:	46de      	mov	lr, fp
10002720:	4657      	mov	r7, sl
10002722:	464e      	mov	r6, r9
10002724:	4645      	mov	r5, r8
10002726:	b5e0      	push	{r5, r6, r7, lr}
10002728:	b09b      	sub	sp, #108	; 0x6c
1000272a:	469b      	mov	fp, r3
1000272c:	9b24      	ldr	r3, [sp, #144]	; 0x90
1000272e:	4689      	mov	r9, r1
10002730:	4698      	mov	r8, r3
10002732:	9b25      	ldr	r3, [sp, #148]	; 0x94
10002734:	900b      	str	r0, [sp, #44]	; 0x2c
10002736:	920c      	str	r2, [sp, #48]	; 0x30
10002738:	4640      	mov	r0, r8
1000273a:	4642      	mov	r2, r8
1000273c:	0019      	movs	r1, r3
1000273e:	469a      	mov	sl, r3
10002740:	f001 fcb3 	bl	100040aa <__wrap___aeabi_dcmpun>
10002744:	2800      	cmp	r0, #0
10002746:	d000      	beq.n	1000274a <_etoa+0x2e>
10002748:	e0d8      	b.n	100028fc <_etoa+0x1e0>
1000274a:	2201      	movs	r2, #1
1000274c:	4640      	mov	r0, r8
1000274e:	4651      	mov	r1, sl
10002750:	4b77      	ldr	r3, [pc, #476]	; (10002930 <_etoa+0x214>)
10002752:	4252      	negs	r2, r2
10002754:	f001 fca4 	bl	100040a0 <__wrap___aeabi_dcmpgt>
10002758:	2800      	cmp	r0, #0
1000275a:	d000      	beq.n	1000275e <_etoa+0x42>
1000275c:	e0ce      	b.n	100028fc <_etoa+0x1e0>
1000275e:	2201      	movs	r2, #1
10002760:	4640      	mov	r0, r8
10002762:	4651      	mov	r1, sl
10002764:	4b73      	ldr	r3, [pc, #460]	; (10002934 <_etoa+0x218>)
10002766:	4252      	negs	r2, r2
10002768:	f001 fc84 	bl	10004074 <__wrap___aeabi_dcmplt>
1000276c:	2800      	cmp	r0, #0
1000276e:	d000      	beq.n	10002772 <_etoa+0x56>
10002770:	e0c4      	b.n	100028fc <_etoa+0x1e0>
10002772:	2200      	movs	r2, #0
10002774:	2300      	movs	r3, #0
10002776:	4640      	mov	r0, r8
10002778:	4651      	mov	r1, sl
1000277a:	f001 fc7b 	bl	10004074 <__wrap___aeabi_dcmplt>
1000277e:	2800      	cmp	r0, #0
10002780:	d000      	beq.n	10002784 <_etoa+0x68>
10002782:	e1b9      	b.n	10002af8 <_etoa+0x3dc>
10002784:	4642      	mov	r2, r8
10002786:	4653      	mov	r3, sl
10002788:	920a      	str	r2, [sp, #40]	; 0x28
1000278a:	9309      	str	r3, [sp, #36]	; 0x24
1000278c:	2380      	movs	r3, #128	; 0x80
1000278e:	9a28      	ldr	r2, [sp, #160]	; 0xa0
10002790:	00db      	lsls	r3, r3, #3
10002792:	401a      	ands	r2, r3
10002794:	920e      	str	r2, [sp, #56]	; 0x38
10002796:	9a28      	ldr	r2, [sp, #160]	; 0xa0
10002798:	421a      	tst	r2, r3
1000279a:	d101      	bne.n	100027a0 <_etoa+0x84>
1000279c:	2306      	movs	r3, #6
1000279e:	9326      	str	r3, [sp, #152]	; 0x98
100027a0:	9a0a      	ldr	r2, [sp, #40]	; 0x28
100027a2:	9b09      	ldr	r3, [sp, #36]	; 0x24
100027a4:	0016      	movs	r6, r2
100027a6:	4313      	orrs	r3, r2
100027a8:	d000      	beq.n	100027ac <_etoa+0x90>
100027aa:	e0c7      	b.n	1000293c <_etoa+0x220>
100027ac:	9b28      	ldr	r3, [sp, #160]	; 0xa0
100027ae:	2500      	movs	r5, #0
100027b0:	2600      	movs	r6, #0
100027b2:	051b      	lsls	r3, r3, #20
100027b4:	d400      	bmi.n	100027b8 <_etoa+0x9c>
100027b6:	e19b      	b.n	10002af0 <_etoa+0x3d4>
100027b8:	2300      	movs	r3, #0
100027ba:	930d      	str	r3, [sp, #52]	; 0x34
100027bc:	9a26      	ldr	r2, [sp, #152]	; 0x98
100027be:	9b0d      	ldr	r3, [sp, #52]	; 0x34
100027c0:	429a      	cmp	r2, r3
100027c2:	dc00      	bgt.n	100027c6 <_etoa+0xaa>
100027c4:	e19f      	b.n	10002b06 <_etoa+0x3ea>
100027c6:	1ad0      	subs	r0, r2, r3
100027c8:	1e43      	subs	r3, r0, #1
100027ca:	9326      	str	r3, [sp, #152]	; 0x98
100027cc:	2380      	movs	r3, #128	; 0x80
100027ce:	9a28      	ldr	r2, [sp, #160]	; 0xa0
100027d0:	00db      	lsls	r3, r3, #3
100027d2:	431a      	orrs	r2, r3
100027d4:	2300      	movs	r3, #0
100027d6:	2700      	movs	r7, #0
100027d8:	9228      	str	r2, [sp, #160]	; 0xa0
100027da:	930d      	str	r3, [sp, #52]	; 0x34
100027dc:	9b27      	ldr	r3, [sp, #156]	; 0x9c
100027de:	2400      	movs	r4, #0
100027e0:	42bb      	cmp	r3, r7
100027e2:	d900      	bls.n	100027e6 <_etoa+0xca>
100027e4:	1bdc      	subs	r4, r3, r7
100027e6:	2302      	movs	r3, #2
100027e8:	9a28      	ldr	r2, [sp, #160]	; 0xa0
100027ea:	401a      	ands	r2, r3
100027ec:	920e      	str	r2, [sp, #56]	; 0x38
100027ee:	9a28      	ldr	r2, [sp, #160]	; 0xa0
100027f0:	4213      	tst	r3, r2
100027f2:	d003      	beq.n	100027fc <_etoa+0xe0>
100027f4:	427b      	negs	r3, r7
100027f6:	417b      	adcs	r3, r7
100027f8:	425b      	negs	r3, r3
100027fa:	401c      	ands	r4, r3
100027fc:	9b0d      	ldr	r3, [sp, #52]	; 0x34
100027fe:	2b00      	cmp	r3, #0
10002800:	d007      	beq.n	10002812 <_etoa+0xf6>
10002802:	980a      	ldr	r0, [sp, #40]	; 0x28
10002804:	9909      	ldr	r1, [sp, #36]	; 0x24
10002806:	002a      	movs	r2, r5
10002808:	0033      	movs	r3, r6
1000280a:	f001 fbd2 	bl	10003fb2 <__wrap___aeabi_ddiv>
1000280e:	900a      	str	r0, [sp, #40]	; 0x28
10002810:	9109      	str	r1, [sp, #36]	; 0x24
10002812:	2200      	movs	r2, #0
10002814:	2300      	movs	r3, #0
10002816:	4640      	mov	r0, r8
10002818:	4651      	mov	r1, sl
1000281a:	f001 fc2b 	bl	10004074 <__wrap___aeabi_dcmplt>
1000281e:	2800      	cmp	r0, #0
10002820:	d005      	beq.n	1000282e <_etoa+0x112>
10002822:	2080      	movs	r0, #128	; 0x80
10002824:	0600      	lsls	r0, r0, #24
10002826:	4684      	mov	ip, r0
10002828:	9909      	ldr	r1, [sp, #36]	; 0x24
1000282a:	4461      	add	r1, ip
1000282c:	9109      	str	r1, [sp, #36]	; 0x24
1000282e:	9a28      	ldr	r2, [sp, #160]	; 0xa0
10002830:	4b41      	ldr	r3, [pc, #260]	; (10002938 <_etoa+0x21c>)
10002832:	9d0b      	ldr	r5, [sp, #44]	; 0x2c
10002834:	4013      	ands	r3, r2
10002836:	9304      	str	r3, [sp, #16]
10002838:	9b26      	ldr	r3, [sp, #152]	; 0x98
1000283a:	9a0a      	ldr	r2, [sp, #40]	; 0x28
1000283c:	9302      	str	r3, [sp, #8]
1000283e:	9b09      	ldr	r3, [sp, #36]	; 0x24
10002840:	9403      	str	r4, [sp, #12]
10002842:	9200      	str	r2, [sp, #0]
10002844:	9301      	str	r3, [sp, #4]
10002846:	4649      	mov	r1, r9
10002848:	465b      	mov	r3, fp
1000284a:	0028      	movs	r0, r5
1000284c:	9a0c      	ldr	r2, [sp, #48]	; 0x30
1000284e:	f000 f98b 	bl	10002b68 <_ftoa>
10002852:	0004      	movs	r4, r0
10002854:	2f00      	cmp	r7, #0
10002856:	d062      	beq.n	1000291e <_etoa+0x202>
10002858:	9b28      	ldr	r3, [sp, #160]	; 0xa0
1000285a:	0022      	movs	r2, r4
1000285c:	0698      	lsls	r0, r3, #26
1000285e:	231f      	movs	r3, #31
10002860:	17c0      	asrs	r0, r0, #31
10002862:	4398      	bics	r0, r3
10002864:	1c63      	adds	r3, r4, #1
10002866:	4698      	mov	r8, r3
10002868:	4649      	mov	r1, r9
1000286a:	465b      	mov	r3, fp
1000286c:	3065      	adds	r0, #101	; 0x65
1000286e:	47a8      	blx	r5
10002870:	9b0d      	ldr	r3, [sp, #52]	; 0x34
10002872:	2500      	movs	r5, #0
10002874:	17da      	asrs	r2, r3, #31
10002876:	189c      	adds	r4, r3, r2
10002878:	0fdb      	lsrs	r3, r3, #31
1000287a:	469a      	mov	sl, r3
1000287c:	4054      	eors	r4, r2
1000287e:	3f01      	subs	r7, #1
10002880:	e001      	b.n	10002886 <_etoa+0x16a>
10002882:	2d20      	cmp	r5, #32
10002884:	d013      	beq.n	100028ae <_etoa+0x192>
10002886:	aa0a      	add	r2, sp, #40	; 0x28
10002888:	4694      	mov	ip, r2
1000288a:	231f      	movs	r3, #31
1000288c:	0020      	movs	r0, r4
1000288e:	4463      	add	r3, ip
10002890:	210a      	movs	r1, #10
10002892:	3501      	adds	r5, #1
10002894:	195e      	adds	r6, r3, r5
10002896:	f001 f93f 	bl	10003b18 <__wrap___aeabi_uidiv>
1000289a:	3130      	adds	r1, #48	; 0x30
1000289c:	7031      	strb	r1, [r6, #0]
1000289e:	0020      	movs	r0, r4
100028a0:	210a      	movs	r1, #10
100028a2:	f001 f939 	bl	10003b18 <__wrap___aeabi_uidiv>
100028a6:	0026      	movs	r6, r4
100028a8:	0004      	movs	r4, r0
100028aa:	2e09      	cmp	r6, #9
100028ac:	d8e9      	bhi.n	10002882 <_etoa+0x166>
100028ae:	2305      	movs	r3, #5
100028b0:	9306      	str	r3, [sp, #24]
100028b2:	2300      	movs	r3, #0
100028b4:	9304      	str	r3, [sp, #16]
100028b6:	330a      	adds	r3, #10
100028b8:	9303      	str	r3, [sp, #12]
100028ba:	4653      	mov	r3, sl
100028bc:	9705      	str	r7, [sp, #20]
100028be:	9f0b      	ldr	r7, [sp, #44]	; 0x2c
100028c0:	9302      	str	r3, [sp, #8]
100028c2:	ab12      	add	r3, sp, #72	; 0x48
100028c4:	9300      	str	r3, [sp, #0]
100028c6:	4642      	mov	r2, r8
100028c8:	465b      	mov	r3, fp
100028ca:	4649      	mov	r1, r9
100028cc:	0038      	movs	r0, r7
100028ce:	9501      	str	r5, [sp, #4]
100028d0:	f7ff fe2e 	bl	10002530 <_ntoa_format>
100028d4:	9b0e      	ldr	r3, [sp, #56]	; 0x38
100028d6:	0004      	movs	r4, r0
100028d8:	2b00      	cmp	r3, #0
100028da:	d020      	beq.n	1000291e <_etoa+0x202>
100028dc:	9b0c      	ldr	r3, [sp, #48]	; 0x30
100028de:	1ac5      	subs	r5, r0, r3
100028e0:	9b27      	ldr	r3, [sp, #156]	; 0x9c
100028e2:	42ab      	cmp	r3, r5
100028e4:	d91b      	bls.n	1000291e <_etoa+0x202>
100028e6:	001e      	movs	r6, r3
100028e8:	0022      	movs	r2, r4
100028ea:	465b      	mov	r3, fp
100028ec:	4649      	mov	r1, r9
100028ee:	2020      	movs	r0, #32
100028f0:	3501      	adds	r5, #1
100028f2:	47b8      	blx	r7
100028f4:	3401      	adds	r4, #1
100028f6:	42ae      	cmp	r6, r5
100028f8:	d8f6      	bhi.n	100028e8 <_etoa+0x1cc>
100028fa:	e010      	b.n	1000291e <_etoa+0x202>
100028fc:	9b28      	ldr	r3, [sp, #160]	; 0xa0
100028fe:	4642      	mov	r2, r8
10002900:	9304      	str	r3, [sp, #16]
10002902:	9b27      	ldr	r3, [sp, #156]	; 0x9c
10002904:	4649      	mov	r1, r9
10002906:	9303      	str	r3, [sp, #12]
10002908:	9b26      	ldr	r3, [sp, #152]	; 0x98
1000290a:	980b      	ldr	r0, [sp, #44]	; 0x2c
1000290c:	9302      	str	r3, [sp, #8]
1000290e:	4653      	mov	r3, sl
10002910:	9200      	str	r2, [sp, #0]
10002912:	9301      	str	r3, [sp, #4]
10002914:	465b      	mov	r3, fp
10002916:	9a0c      	ldr	r2, [sp, #48]	; 0x30
10002918:	f000 f926 	bl	10002b68 <_ftoa>
1000291c:	0004      	movs	r4, r0
1000291e:	0020      	movs	r0, r4
10002920:	b01b      	add	sp, #108	; 0x6c
10002922:	bcf0      	pop	{r4, r5, r6, r7}
10002924:	46bb      	mov	fp, r7
10002926:	46b2      	mov	sl, r6
10002928:	46a9      	mov	r9, r5
1000292a:	46a0      	mov	r8, r4
1000292c:	bdf0      	pop	{r4, r5, r6, r7, pc}
1000292e:	46c0      	nop			; (mov r8, r8)
10002930:	7fefffff 	.word	0x7fefffff
10002934:	ffefffff 	.word	0xffefffff
10002938:	fffff7ff 	.word	0xfffff7ff
1000293c:	4b73      	ldr	r3, [pc, #460]	; (10002b0c <_etoa+0x3f0>)
1000293e:	9f09      	ldr	r7, [sp, #36]	; 0x24
10002940:	469c      	mov	ip, r3
10002942:	0078      	lsls	r0, r7, #1
10002944:	0d40      	lsrs	r0, r0, #21
10002946:	4460      	add	r0, ip
10002948:	f001 fbc2 	bl	100040d0 <__wrap___aeabi_i2d>
1000294c:	4a70      	ldr	r2, [pc, #448]	; (10002b10 <_etoa+0x3f4>)
1000294e:	4b71      	ldr	r3, [pc, #452]	; (10002b14 <_etoa+0x3f8>)
10002950:	f001 fb4d 	bl	10003fee <__wrap___aeabi_dmul>
10002954:	4a70      	ldr	r2, [pc, #448]	; (10002b18 <_etoa+0x3fc>)
10002956:	4b71      	ldr	r3, [pc, #452]	; (10002b1c <_etoa+0x400>)
10002958:	f001 fb22 	bl	10003fa0 <__wrap___aeabi_dadd>
1000295c:	033b      	lsls	r3, r7, #12
1000295e:	4a70      	ldr	r2, [pc, #448]	; (10002b20 <_etoa+0x404>)
10002960:	0b1b      	lsrs	r3, r3, #12
10002962:	431a      	orrs	r2, r3
10002964:	0004      	movs	r4, r0
10002966:	000d      	movs	r5, r1
10002968:	0030      	movs	r0, r6
1000296a:	0011      	movs	r1, r2
1000296c:	4b6d      	ldr	r3, [pc, #436]	; (10002b24 <_etoa+0x408>)
1000296e:	2200      	movs	r2, #0
10002970:	f001 fb0d 	bl	10003f8e <__wrap___aeabi_dsub>
10002974:	4a6c      	ldr	r2, [pc, #432]	; (10002b28 <_etoa+0x40c>)
10002976:	4b6d      	ldr	r3, [pc, #436]	; (10002b2c <_etoa+0x410>)
10002978:	f001 fb39 	bl	10003fee <__wrap___aeabi_dmul>
1000297c:	0002      	movs	r2, r0
1000297e:	000b      	movs	r3, r1
10002980:	0020      	movs	r0, r4
10002982:	0029      	movs	r1, r5
10002984:	f001 fb0c 	bl	10003fa0 <__wrap___aeabi_dadd>
10002988:	f001 fbba 	bl	10004100 <__wrap___aeabi_d2iz>
1000298c:	900d      	str	r0, [sp, #52]	; 0x34
1000298e:	f001 fb9f 	bl	100040d0 <__wrap___aeabi_i2d>
10002992:	4a67      	ldr	r2, [pc, #412]	; (10002b30 <_etoa+0x414>)
10002994:	4b67      	ldr	r3, [pc, #412]	; (10002b34 <_etoa+0x418>)
10002996:	0004      	movs	r4, r0
10002998:	000d      	movs	r5, r1
1000299a:	f001 fb28 	bl	10003fee <__wrap___aeabi_dmul>
1000299e:	2200      	movs	r2, #0
100029a0:	4b65      	ldr	r3, [pc, #404]	; (10002b38 <_etoa+0x41c>)
100029a2:	f001 fafd 	bl	10003fa0 <__wrap___aeabi_dadd>
100029a6:	f001 fbab 	bl	10004100 <__wrap___aeabi_d2iz>
100029aa:	4a64      	ldr	r2, [pc, #400]	; (10002b3c <_etoa+0x420>)
100029ac:	0006      	movs	r6, r0
100029ae:	4b64      	ldr	r3, [pc, #400]	; (10002b40 <_etoa+0x424>)
100029b0:	0020      	movs	r0, r4
100029b2:	0029      	movs	r1, r5
100029b4:	f001 fb1b 	bl	10003fee <__wrap___aeabi_dmul>
100029b8:	0004      	movs	r4, r0
100029ba:	0030      	movs	r0, r6
100029bc:	000d      	movs	r5, r1
100029be:	960f      	str	r6, [sp, #60]	; 0x3c
100029c0:	f001 fb86 	bl	100040d0 <__wrap___aeabi_i2d>
100029c4:	4a5f      	ldr	r2, [pc, #380]	; (10002b44 <_etoa+0x428>)
100029c6:	4b60      	ldr	r3, [pc, #384]	; (10002b48 <_etoa+0x42c>)
100029c8:	f001 fb11 	bl	10003fee <__wrap___aeabi_dmul>
100029cc:	0002      	movs	r2, r0
100029ce:	000b      	movs	r3, r1
100029d0:	0020      	movs	r0, r4
100029d2:	0029      	movs	r1, r5
100029d4:	f001 fadb 	bl	10003f8e <__wrap___aeabi_dsub>
100029d8:	0002      	movs	r2, r0
100029da:	000b      	movs	r3, r1
100029dc:	0006      	movs	r6, r0
100029de:	000f      	movs	r7, r1
100029e0:	f001 fb05 	bl	10003fee <__wrap___aeabi_dmul>
100029e4:	0032      	movs	r2, r6
100029e6:	0004      	movs	r4, r0
100029e8:	000d      	movs	r5, r1
100029ea:	003b      	movs	r3, r7
100029ec:	0030      	movs	r0, r6
100029ee:	0039      	movs	r1, r7
100029f0:	f001 fad6 	bl	10003fa0 <__wrap___aeabi_dadd>
100029f4:	2200      	movs	r2, #0
100029f6:	9010      	str	r0, [sp, #64]	; 0x40
100029f8:	9111      	str	r1, [sp, #68]	; 0x44
100029fa:	4b54      	ldr	r3, [pc, #336]	; (10002b4c <_etoa+0x430>)
100029fc:	0020      	movs	r0, r4
100029fe:	0029      	movs	r1, r5
10002a00:	f001 fad7 	bl	10003fb2 <__wrap___aeabi_ddiv>
10002a04:	2200      	movs	r2, #0
10002a06:	4b52      	ldr	r3, [pc, #328]	; (10002b50 <_etoa+0x434>)
10002a08:	f001 faca 	bl	10003fa0 <__wrap___aeabi_dadd>
10002a0c:	0002      	movs	r2, r0
10002a0e:	000b      	movs	r3, r1
10002a10:	0020      	movs	r0, r4
10002a12:	0029      	movs	r1, r5
10002a14:	f001 facd 	bl	10003fb2 <__wrap___aeabi_ddiv>
10002a18:	2200      	movs	r2, #0
10002a1a:	4b4e      	ldr	r3, [pc, #312]	; (10002b54 <_etoa+0x438>)
10002a1c:	f001 fac0 	bl	10003fa0 <__wrap___aeabi_dadd>
10002a20:	0002      	movs	r2, r0
10002a22:	000b      	movs	r3, r1
10002a24:	0020      	movs	r0, r4
10002a26:	0029      	movs	r1, r5
10002a28:	f001 fac3 	bl	10003fb2 <__wrap___aeabi_ddiv>
10002a2c:	000d      	movs	r5, r1
10002a2e:	2180      	movs	r1, #128	; 0x80
10002a30:	0004      	movs	r4, r0
10002a32:	0032      	movs	r2, r6
10002a34:	003b      	movs	r3, r7
10002a36:	2000      	movs	r0, #0
10002a38:	05c9      	lsls	r1, r1, #23
10002a3a:	f001 faa8 	bl	10003f8e <__wrap___aeabi_dsub>
10002a3e:	0002      	movs	r2, r0
10002a40:	000b      	movs	r3, r1
10002a42:	0020      	movs	r0, r4
10002a44:	0029      	movs	r1, r5
10002a46:	f001 faab 	bl	10003fa0 <__wrap___aeabi_dadd>
10002a4a:	0002      	movs	r2, r0
10002a4c:	000b      	movs	r3, r1
10002a4e:	9810      	ldr	r0, [sp, #64]	; 0x40
10002a50:	9911      	ldr	r1, [sp, #68]	; 0x44
10002a52:	f001 faae 	bl	10003fb2 <__wrap___aeabi_ddiv>
10002a56:	2200      	movs	r2, #0
10002a58:	4b31      	ldr	r3, [pc, #196]	; (10002b20 <_etoa+0x404>)
10002a5a:	f001 faa1 	bl	10003fa0 <__wrap___aeabi_dadd>
10002a5e:	4b3e      	ldr	r3, [pc, #248]	; (10002b58 <_etoa+0x43c>)
10002a60:	9c0f      	ldr	r4, [sp, #60]	; 0x3c
10002a62:	469c      	mov	ip, r3
10002a64:	4464      	add	r4, ip
10002a66:	2200      	movs	r2, #0
10002a68:	0523      	lsls	r3, r4, #20
10002a6a:	f001 fac0 	bl	10003fee <__wrap___aeabi_dmul>
10002a6e:	0005      	movs	r5, r0
10002a70:	000e      	movs	r6, r1
10002a72:	0002      	movs	r2, r0
10002a74:	000b      	movs	r3, r1
10002a76:	980a      	ldr	r0, [sp, #40]	; 0x28
10002a78:	9909      	ldr	r1, [sp, #36]	; 0x24
10002a7a:	f001 fafb 	bl	10004074 <__wrap___aeabi_dcmplt>
10002a7e:	2800      	cmp	r0, #0
10002a80:	d00a      	beq.n	10002a98 <_etoa+0x37c>
10002a82:	9b0d      	ldr	r3, [sp, #52]	; 0x34
10002a84:	0028      	movs	r0, r5
10002a86:	3b01      	subs	r3, #1
10002a88:	0031      	movs	r1, r6
10002a8a:	930d      	str	r3, [sp, #52]	; 0x34
10002a8c:	2200      	movs	r2, #0
10002a8e:	4b30      	ldr	r3, [pc, #192]	; (10002b50 <_etoa+0x434>)
10002a90:	f001 fa8f 	bl	10003fb2 <__wrap___aeabi_ddiv>
10002a94:	0005      	movs	r5, r0
10002a96:	000e      	movs	r6, r1
10002a98:	27c6      	movs	r7, #198	; 0xc6
10002a9a:	990d      	ldr	r1, [sp, #52]	; 0x34
10002a9c:	002b      	movs	r3, r5
10002a9e:	3163      	adds	r1, #99	; 0x63
10002aa0:	428f      	cmp	r7, r1
10002aa2:	41bf      	sbcs	r7, r7
10002aa4:	9928      	ldr	r1, [sp, #160]	; 0xa0
10002aa6:	427f      	negs	r7, r7
10002aa8:	3704      	adds	r7, #4
10002aaa:	0509      	lsls	r1, r1, #20
10002aac:	d400      	bmi.n	10002ab0 <_etoa+0x394>
10002aae:	e695      	b.n	100027dc <_etoa+0xc0>
10002ab0:	4333      	orrs	r3, r6
10002ab2:	d100      	bne.n	10002ab6 <_etoa+0x39a>
10002ab4:	e682      	b.n	100027bc <_etoa+0xa0>
10002ab6:	9c09      	ldr	r4, [sp, #36]	; 0x24
10002ab8:	4a28      	ldr	r2, [pc, #160]	; (10002b5c <_etoa+0x440>)
10002aba:	0021      	movs	r1, r4
10002abc:	4b28      	ldr	r3, [pc, #160]	; (10002b60 <_etoa+0x444>)
10002abe:	980a      	ldr	r0, [sp, #40]	; 0x28
10002ac0:	f001 fae6 	bl	10004090 <__wrap___aeabi_dcmpge>
10002ac4:	2800      	cmp	r0, #0
10002ac6:	d008      	beq.n	10002ada <_etoa+0x3be>
10002ac8:	2200      	movs	r2, #0
10002aca:	0021      	movs	r1, r4
10002acc:	4b25      	ldr	r3, [pc, #148]	; (10002b64 <_etoa+0x448>)
10002ace:	980a      	ldr	r0, [sp, #40]	; 0x28
10002ad0:	f001 fad0 	bl	10004074 <__wrap___aeabi_dcmplt>
10002ad4:	2800      	cmp	r0, #0
10002ad6:	d000      	beq.n	10002ada <_etoa+0x3be>
10002ad8:	e670      	b.n	100027bc <_etoa+0xa0>
10002ada:	9b26      	ldr	r3, [sp, #152]	; 0x98
10002adc:	2b00      	cmp	r3, #0
10002ade:	d100      	bne.n	10002ae2 <_etoa+0x3c6>
10002ae0:	e67c      	b.n	100027dc <_etoa+0xc0>
10002ae2:	9b0e      	ldr	r3, [sp, #56]	; 0x38
10002ae4:	1e5a      	subs	r2, r3, #1
10002ae6:	4193      	sbcs	r3, r2
10002ae8:	9a26      	ldr	r2, [sp, #152]	; 0x98
10002aea:	1ad3      	subs	r3, r2, r3
10002aec:	9326      	str	r3, [sp, #152]	; 0x98
10002aee:	e675      	b.n	100027dc <_etoa+0xc0>
10002af0:	2300      	movs	r3, #0
10002af2:	2704      	movs	r7, #4
10002af4:	930d      	str	r3, [sp, #52]	; 0x34
10002af6:	e671      	b.n	100027dc <_etoa+0xc0>
10002af8:	4643      	mov	r3, r8
10002afa:	930a      	str	r3, [sp, #40]	; 0x28
10002afc:	2380      	movs	r3, #128	; 0x80
10002afe:	061b      	lsls	r3, r3, #24
10002b00:	4453      	add	r3, sl
10002b02:	9309      	str	r3, [sp, #36]	; 0x24
10002b04:	e642      	b.n	1000278c <_etoa+0x70>
10002b06:	2300      	movs	r3, #0
10002b08:	9326      	str	r3, [sp, #152]	; 0x98
10002b0a:	e65f      	b.n	100027cc <_etoa+0xb0>
10002b0c:	fffffc01 	.word	0xfffffc01
10002b10:	509f79fb 	.word	0x509f79fb
10002b14:	3fd34413 	.word	0x3fd34413
10002b18:	8b60c8b3 	.word	0x8b60c8b3
10002b1c:	3fc68a28 	.word	0x3fc68a28
10002b20:	3ff00000 	.word	0x3ff00000
10002b24:	3ff80000 	.word	0x3ff80000
10002b28:	636f4361 	.word	0x636f4361
10002b2c:	3fd287a7 	.word	0x3fd287a7
10002b30:	0979a371 	.word	0x0979a371
10002b34:	400a934f 	.word	0x400a934f
10002b38:	3fe00000 	.word	0x3fe00000
10002b3c:	bbb55516 	.word	0xbbb55516
10002b40:	40026bb1 	.word	0x40026bb1
10002b44:	fefa39ef 	.word	0xfefa39ef
10002b48:	3fe62e42 	.word	0x3fe62e42
10002b4c:	402c0000 	.word	0x402c0000
10002b50:	40240000 	.word	0x40240000
10002b54:	40180000 	.word	0x40180000
10002b58:	000003ff 	.word	0x000003ff
10002b5c:	eb1c432d 	.word	0xeb1c432d
10002b60:	3f1a36e2 	.word	0x3f1a36e2
10002b64:	412e8480 	.word	0x412e8480

10002b68 <_ftoa>:
10002b68:	b5f0      	push	{r4, r5, r6, r7, lr}
10002b6a:	464e      	mov	r6, r9
10002b6c:	46de      	mov	lr, fp
10002b6e:	4657      	mov	r7, sl
10002b70:	4645      	mov	r5, r8
10002b72:	b5e0      	push	{r5, r6, r7, lr}
10002b74:	b097      	sub	sp, #92	; 0x5c
10002b76:	4699      	mov	r9, r3
10002b78:	9e20      	ldr	r6, [sp, #128]	; 0x80
10002b7a:	9f21      	ldr	r7, [sp, #132]	; 0x84
10002b7c:	9b22      	ldr	r3, [sp, #136]	; 0x88
10002b7e:	4683      	mov	fp, r0
10002b80:	4698      	mov	r8, r3
10002b82:	9107      	str	r1, [sp, #28]
10002b84:	920c      	str	r2, [sp, #48]	; 0x30
10002b86:	003b      	movs	r3, r7
10002b88:	0032      	movs	r2, r6
10002b8a:	0030      	movs	r0, r6
10002b8c:	0039      	movs	r1, r7
10002b8e:	f001 fa8c 	bl	100040aa <__wrap___aeabi_dcmpun>
10002b92:	2800      	cmp	r0, #0
10002b94:	d000      	beq.n	10002b98 <_ftoa+0x30>
10002b96:	e1a9      	b.n	10002eec <_ftoa+0x384>
10002b98:	2201      	movs	r2, #1
10002b9a:	0030      	movs	r0, r6
10002b9c:	0039      	movs	r1, r7
10002b9e:	4bca      	ldr	r3, [pc, #808]	; (10002ec8 <_ftoa+0x360>)
10002ba0:	4252      	negs	r2, r2
10002ba2:	f001 fa67 	bl	10004074 <__wrap___aeabi_dcmplt>
10002ba6:	2800      	cmp	r0, #0
10002ba8:	d000      	beq.n	10002bac <_ftoa+0x44>
10002baa:	e0e1      	b.n	10002d70 <_ftoa+0x208>
10002bac:	2201      	movs	r2, #1
10002bae:	0030      	movs	r0, r6
10002bb0:	0039      	movs	r1, r7
10002bb2:	4bc6      	ldr	r3, [pc, #792]	; (10002ecc <_ftoa+0x364>)
10002bb4:	4252      	negs	r2, r2
10002bb6:	f001 fa73 	bl	100040a0 <__wrap___aeabi_dcmpgt>
10002bba:	2800      	cmp	r0, #0
10002bbc:	d000      	beq.n	10002bc0 <_ftoa+0x58>
10002bbe:	e0b7      	b.n	10002d30 <_ftoa+0x1c8>
10002bc0:	2200      	movs	r2, #0
10002bc2:	0030      	movs	r0, r6
10002bc4:	0039      	movs	r1, r7
10002bc6:	4bc2      	ldr	r3, [pc, #776]	; (10002ed0 <_ftoa+0x368>)
10002bc8:	f001 fa6a 	bl	100040a0 <__wrap___aeabi_dcmpgt>
10002bcc:	2800      	cmp	r0, #0
10002bce:	d000      	beq.n	10002bd2 <_ftoa+0x6a>
10002bd0:	e099      	b.n	10002d06 <_ftoa+0x19e>
10002bd2:	2200      	movs	r2, #0
10002bd4:	0030      	movs	r0, r6
10002bd6:	0039      	movs	r1, r7
10002bd8:	4bbe      	ldr	r3, [pc, #760]	; (10002ed4 <_ftoa+0x36c>)
10002bda:	f001 fa4b 	bl	10004074 <__wrap___aeabi_dcmplt>
10002bde:	2800      	cmp	r0, #0
10002be0:	d000      	beq.n	10002be4 <_ftoa+0x7c>
10002be2:	e090      	b.n	10002d06 <_ftoa+0x19e>
10002be4:	2200      	movs	r2, #0
10002be6:	2300      	movs	r3, #0
10002be8:	0030      	movs	r0, r6
10002bea:	0039      	movs	r1, r7
10002bec:	f001 fa42 	bl	10004074 <__wrap___aeabi_dcmplt>
10002bf0:	2800      	cmp	r0, #0
10002bf2:	d000      	beq.n	10002bf6 <_ftoa+0x8e>
10002bf4:	e0b1      	b.n	10002d5a <_ftoa+0x1f2>
10002bf6:	2300      	movs	r3, #0
10002bf8:	930d      	str	r3, [sp, #52]	; 0x34
10002bfa:	9b24      	ldr	r3, [sp, #144]	; 0x90
10002bfc:	055b      	lsls	r3, r3, #21
10002bfe:	d401      	bmi.n	10002c04 <_ftoa+0x9c>
10002c00:	2306      	movs	r3, #6
10002c02:	4698      	mov	r8, r3
10002c04:	ab08      	add	r3, sp, #32
10002c06:	469c      	mov	ip, r3
10002c08:	2217      	movs	r2, #23
10002c0a:	2400      	movs	r4, #0
10002c0c:	2330      	movs	r3, #48	; 0x30
10002c0e:	4641      	mov	r1, r8
10002c10:	4462      	add	r2, ip
10002c12:	e004      	b.n	10002c1e <_ftoa+0xb6>
10002c14:	3401      	adds	r4, #1
10002c16:	5513      	strb	r3, [r2, r4]
10002c18:	3901      	subs	r1, #1
10002c1a:	2c20      	cmp	r4, #32
10002c1c:	d001      	beq.n	10002c22 <_ftoa+0xba>
10002c1e:	2909      	cmp	r1, #9
10002c20:	d8f8      	bhi.n	10002c14 <_ftoa+0xac>
10002c22:	4688      	mov	r8, r1
10002c24:	0030      	movs	r0, r6
10002c26:	0039      	movs	r1, r7
10002c28:	f001 fa6a 	bl	10004100 <__wrap___aeabi_d2iz>
10002c2c:	4643      	mov	r3, r8
10002c2e:	00da      	lsls	r2, r3, #3
10002c30:	4ba9      	ldr	r3, [pc, #676]	; (10002ed8 <_ftoa+0x370>)
10002c32:	0005      	movs	r5, r0
10002c34:	189b      	adds	r3, r3, r2
10002c36:	681a      	ldr	r2, [r3, #0]
10002c38:	685b      	ldr	r3, [r3, #4]
10002c3a:	9208      	str	r2, [sp, #32]
10002c3c:	9309      	str	r3, [sp, #36]	; 0x24
10002c3e:	f001 fa47 	bl	100040d0 <__wrap___aeabi_i2d>
10002c42:	0002      	movs	r2, r0
10002c44:	000b      	movs	r3, r1
10002c46:	0030      	movs	r0, r6
10002c48:	0039      	movs	r1, r7
10002c4a:	f001 f9a0 	bl	10003f8e <__wrap___aeabi_dsub>
10002c4e:	9a08      	ldr	r2, [sp, #32]
10002c50:	9b09      	ldr	r3, [sp, #36]	; 0x24
10002c52:	f001 f9cc 	bl	10003fee <__wrap___aeabi_dmul>
10002c56:	900a      	str	r0, [sp, #40]	; 0x28
10002c58:	910b      	str	r1, [sp, #44]	; 0x2c
10002c5a:	f001 fa75 	bl	10004148 <__wrap___aeabi_d2uiz>
10002c5e:	4682      	mov	sl, r0
10002c60:	f001 fa32 	bl	100040c8 <__wrap___aeabi_ui2d>
10002c64:	0002      	movs	r2, r0
10002c66:	000b      	movs	r3, r1
10002c68:	980a      	ldr	r0, [sp, #40]	; 0x28
10002c6a:	990b      	ldr	r1, [sp, #44]	; 0x2c
10002c6c:	f001 f98f 	bl	10003f8e <__wrap___aeabi_dsub>
10002c70:	2200      	movs	r2, #0
10002c72:	4b9a      	ldr	r3, [pc, #616]	; (10002edc <_ftoa+0x374>)
10002c74:	900a      	str	r0, [sp, #40]	; 0x28
10002c76:	910b      	str	r1, [sp, #44]	; 0x2c
10002c78:	f001 fa12 	bl	100040a0 <__wrap___aeabi_dcmpgt>
10002c7c:	2800      	cmp	r0, #0
10002c7e:	d100      	bne.n	10002c82 <_ftoa+0x11a>
10002c80:	e0c0      	b.n	10002e04 <_ftoa+0x29c>
10002c82:	2301      	movs	r3, #1
10002c84:	469c      	mov	ip, r3
10002c86:	44e2      	add	sl, ip
10002c88:	4650      	mov	r0, sl
10002c8a:	f001 fa1d 	bl	100040c8 <__wrap___aeabi_ui2d>
10002c8e:	0002      	movs	r2, r0
10002c90:	000b      	movs	r3, r1
10002c92:	9808      	ldr	r0, [sp, #32]
10002c94:	9909      	ldr	r1, [sp, #36]	; 0x24
10002c96:	f001 f9f3 	bl	10004080 <__wrap___aeabi_dcmple>
10002c9a:	2800      	cmp	r0, #0
10002c9c:	d002      	beq.n	10002ca4 <_ftoa+0x13c>
10002c9e:	2300      	movs	r3, #0
10002ca0:	469a      	mov	sl, r3
10002ca2:	3501      	adds	r5, #1
10002ca4:	4643      	mov	r3, r8
10002ca6:	2b00      	cmp	r3, #0
10002ca8:	d06a      	beq.n	10002d80 <_ftoa+0x218>
10002caa:	ab08      	add	r3, sp, #32
10002cac:	2617      	movs	r6, #23
10002cae:	469c      	mov	ip, r3
10002cb0:	9508      	str	r5, [sp, #32]
10002cb2:	4466      	add	r6, ip
10002cb4:	4655      	mov	r5, sl
10002cb6:	e014      	b.n	10002ce2 <_ftoa+0x17a>
10002cb8:	2301      	movs	r3, #1
10002cba:	425b      	negs	r3, r3
10002cbc:	4443      	add	r3, r8
10002cbe:	210a      	movs	r1, #10
10002cc0:	0028      	movs	r0, r5
10002cc2:	469a      	mov	sl, r3
10002cc4:	f000 ff28 	bl	10003b18 <__wrap___aeabi_uidiv>
10002cc8:	3401      	adds	r4, #1
10002cca:	3130      	adds	r1, #48	; 0x30
10002ccc:	1937      	adds	r7, r6, r4
10002cce:	7039      	strb	r1, [r7, #0]
10002cd0:	0028      	movs	r0, r5
10002cd2:	210a      	movs	r1, #10
10002cd4:	f000 ff20 	bl	10003b18 <__wrap___aeabi_uidiv>
10002cd8:	2d09      	cmp	r5, #9
10002cda:	d800      	bhi.n	10002cde <_ftoa+0x176>
10002cdc:	e0d0      	b.n	10002e80 <_ftoa+0x318>
10002cde:	46d0      	mov	r8, sl
10002ce0:	0005      	movs	r5, r0
10002ce2:	2c20      	cmp	r4, #32
10002ce4:	d1e8      	bne.n	10002cb8 <_ftoa+0x150>
10002ce6:	ab0e      	add	r3, sp, #56	; 0x38
10002ce8:	4698      	mov	r8, r3
10002cea:	2303      	movs	r3, #3
10002cec:	9a24      	ldr	r2, [sp, #144]	; 0x90
10002cee:	4013      	ands	r3, r2
10002cf0:	2b01      	cmp	r3, #1
10002cf2:	d100      	bne.n	10002cf6 <_ftoa+0x18e>
10002cf4:	e096      	b.n	10002e24 <_ftoa+0x2bc>
10002cf6:	2320      	movs	r3, #32
10002cf8:	9a24      	ldr	r2, [sp, #144]	; 0x90
10002cfa:	9301      	str	r3, [sp, #4]
10002cfc:	9203      	str	r2, [sp, #12]
10002cfe:	9a23      	ldr	r2, [sp, #140]	; 0x8c
10002d00:	4643      	mov	r3, r8
10002d02:	9202      	str	r2, [sp, #8]
10002d04:	e01e      	b.n	10002d44 <_ftoa+0x1dc>
10002d06:	9b24      	ldr	r3, [sp, #144]	; 0x90
10002d08:	4658      	mov	r0, fp
10002d0a:	9304      	str	r3, [sp, #16]
10002d0c:	9b23      	ldr	r3, [sp, #140]	; 0x8c
10002d0e:	9600      	str	r6, [sp, #0]
10002d10:	9701      	str	r7, [sp, #4]
10002d12:	9303      	str	r3, [sp, #12]
10002d14:	4643      	mov	r3, r8
10002d16:	9a0c      	ldr	r2, [sp, #48]	; 0x30
10002d18:	9302      	str	r3, [sp, #8]
10002d1a:	9907      	ldr	r1, [sp, #28]
10002d1c:	464b      	mov	r3, r9
10002d1e:	f7ff fcfd 	bl	1000271c <_etoa>
10002d22:	b017      	add	sp, #92	; 0x5c
10002d24:	bcf0      	pop	{r4, r5, r6, r7}
10002d26:	46bb      	mov	fp, r7
10002d28:	46b2      	mov	sl, r6
10002d2a:	46a9      	mov	r9, r5
10002d2c:	46a0      	mov	r8, r4
10002d2e:	bdf0      	pop	{r4, r5, r6, r7, pc}
10002d30:	9b24      	ldr	r3, [sp, #144]	; 0x90
10002d32:	075b      	lsls	r3, r3, #29
10002d34:	d40e      	bmi.n	10002d54 <_ftoa+0x1ec>
10002d36:	2203      	movs	r2, #3
10002d38:	4b69      	ldr	r3, [pc, #420]	; (10002ee0 <_ftoa+0x378>)
10002d3a:	9924      	ldr	r1, [sp, #144]	; 0x90
10002d3c:	9201      	str	r2, [sp, #4]
10002d3e:	9103      	str	r1, [sp, #12]
10002d40:	9923      	ldr	r1, [sp, #140]	; 0x8c
10002d42:	9102      	str	r1, [sp, #8]
10002d44:	9300      	str	r3, [sp, #0]
10002d46:	4658      	mov	r0, fp
10002d48:	464b      	mov	r3, r9
10002d4a:	9a0c      	ldr	r2, [sp, #48]	; 0x30
10002d4c:	9907      	ldr	r1, [sp, #28]
10002d4e:	f7ff fba1 	bl	10002494 <_out_rev>
10002d52:	e7e6      	b.n	10002d22 <_ftoa+0x1ba>
10002d54:	2204      	movs	r2, #4
10002d56:	4b63      	ldr	r3, [pc, #396]	; (10002ee4 <_ftoa+0x37c>)
10002d58:	e7ef      	b.n	10002d3a <_ftoa+0x1d2>
10002d5a:	003b      	movs	r3, r7
10002d5c:	0032      	movs	r2, r6
10002d5e:	2000      	movs	r0, #0
10002d60:	2100      	movs	r1, #0
10002d62:	f001 f914 	bl	10003f8e <__wrap___aeabi_dsub>
10002d66:	2301      	movs	r3, #1
10002d68:	0006      	movs	r6, r0
10002d6a:	000f      	movs	r7, r1
10002d6c:	930d      	str	r3, [sp, #52]	; 0x34
10002d6e:	e744      	b.n	10002bfa <_ftoa+0x92>
10002d70:	9b24      	ldr	r3, [sp, #144]	; 0x90
10002d72:	9303      	str	r3, [sp, #12]
10002d74:	9b23      	ldr	r3, [sp, #140]	; 0x8c
10002d76:	9302      	str	r3, [sp, #8]
10002d78:	2304      	movs	r3, #4
10002d7a:	9301      	str	r3, [sp, #4]
10002d7c:	4b5a      	ldr	r3, [pc, #360]	; (10002ee8 <_ftoa+0x380>)
10002d7e:	e7e1      	b.n	10002d44 <_ftoa+0x1dc>
10002d80:	0028      	movs	r0, r5
10002d82:	f001 f9a5 	bl	100040d0 <__wrap___aeabi_i2d>
10002d86:	0002      	movs	r2, r0
10002d88:	000b      	movs	r3, r1
10002d8a:	0030      	movs	r0, r6
10002d8c:	0039      	movs	r1, r7
10002d8e:	f001 f8fe 	bl	10003f8e <__wrap___aeabi_dsub>
10002d92:	4b52      	ldr	r3, [pc, #328]	; (10002edc <_ftoa+0x374>)
10002d94:	2200      	movs	r2, #0
10002d96:	0006      	movs	r6, r0
10002d98:	000f      	movs	r7, r1
10002d9a:	f001 f96b 	bl	10004074 <__wrap___aeabi_dcmplt>
10002d9e:	ab0e      	add	r3, sp, #56	; 0x38
10002da0:	4698      	mov	r8, r3
10002da2:	2800      	cmp	r0, #0
10002da4:	d10a      	bne.n	10002dbc <_ftoa+0x254>
10002da6:	2200      	movs	r2, #0
10002da8:	0030      	movs	r0, r6
10002daa:	0039      	movs	r1, r7
10002dac:	4b4b      	ldr	r3, [pc, #300]	; (10002edc <_ftoa+0x374>)
10002dae:	f001 f977 	bl	100040a0 <__wrap___aeabi_dcmpgt>
10002db2:	2800      	cmp	r0, #0
10002db4:	d102      	bne.n	10002dbc <_ftoa+0x254>
10002db6:	07eb      	lsls	r3, r5, #31
10002db8:	d500      	bpl.n	10002dbc <_ftoa+0x254>
10002dba:	3501      	adds	r5, #1
10002dbc:	2c20      	cmp	r4, #32
10002dbe:	d094      	beq.n	10002cea <_ftoa+0x182>
10002dc0:	aa08      	add	r2, sp, #32
10002dc2:	4694      	mov	ip, r2
10002dc4:	2317      	movs	r3, #23
10002dc6:	0028      	movs	r0, r5
10002dc8:	4463      	add	r3, ip
10002dca:	210a      	movs	r1, #10
10002dcc:	3401      	adds	r4, #1
10002dce:	191e      	adds	r6, r3, r4
10002dd0:	f000 fe7a 	bl	10003ac8 <__wrap___aeabi_idiv>
10002dd4:	3130      	adds	r1, #48	; 0x30
10002dd6:	0028      	movs	r0, r5
10002dd8:	7031      	strb	r1, [r6, #0]
10002dda:	210a      	movs	r1, #10
10002ddc:	f000 fe74 	bl	10003ac8 <__wrap___aeabi_idiv>
10002de0:	1e05      	subs	r5, r0, #0
10002de2:	d1eb      	bne.n	10002dbc <_ftoa+0x254>
10002de4:	2303      	movs	r3, #3
10002de6:	9a24      	ldr	r2, [sp, #144]	; 0x90
10002de8:	4013      	ands	r3, r2
10002dea:	2b01      	cmp	r3, #1
10002dec:	d01b      	beq.n	10002e26 <_ftoa+0x2be>
10002dee:	2c20      	cmp	r4, #32
10002df0:	d100      	bne.n	10002df4 <_ftoa+0x28c>
10002df2:	e780      	b.n	10002cf6 <_ftoa+0x18e>
10002df4:	9b0d      	ldr	r3, [sp, #52]	; 0x34
10002df6:	2b00      	cmp	r3, #0
10002df8:	d035      	beq.n	10002e66 <_ftoa+0x2fe>
10002dfa:	222d      	movs	r2, #45	; 0x2d
10002dfc:	4641      	mov	r1, r8
10002dfe:	1c63      	adds	r3, r4, #1
10002e00:	550a      	strb	r2, [r1, r4]
10002e02:	e779      	b.n	10002cf8 <_ftoa+0x190>
10002e04:	2200      	movs	r2, #0
10002e06:	980a      	ldr	r0, [sp, #40]	; 0x28
10002e08:	990b      	ldr	r1, [sp, #44]	; 0x2c
10002e0a:	4b34      	ldr	r3, [pc, #208]	; (10002edc <_ftoa+0x374>)
10002e0c:	f001 f932 	bl	10004074 <__wrap___aeabi_dcmplt>
10002e10:	2800      	cmp	r0, #0
10002e12:	d000      	beq.n	10002e16 <_ftoa+0x2ae>
10002e14:	e746      	b.n	10002ca4 <_ftoa+0x13c>
10002e16:	4653      	mov	r3, sl
10002e18:	2b00      	cmp	r3, #0
10002e1a:	d151      	bne.n	10002ec0 <_ftoa+0x358>
10002e1c:	2301      	movs	r3, #1
10002e1e:	469c      	mov	ip, r3
10002e20:	44e2      	add	sl, ip
10002e22:	e73f      	b.n	10002ca4 <_ftoa+0x13c>
10002e24:	2420      	movs	r4, #32
10002e26:	9b23      	ldr	r3, [sp, #140]	; 0x8c
10002e28:	2b00      	cmp	r3, #0
10002e2a:	d0e0      	beq.n	10002dee <_ftoa+0x286>
10002e2c:	9b0d      	ldr	r3, [sp, #52]	; 0x34
10002e2e:	2b00      	cmp	r3, #0
10002e30:	d103      	bne.n	10002e3a <_ftoa+0x2d2>
10002e32:	9a24      	ldr	r2, [sp, #144]	; 0x90
10002e34:	330c      	adds	r3, #12
10002e36:	4213      	tst	r3, r2
10002e38:	d002      	beq.n	10002e40 <_ftoa+0x2d8>
10002e3a:	9b23      	ldr	r3, [sp, #140]	; 0x8c
10002e3c:	3b01      	subs	r3, #1
10002e3e:	9323      	str	r3, [sp, #140]	; 0x8c
10002e40:	9b23      	ldr	r3, [sp, #140]	; 0x8c
10002e42:	42a3      	cmp	r3, r4
10002e44:	d9d3      	bls.n	10002dee <_ftoa+0x286>
10002e46:	ab08      	add	r3, sp, #32
10002e48:	469c      	mov	ip, r3
10002e4a:	2217      	movs	r2, #23
10002e4c:	2330      	movs	r3, #48	; 0x30
10002e4e:	4462      	add	r2, ip
10002e50:	2c20      	cmp	r4, #32
10002e52:	d100      	bne.n	10002e56 <_ftoa+0x2ee>
10002e54:	e74f      	b.n	10002cf6 <_ftoa+0x18e>
10002e56:	9923      	ldr	r1, [sp, #140]	; 0x8c
10002e58:	3401      	adds	r4, #1
10002e5a:	5513      	strb	r3, [r2, r4]
10002e5c:	428c      	cmp	r4, r1
10002e5e:	d0c6      	beq.n	10002dee <_ftoa+0x286>
10002e60:	2c20      	cmp	r4, #32
10002e62:	d1f8      	bne.n	10002e56 <_ftoa+0x2ee>
10002e64:	e747      	b.n	10002cf6 <_ftoa+0x18e>
10002e66:	9b24      	ldr	r3, [sp, #144]	; 0x90
10002e68:	075b      	lsls	r3, r3, #29
10002e6a:	d424      	bmi.n	10002eb6 <_ftoa+0x34e>
10002e6c:	9a24      	ldr	r2, [sp, #144]	; 0x90
10002e6e:	0023      	movs	r3, r4
10002e70:	0712      	lsls	r2, r2, #28
10002e72:	d400      	bmi.n	10002e76 <_ftoa+0x30e>
10002e74:	e740      	b.n	10002cf8 <_ftoa+0x190>
10002e76:	2220      	movs	r2, #32
10002e78:	4641      	mov	r1, r8
10002e7a:	3301      	adds	r3, #1
10002e7c:	550a      	strb	r2, [r1, r4]
10002e7e:	e73b      	b.n	10002cf8 <_ftoa+0x190>
10002e80:	4657      	mov	r7, sl
10002e82:	9d08      	ldr	r5, [sp, #32]
10002e84:	2c20      	cmp	r4, #32
10002e86:	d100      	bne.n	10002e8a <_ftoa+0x322>
10002e88:	e72d      	b.n	10002ce6 <_ftoa+0x17e>
10002e8a:	0022      	movs	r2, r4
10002e8c:	2130      	movs	r1, #48	; 0x30
10002e8e:	4640      	mov	r0, r8
10002e90:	2f00      	cmp	r7, #0
10002e92:	d009      	beq.n	10002ea8 <_ftoa+0x340>
10002e94:	3201      	adds	r2, #1
10002e96:	54b1      	strb	r1, [r6, r2]
10002e98:	2a20      	cmp	r2, #32
10002e9a:	d100      	bne.n	10002e9e <_ftoa+0x336>
10002e9c:	e723      	b.n	10002ce6 <_ftoa+0x17e>
10002e9e:	43d3      	mvns	r3, r2
10002ea0:	191b      	adds	r3, r3, r4
10002ea2:	181b      	adds	r3, r3, r0
10002ea4:	2b00      	cmp	r3, #0
10002ea6:	d1f5      	bne.n	10002e94 <_ftoa+0x32c>
10002ea8:	ab0e      	add	r3, sp, #56	; 0x38
10002eaa:	4698      	mov	r8, r3
10002eac:	232e      	movs	r3, #46	; 0x2e
10002eae:	4641      	mov	r1, r8
10002eb0:	1c54      	adds	r4, r2, #1
10002eb2:	548b      	strb	r3, [r1, r2]
10002eb4:	e782      	b.n	10002dbc <_ftoa+0x254>
10002eb6:	222b      	movs	r2, #43	; 0x2b
10002eb8:	4641      	mov	r1, r8
10002eba:	1c63      	adds	r3, r4, #1
10002ebc:	550a      	strb	r2, [r1, r4]
10002ebe:	e71b      	b.n	10002cf8 <_ftoa+0x190>
10002ec0:	07db      	lsls	r3, r3, #31
10002ec2:	d400      	bmi.n	10002ec6 <_ftoa+0x35e>
10002ec4:	e6ee      	b.n	10002ca4 <_ftoa+0x13c>
10002ec6:	e7a9      	b.n	10002e1c <_ftoa+0x2b4>
10002ec8:	ffefffff 	.word	0xffefffff
10002ecc:	7fefffff 	.word	0x7fefffff
10002ed0:	41cdcd65 	.word	0x41cdcd65
10002ed4:	c1cdcd65 	.word	0xc1cdcd65
10002ed8:	10007420 	.word	0x10007420
10002edc:	3fe00000 	.word	0x3fe00000
10002ee0:	10007224 	.word	0x10007224
10002ee4:	10007228 	.word	0x10007228
10002ee8:	10007234 	.word	0x10007234
10002eec:	9b24      	ldr	r3, [sp, #144]	; 0x90
10002eee:	9303      	str	r3, [sp, #12]
10002ef0:	9b23      	ldr	r3, [sp, #140]	; 0x8c
10002ef2:	9302      	str	r3, [sp, #8]
10002ef4:	2303      	movs	r3, #3
10002ef6:	9301      	str	r3, [sp, #4]
10002ef8:	4b00      	ldr	r3, [pc, #0]	; (10002efc <_ftoa+0x394>)
10002efa:	e723      	b.n	10002d44 <_ftoa+0x1dc>
10002efc:	10007230 	.word	0x10007230

10002f00 <_vsnprintf>:
10002f00:	b5f0      	push	{r4, r5, r6, r7, lr}
10002f02:	46de      	mov	lr, fp
10002f04:	464e      	mov	r6, r9
10002f06:	4657      	mov	r7, sl
10002f08:	4645      	mov	r5, r8
10002f0a:	b5e0      	push	{r5, r6, r7, lr}
10002f0c:	b09f      	sub	sp, #124	; 0x7c
10002f0e:	001c      	movs	r4, r3
10002f10:	9b28      	ldr	r3, [sp, #160]	; 0xa0
10002f12:	4691      	mov	r9, r2
10002f14:	9309      	str	r3, [sp, #36]	; 0x24
10002f16:	4ac9      	ldr	r2, [pc, #804]	; (1000323c <_vsnprintf+0x33c>)
10002f18:	4bc9      	ldr	r3, [pc, #804]	; (10003240 <_vsnprintf+0x340>)
10002f1a:	468b      	mov	fp, r1
10002f1c:	9008      	str	r0, [sp, #32]
10002f1e:	601a      	str	r2, [r3, #0]
10002f20:	2900      	cmp	r1, #0
10002f22:	d100      	bne.n	10002f26 <_vsnprintf+0x26>
10002f24:	e218      	b.n	10003358 <_vsnprintf+0x458>
10002f26:	2300      	movs	r3, #0
10002f28:	7820      	ldrb	r0, [r4, #0]
10002f2a:	469a      	mov	sl, r3
10002f2c:	2800      	cmp	r0, #0
10002f2e:	d100      	bne.n	10002f32 <_vsnprintf+0x32>
10002f30:	e21a      	b.n	10003368 <_vsnprintf+0x468>
10002f32:	0026      	movs	r6, r4
10002f34:	001d      	movs	r5, r3
10002f36:	465c      	mov	r4, fp
10002f38:	e00a      	b.n	10002f50 <_vsnprintf+0x50>
10002f3a:	002a      	movs	r2, r5
10002f3c:	1c6f      	adds	r7, r5, #1
10002f3e:	464b      	mov	r3, r9
10002f40:	9d08      	ldr	r5, [sp, #32]
10002f42:	0021      	movs	r1, r4
10002f44:	47a8      	blx	r5
10002f46:	003d      	movs	r5, r7
10002f48:	3601      	adds	r6, #1
10002f4a:	7830      	ldrb	r0, [r6, #0]
10002f4c:	2800      	cmp	r0, #0
10002f4e:	d070      	beq.n	10003032 <_vsnprintf+0x132>
10002f50:	2825      	cmp	r0, #37	; 0x25
10002f52:	d1f2      	bne.n	10002f3a <_vsnprintf+0x3a>
10002f54:	2310      	movs	r3, #16
10002f56:	469b      	mov	fp, r3
10002f58:	3b08      	subs	r3, #8
10002f5a:	469a      	mov	sl, r3
10002f5c:	3b04      	subs	r3, #4
10002f5e:	4698      	mov	r8, r3
10002f60:	3b02      	subs	r3, #2
10002f62:	2100      	movs	r1, #0
10002f64:	469c      	mov	ip, r3
10002f66:	1c72      	adds	r2, r6, #1
10002f68:	7810      	ldrb	r0, [r2, #0]
10002f6a:	0016      	movs	r6, r2
10002f6c:	0003      	movs	r3, r0
10002f6e:	3b20      	subs	r3, #32
10002f70:	b2db      	uxtb	r3, r3
10002f72:	2b10      	cmp	r3, #16
10002f74:	d803      	bhi.n	10002f7e <_vsnprintf+0x7e>
10002f76:	4fb3      	ldr	r7, [pc, #716]	; (10003244 <_vsnprintf+0x344>)
10002f78:	009b      	lsls	r3, r3, #2
10002f7a:	58fb      	ldr	r3, [r7, r3]
10002f7c:	469f      	mov	pc, r3
10002f7e:	0003      	movs	r3, r0
10002f80:	3b30      	subs	r3, #48	; 0x30
10002f82:	2b09      	cmp	r3, #9
10002f84:	d932      	bls.n	10002fec <_vsnprintf+0xec>
10002f86:	2300      	movs	r3, #0
10002f88:	930a      	str	r3, [sp, #40]	; 0x28
10002f8a:	282a      	cmp	r0, #42	; 0x2a
10002f8c:	d068      	beq.n	10003060 <_vsnprintf+0x160>
10002f8e:	2300      	movs	r3, #0
10002f90:	4698      	mov	r8, r3
10002f92:	282e      	cmp	r0, #46	; 0x2e
10002f94:	d03e      	beq.n	10003014 <_vsnprintf+0x114>
10002f96:	0003      	movs	r3, r0
10002f98:	3b68      	subs	r3, #104	; 0x68
10002f9a:	b2db      	uxtb	r3, r3
10002f9c:	2b12      	cmp	r3, #18
10002f9e:	d81c      	bhi.n	10002fda <_vsnprintf+0xda>
10002fa0:	4aa9      	ldr	r2, [pc, #676]	; (10003248 <_vsnprintf+0x348>)
10002fa2:	009b      	lsls	r3, r3, #2
10002fa4:	58d3      	ldr	r3, [r2, r3]
10002fa6:	469f      	mov	pc, r3
10002fa8:	2301      	movs	r3, #1
10002faa:	3201      	adds	r2, #1
10002fac:	4319      	orrs	r1, r3
10002fae:	e7db      	b.n	10002f68 <_vsnprintf+0x68>
10002fb0:	4663      	mov	r3, ip
10002fb2:	3201      	adds	r2, #1
10002fb4:	4319      	orrs	r1, r3
10002fb6:	e7d7      	b.n	10002f68 <_vsnprintf+0x68>
10002fb8:	4643      	mov	r3, r8
10002fba:	3201      	adds	r2, #1
10002fbc:	4319      	orrs	r1, r3
10002fbe:	e7d3      	b.n	10002f68 <_vsnprintf+0x68>
10002fc0:	465b      	mov	r3, fp
10002fc2:	3201      	adds	r2, #1
10002fc4:	4319      	orrs	r1, r3
10002fc6:	e7cf      	b.n	10002f68 <_vsnprintf+0x68>
10002fc8:	4653      	mov	r3, sl
10002fca:	3201      	adds	r2, #1
10002fcc:	4319      	orrs	r1, r3
10002fce:	e7cb      	b.n	10002f68 <_vsnprintf+0x68>
10002fd0:	2380      	movs	r3, #128	; 0x80
10002fd2:	005b      	lsls	r3, r3, #1
10002fd4:	7870      	ldrb	r0, [r6, #1]
10002fd6:	4319      	orrs	r1, r3
10002fd8:	3601      	adds	r6, #1
10002fda:	0003      	movs	r3, r0
10002fdc:	3b25      	subs	r3, #37	; 0x25
10002fde:	b2db      	uxtb	r3, r3
10002fe0:	2b53      	cmp	r3, #83	; 0x53
10002fe2:	d8aa      	bhi.n	10002f3a <_vsnprintf+0x3a>
10002fe4:	4a99      	ldr	r2, [pc, #612]	; (1000324c <_vsnprintf+0x34c>)
10002fe6:	009b      	lsls	r3, r3, #2
10002fe8:	58d3      	ldr	r3, [r2, r3]
10002fea:	469f      	mov	pc, r3
10002fec:	2700      	movs	r7, #0
10002fee:	0003      	movs	r3, r0
10002ff0:	00b8      	lsls	r0, r7, #2
10002ff2:	19c0      	adds	r0, r0, r7
10002ff4:	3601      	adds	r6, #1
10002ff6:	0040      	lsls	r0, r0, #1
10002ff8:	18c0      	adds	r0, r0, r3
10002ffa:	7833      	ldrb	r3, [r6, #0]
10002ffc:	3830      	subs	r0, #48	; 0x30
10002ffe:	001a      	movs	r2, r3
10003000:	3a30      	subs	r2, #48	; 0x30
10003002:	0007      	movs	r7, r0
10003004:	2a09      	cmp	r2, #9
10003006:	d9f3      	bls.n	10002ff0 <_vsnprintf+0xf0>
10003008:	900a      	str	r0, [sp, #40]	; 0x28
1000300a:	0018      	movs	r0, r3
1000300c:	2300      	movs	r3, #0
1000300e:	4698      	mov	r8, r3
10003010:	282e      	cmp	r0, #46	; 0x2e
10003012:	d1c0      	bne.n	10002f96 <_vsnprintf+0x96>
10003014:	2380      	movs	r3, #128	; 0x80
10003016:	7870      	ldrb	r0, [r6, #1]
10003018:	00db      	lsls	r3, r3, #3
1000301a:	4319      	orrs	r1, r3
1000301c:	0003      	movs	r3, r0
1000301e:	3b30      	subs	r3, #48	; 0x30
10003020:	1c72      	adds	r2, r6, #1
10003022:	2b09      	cmp	r3, #9
10003024:	d800      	bhi.n	10003028 <_vsnprintf+0x128>
10003026:	e1a1      	b.n	1000336c <_vsnprintf+0x46c>
10003028:	282a      	cmp	r0, #42	; 0x2a
1000302a:	d100      	bne.n	1000302e <_vsnprintf+0x12e>
1000302c:	e1b2      	b.n	10003394 <_vsnprintf+0x494>
1000302e:	0016      	movs	r6, r2
10003030:	e7b1      	b.n	10002f96 <_vsnprintf+0x96>
10003032:	46a3      	mov	fp, r4
10003034:	46aa      	mov	sl, r5
10003036:	002c      	movs	r4, r5
10003038:	45d1      	cmp	r9, sl
1000303a:	d803      	bhi.n	10003044 <_vsnprintf+0x144>
1000303c:	2301      	movs	r3, #1
1000303e:	425b      	negs	r3, r3
10003040:	444b      	add	r3, r9
10003042:	469a      	mov	sl, r3
10003044:	464b      	mov	r3, r9
10003046:	4652      	mov	r2, sl
10003048:	4659      	mov	r1, fp
1000304a:	2000      	movs	r0, #0
1000304c:	9d08      	ldr	r5, [sp, #32]
1000304e:	47a8      	blx	r5
10003050:	0020      	movs	r0, r4
10003052:	b01f      	add	sp, #124	; 0x7c
10003054:	bcf0      	pop	{r4, r5, r6, r7}
10003056:	46bb      	mov	fp, r7
10003058:	46b2      	mov	sl, r6
1000305a:	46a9      	mov	r9, r5
1000305c:	46a0      	mov	r8, r4
1000305e:	bdf0      	pop	{r4, r5, r6, r7, pc}
10003060:	9b09      	ldr	r3, [sp, #36]	; 0x24
10003062:	cb40      	ldmia	r3!, {r6}
10003064:	960a      	str	r6, [sp, #40]	; 0x28
10003066:	2e00      	cmp	r6, #0
10003068:	db03      	blt.n	10003072 <_vsnprintf+0x172>
1000306a:	7850      	ldrb	r0, [r2, #1]
1000306c:	9309      	str	r3, [sp, #36]	; 0x24
1000306e:	1c56      	adds	r6, r2, #1
10003070:	e78d      	b.n	10002f8e <_vsnprintf+0x8e>
10003072:	3828      	subs	r0, #40	; 0x28
10003074:	4301      	orrs	r1, r0
10003076:	4270      	negs	r0, r6
10003078:	900a      	str	r0, [sp, #40]	; 0x28
1000307a:	9309      	str	r3, [sp, #36]	; 0x24
1000307c:	7850      	ldrb	r0, [r2, #1]
1000307e:	1c56      	adds	r6, r2, #1
10003080:	e785      	b.n	10002f8e <_vsnprintf+0x8e>
10003082:	2878      	cmp	r0, #120	; 0x78
10003084:	d100      	bne.n	10003088 <_vsnprintf+0x188>
10003086:	e1df      	b.n	10003448 <_vsnprintf+0x548>
10003088:	2858      	cmp	r0, #88	; 0x58
1000308a:	d100      	bne.n	1000308e <_vsnprintf+0x18e>
1000308c:	e24c      	b.n	10003528 <_vsnprintf+0x628>
1000308e:	286f      	cmp	r0, #111	; 0x6f
10003090:	d100      	bne.n	10003094 <_vsnprintf+0x194>
10003092:	e34f      	b.n	10003734 <_vsnprintf+0x834>
10003094:	2862      	cmp	r0, #98	; 0x62
10003096:	d101      	bne.n	1000309c <_vsnprintf+0x19c>
10003098:	f000 fc30 	bl	100038fc <_vsnprintf+0x9fc>
1000309c:	2310      	movs	r3, #16
1000309e:	000a      	movs	r2, r1
100030a0:	439a      	bics	r2, r3
100030a2:	920b      	str	r2, [sp, #44]	; 0x2c
100030a4:	2869      	cmp	r0, #105	; 0x69
100030a6:	d001      	beq.n	100030ac <_vsnprintf+0x1ac>
100030a8:	f000 fca9 	bl	100039fe <_vsnprintf+0xafe>
100030ac:	230a      	movs	r3, #10
100030ae:	930c      	str	r3, [sp, #48]	; 0x30
100030b0:	054b      	lsls	r3, r1, #21
100030b2:	d500      	bpl.n	100030b6 <_vsnprintf+0x1b6>
100030b4:	e1d0      	b.n	10003458 <_vsnprintf+0x558>
100030b6:	9a0b      	ldr	r2, [sp, #44]	; 0x2c
100030b8:	2380      	movs	r3, #128	; 0x80
100030ba:	0011      	movs	r1, r2
100030bc:	009b      	lsls	r3, r3, #2
100030be:	4019      	ands	r1, r3
100030c0:	468b      	mov	fp, r1
100030c2:	421a      	tst	r2, r3
100030c4:	d000      	beq.n	100030c8 <_vsnprintf+0x1c8>
100030c6:	e2a1      	b.n	1000360c <_vsnprintf+0x70c>
100030c8:	2380      	movs	r3, #128	; 0x80
100030ca:	0011      	movs	r1, r2
100030cc:	005b      	lsls	r3, r3, #1
100030ce:	4019      	ands	r1, r3
100030d0:	468a      	mov	sl, r1
100030d2:	421a      	tst	r2, r3
100030d4:	d000      	beq.n	100030d8 <_vsnprintf+0x1d8>
100030d6:	e3b6      	b.n	10003846 <_vsnprintf+0x946>
100030d8:	0013      	movs	r3, r2
100030da:	065b      	lsls	r3, r3, #25
100030dc:	d500      	bpl.n	100030e0 <_vsnprintf+0x1e0>
100030de:	e2ed      	b.n	100036bc <_vsnprintf+0x7bc>
100030e0:	0013      	movs	r3, r2
100030e2:	9909      	ldr	r1, [sp, #36]	; 0x24
100030e4:	061b      	lsls	r3, r3, #24
100030e6:	d401      	bmi.n	100030ec <_vsnprintf+0x1ec>
100030e8:	f000 fc76 	bl	100039d8 <_vsnprintf+0xad8>
100030ec:	c908      	ldmia	r1!, {r3}
100030ee:	b21b      	sxth	r3, r3
100030f0:	17d8      	asrs	r0, r3, #31
100030f2:	181a      	adds	r2, r3, r0
100030f4:	4042      	eors	r2, r0
100030f6:	b292      	uxth	r2, r2
100030f8:	9109      	str	r1, [sp, #36]	; 0x24
100030fa:	4693      	mov	fp, r2
100030fc:	0fda      	lsrs	r2, r3, #31
100030fe:	9212      	str	r2, [sp, #72]	; 0x48
10003100:	2b00      	cmp	r3, #0
10003102:	d109      	bne.n	10003118 <_vsnprintf+0x218>
10003104:	2380      	movs	r3, #128	; 0x80
10003106:	2210      	movs	r2, #16
10003108:	990b      	ldr	r1, [sp, #44]	; 0x2c
1000310a:	00db      	lsls	r3, r3, #3
1000310c:	400b      	ands	r3, r1
1000310e:	4391      	bics	r1, r2
10003110:	910b      	str	r1, [sp, #44]	; 0x2c
10003112:	2b00      	cmp	r3, #0
10003114:	d000      	beq.n	10003118 <_vsnprintf+0x218>
10003116:	e2e4      	b.n	100036e2 <_vsnprintf+0x7e2>
10003118:	9a0b      	ldr	r2, [sp, #44]	; 0x2c
1000311a:	2361      	movs	r3, #97	; 0x61
1000311c:	0692      	lsls	r2, r2, #26
1000311e:	d500      	bpl.n	10003122 <_vsnprintf+0x222>
10003120:	2341      	movs	r3, #65	; 0x41
10003122:	a90e      	add	r1, sp, #56	; 0x38
10003124:	221f      	movs	r2, #31
10003126:	468c      	mov	ip, r1
10003128:	b2db      	uxtb	r3, r3
1000312a:	4462      	add	r2, ip
1000312c:	3b0a      	subs	r3, #10
1000312e:	465f      	mov	r7, fp
10003130:	9513      	str	r5, [sp, #76]	; 0x4c
10003132:	46a3      	mov	fp, r4
10003134:	4655      	mov	r5, sl
10003136:	9c0c      	ldr	r4, [sp, #48]	; 0x30
10003138:	46b2      	mov	sl, r6
1000313a:	930d      	str	r3, [sp, #52]	; 0x34
1000313c:	0016      	movs	r6, r2
1000313e:	e00a      	b.n	10003156 <_vsnprintf+0x256>
10003140:	3330      	adds	r3, #48	; 0x30
10003142:	b2db      	uxtb	r3, r3
10003144:	3501      	adds	r5, #1
10003146:	5573      	strb	r3, [r6, r5]
10003148:	42a7      	cmp	r7, r4
1000314a:	d200      	bcs.n	1000314e <_vsnprintf+0x24e>
1000314c:	e2ed      	b.n	1000372a <_vsnprintf+0x82a>
1000314e:	2d20      	cmp	r5, #32
10003150:	d100      	bne.n	10003154 <_vsnprintf+0x254>
10003152:	e2ea      	b.n	1000372a <_vsnprintf+0x82a>
10003154:	0007      	movs	r7, r0
10003156:	0021      	movs	r1, r4
10003158:	0038      	movs	r0, r7
1000315a:	f000 fcdd 	bl	10003b18 <__wrap___aeabi_uidiv>
1000315e:	b2cb      	uxtb	r3, r1
10003160:	2909      	cmp	r1, #9
10003162:	d9ed      	bls.n	10003140 <_vsnprintf+0x240>
10003164:	9a0d      	ldr	r2, [sp, #52]	; 0x34
10003166:	4694      	mov	ip, r2
10003168:	4463      	add	r3, ip
1000316a:	b2db      	uxtb	r3, r3
1000316c:	e7ea      	b.n	10003144 <_vsnprintf+0x244>
1000316e:	2380      	movs	r3, #128	; 0x80
10003170:	009b      	lsls	r3, r3, #2
10003172:	7870      	ldrb	r0, [r6, #1]
10003174:	4319      	orrs	r1, r3
10003176:	3601      	adds	r6, #1
10003178:	e72f      	b.n	10002fda <_vsnprintf+0xda>
1000317a:	7870      	ldrb	r0, [r6, #1]
1000317c:	2868      	cmp	r0, #104	; 0x68
1000317e:	d100      	bne.n	10003182 <_vsnprintf+0x282>
10003180:	e1cd      	b.n	1000351e <_vsnprintf+0x61e>
10003182:	2380      	movs	r3, #128	; 0x80
10003184:	3601      	adds	r6, #1
10003186:	4319      	orrs	r1, r3
10003188:	e727      	b.n	10002fda <_vsnprintf+0xda>
1000318a:	7870      	ldrb	r0, [r6, #1]
1000318c:	286c      	cmp	r0, #108	; 0x6c
1000318e:	d100      	bne.n	10003192 <_vsnprintf+0x292>
10003190:	e1bf      	b.n	10003512 <_vsnprintf+0x612>
10003192:	2380      	movs	r3, #128	; 0x80
10003194:	005b      	lsls	r3, r3, #1
10003196:	4319      	orrs	r1, r3
10003198:	3601      	adds	r6, #1
1000319a:	e71e      	b.n	10002fda <_vsnprintf+0xda>
1000319c:	2846      	cmp	r0, #70	; 0x46
1000319e:	d100      	bne.n	100031a2 <_vsnprintf+0x2a2>
100031a0:	e19b      	b.n	100034da <_vsnprintf+0x5da>
100031a2:	2207      	movs	r2, #7
100031a4:	9b09      	ldr	r3, [sp, #36]	; 0x24
100031a6:	9104      	str	r1, [sp, #16]
100031a8:	3307      	adds	r3, #7
100031aa:	4393      	bics	r3, r2
100031ac:	9a0a      	ldr	r2, [sp, #40]	; 0x28
100031ae:	0019      	movs	r1, r3
100031b0:	9203      	str	r2, [sp, #12]
100031b2:	4642      	mov	r2, r8
100031b4:	9202      	str	r2, [sp, #8]
100031b6:	c90c      	ldmia	r1!, {r2, r3}
100031b8:	9808      	ldr	r0, [sp, #32]
100031ba:	9200      	str	r2, [sp, #0]
100031bc:	9301      	str	r3, [sp, #4]
100031be:	9109      	str	r1, [sp, #36]	; 0x24
100031c0:	002a      	movs	r2, r5
100031c2:	464b      	mov	r3, r9
100031c4:	0021      	movs	r1, r4
100031c6:	f7ff fccf 	bl	10002b68 <_ftoa>
100031ca:	3601      	adds	r6, #1
100031cc:	0005      	movs	r5, r0
100031ce:	e6bc      	b.n	10002f4a <_vsnprintf+0x4a>
100031d0:	002a      	movs	r2, r5
100031d2:	1c6f      	adds	r7, r5, #1
100031d4:	464b      	mov	r3, r9
100031d6:	9d08      	ldr	r5, [sp, #32]
100031d8:	0021      	movs	r1, r4
100031da:	2025      	movs	r0, #37	; 0x25
100031dc:	47a8      	blx	r5
100031de:	3601      	adds	r6, #1
100031e0:	003d      	movs	r5, r7
100031e2:	e6b2      	b.n	10002f4a <_vsnprintf+0x4a>
100031e4:	078b      	lsls	r3, r1, #30
100031e6:	d400      	bmi.n	100031ea <_vsnprintf+0x2ea>
100031e8:	e1ad      	b.n	10003546 <_vsnprintf+0x646>
100031ea:	9b09      	ldr	r3, [sp, #36]	; 0x24
100031ec:	002a      	movs	r2, r5
100031ee:	469a      	mov	sl, r3
100031f0:	1c6b      	adds	r3, r5, #1
100031f2:	4698      	mov	r8, r3
100031f4:	4653      	mov	r3, sl
100031f6:	cb01      	ldmia	r3!, {r0}
100031f8:	0021      	movs	r1, r4
100031fa:	469a      	mov	sl, r3
100031fc:	9f08      	ldr	r7, [sp, #32]
100031fe:	464b      	mov	r3, r9
10003200:	b2c0      	uxtb	r0, r0
10003202:	47b8      	blx	r7
10003204:	9b0a      	ldr	r3, [sp, #40]	; 0x28
10003206:	469c      	mov	ip, r3
10003208:	4465      	add	r5, ip
1000320a:	2b01      	cmp	r3, #1
1000320c:	d800      	bhi.n	10003210 <_vsnprintf+0x310>
1000320e:	e286      	b.n	1000371e <_vsnprintf+0x81e>
10003210:	9b08      	ldr	r3, [sp, #32]
10003212:	4647      	mov	r7, r8
10003214:	46b0      	mov	r8, r6
10003216:	0026      	movs	r6, r4
10003218:	464c      	mov	r4, r9
1000321a:	4699      	mov	r9, r3
1000321c:	003a      	movs	r2, r7
1000321e:	0023      	movs	r3, r4
10003220:	3701      	adds	r7, #1
10003222:	0031      	movs	r1, r6
10003224:	2020      	movs	r0, #32
10003226:	47c8      	blx	r9
10003228:	42af      	cmp	r7, r5
1000322a:	d1f7      	bne.n	1000321c <_vsnprintf+0x31c>
1000322c:	46a1      	mov	r9, r4
1000322e:	4653      	mov	r3, sl
10003230:	0034      	movs	r4, r6
10003232:	4646      	mov	r6, r8
10003234:	9309      	str	r3, [sp, #36]	; 0x24
10003236:	3601      	adds	r6, #1
10003238:	e687      	b.n	10002f4a <_vsnprintf+0x4a>
1000323a:	46c0      	nop			; (mov r8, r8)
1000323c:	10002f01 	.word	0x10002f01
10003240:	20001c40 	.word	0x20001c40
10003244:	1000723c 	.word	0x1000723c
10003248:	10007280 	.word	0x10007280
1000324c:	100072cc 	.word	0x100072cc
10003250:	9b09      	ldr	r3, [sp, #36]	; 0x24
10003252:	cb04      	ldmia	r3!, {r2}
10003254:	469b      	mov	fp, r3
10003256:	4643      	mov	r3, r8
10003258:	9209      	str	r2, [sp, #36]	; 0x24
1000325a:	2b00      	cmp	r3, #0
1000325c:	d100      	bne.n	10003260 <_vsnprintf+0x360>
1000325e:	e0c6      	b.n	100033ee <_vsnprintf+0x4ee>
10003260:	7813      	ldrb	r3, [r2, #0]
10003262:	469c      	mov	ip, r3
10003264:	2b00      	cmp	r3, #0
10003266:	d100      	bne.n	1000326a <_vsnprintf+0x36a>
10003268:	e3bd      	b.n	100039e6 <_vsnprintf+0xae6>
1000326a:	4643      	mov	r3, r8
1000326c:	3b01      	subs	r3, #1
1000326e:	9a09      	ldr	r2, [sp, #36]	; 0x24
10003270:	3301      	adds	r3, #1
10003272:	18d0      	adds	r0, r2, r3
10003274:	9f0a      	ldr	r7, [sp, #40]	; 0x28
10003276:	0013      	movs	r3, r2
10003278:	e001      	b.n	1000327e <_vsnprintf+0x37e>
1000327a:	4283      	cmp	r3, r0
1000327c:	d003      	beq.n	10003286 <_vsnprintf+0x386>
1000327e:	785a      	ldrb	r2, [r3, #1]
10003280:	3301      	adds	r3, #1
10003282:	2a00      	cmp	r2, #0
10003284:	d1f9      	bne.n	1000327a <_vsnprintf+0x37a>
10003286:	9a09      	ldr	r2, [sp, #36]	; 0x24
10003288:	970a      	str	r7, [sp, #40]	; 0x28
1000328a:	1a9b      	subs	r3, r3, r2
1000328c:	930b      	str	r3, [sp, #44]	; 0x2c
1000328e:	2380      	movs	r3, #128	; 0x80
10003290:	000a      	movs	r2, r1
10003292:	00db      	lsls	r3, r3, #3
10003294:	401a      	ands	r2, r3
10003296:	920c      	str	r2, [sp, #48]	; 0x30
10003298:	4219      	tst	r1, r3
1000329a:	d004      	beq.n	100032a6 <_vsnprintf+0x3a6>
1000329c:	9b0b      	ldr	r3, [sp, #44]	; 0x2c
1000329e:	4543      	cmp	r3, r8
100032a0:	d901      	bls.n	100032a6 <_vsnprintf+0x3a6>
100032a2:	4643      	mov	r3, r8
100032a4:	930b      	str	r3, [sp, #44]	; 0x2c
100032a6:	2302      	movs	r3, #2
100032a8:	001a      	movs	r2, r3
100032aa:	400a      	ands	r2, r1
100032ac:	920d      	str	r2, [sp, #52]	; 0x34
100032ae:	420b      	tst	r3, r1
100032b0:	d100      	bne.n	100032b4 <_vsnprintf+0x3b4>
100032b2:	e187      	b.n	100035c4 <_vsnprintf+0x6c4>
100032b4:	4660      	mov	r0, ip
100032b6:	2800      	cmp	r0, #0
100032b8:	d100      	bne.n	100032bc <_vsnprintf+0x3bc>
100032ba:	e168      	b.n	1000358e <_vsnprintf+0x68e>
100032bc:	9b0c      	ldr	r3, [sp, #48]	; 0x30
100032be:	2b00      	cmp	r3, #0
100032c0:	d100      	bne.n	100032c4 <_vsnprintf+0x3c4>
100032c2:	e10d      	b.n	100034e0 <_vsnprintf+0x5e0>
100032c4:	44a8      	add	r8, r5
100032c6:	46c2      	mov	sl, r8
100032c8:	9b09      	ldr	r3, [sp, #36]	; 0x24
100032ca:	4657      	mov	r7, sl
100032cc:	1b5b      	subs	r3, r3, r5
100032ce:	4698      	mov	r8, r3
100032d0:	9b08      	ldr	r3, [sp, #32]
100032d2:	46b2      	mov	sl, r6
100032d4:	002a      	movs	r2, r5
100032d6:	0026      	movs	r6, r4
100032d8:	464c      	mov	r4, r9
100032da:	4699      	mov	r9, r3
100032dc:	e009      	b.n	100032f2 <_vsnprintf+0x3f2>
100032de:	0023      	movs	r3, r4
100032e0:	0031      	movs	r1, r6
100032e2:	1c55      	adds	r5, r2, #1
100032e4:	47c8      	blx	r9
100032e6:	4643      	mov	r3, r8
100032e8:	5d58      	ldrb	r0, [r3, r5]
100032ea:	2800      	cmp	r0, #0
100032ec:	d100      	bne.n	100032f0 <_vsnprintf+0x3f0>
100032ee:	e126      	b.n	1000353e <_vsnprintf+0x63e>
100032f0:	002a      	movs	r2, r5
100032f2:	4297      	cmp	r7, r2
100032f4:	d1f3      	bne.n	100032de <_vsnprintf+0x3de>
100032f6:	46a1      	mov	r9, r4
100032f8:	003d      	movs	r5, r7
100032fa:	0034      	movs	r4, r6
100032fc:	4656      	mov	r6, sl
100032fe:	9b0d      	ldr	r3, [sp, #52]	; 0x34
10003300:	2b00      	cmp	r3, #0
10003302:	d000      	beq.n	10003306 <_vsnprintf+0x406>
10003304:	e143      	b.n	1000358e <_vsnprintf+0x68e>
10003306:	465b      	mov	r3, fp
10003308:	3601      	adds	r6, #1
1000330a:	9309      	str	r3, [sp, #36]	; 0x24
1000330c:	e61d      	b.n	10002f4a <_vsnprintf+0x4a>
1000330e:	9b09      	ldr	r3, [sp, #36]	; 0x24
10003310:	001a      	movs	r2, r3
10003312:	ca08      	ldmia	r2!, {r3}
10003314:	4692      	mov	sl, r2
10003316:	2b00      	cmp	r3, #0
10003318:	d048      	beq.n	100033ac <_vsnprintf+0x4ac>
1000331a:	2221      	movs	r2, #33	; 0x21
1000331c:	4311      	orrs	r1, r2
1000331e:	468b      	mov	fp, r1
10003320:	a80e      	add	r0, sp, #56	; 0x38
10003322:	4684      	mov	ip, r0
10003324:	211f      	movs	r1, #31
10003326:	4461      	add	r1, ip
10003328:	9509      	str	r5, [sp, #36]	; 0x24
1000332a:	2200      	movs	r2, #0
1000332c:	270f      	movs	r7, #15
1000332e:	46a4      	mov	ip, r4
10003330:	000d      	movs	r5, r1
10003332:	e002      	b.n	1000333a <_vsnprintf+0x43a>
10003334:	2a20      	cmp	r2, #32
10003336:	d00c      	beq.n	10003352 <_vsnprintf+0x452>
10003338:	000b      	movs	r3, r1
1000333a:	003c      	movs	r4, r7
1000333c:	401c      	ands	r4, r3
1000333e:	0020      	movs	r0, r4
10003340:	3037      	adds	r0, #55	; 0x37
10003342:	2c09      	cmp	r4, #9
10003344:	d800      	bhi.n	10003348 <_vsnprintf+0x448>
10003346:	3807      	subs	r0, #7
10003348:	3201      	adds	r2, #1
1000334a:	54a8      	strb	r0, [r5, r2]
1000334c:	0919      	lsrs	r1, r3, #4
1000334e:	2b0f      	cmp	r3, #15
10003350:	d8f0      	bhi.n	10003334 <_vsnprintf+0x434>
10003352:	4664      	mov	r4, ip
10003354:	9d09      	ldr	r5, [sp, #36]	; 0x24
10003356:	e032      	b.n	100033be <_vsnprintf+0x4be>
10003358:	4bdc      	ldr	r3, [pc, #880]	; (100036cc <_vsnprintf+0x7cc>)
1000335a:	7820      	ldrb	r0, [r4, #0]
1000335c:	9308      	str	r3, [sp, #32]
1000335e:	2300      	movs	r3, #0
10003360:	469a      	mov	sl, r3
10003362:	2800      	cmp	r0, #0
10003364:	d000      	beq.n	10003368 <_vsnprintf+0x468>
10003366:	e5e4      	b.n	10002f32 <_vsnprintf+0x32>
10003368:	2400      	movs	r4, #0
1000336a:	e665      	b.n	10003038 <_vsnprintf+0x138>
1000336c:	4643      	mov	r3, r8
1000336e:	0006      	movs	r6, r0
10003370:	9f0a      	ldr	r7, [sp, #40]	; 0x28
10003372:	0098      	lsls	r0, r3, #2
10003374:	18c0      	adds	r0, r0, r3
10003376:	3201      	adds	r2, #1
10003378:	0040      	lsls	r0, r0, #1
1000337a:	1980      	adds	r0, r0, r6
1000337c:	7816      	ldrb	r6, [r2, #0]
1000337e:	0003      	movs	r3, r0
10003380:	0030      	movs	r0, r6
10003382:	3830      	subs	r0, #48	; 0x30
10003384:	3b30      	subs	r3, #48	; 0x30
10003386:	2809      	cmp	r0, #9
10003388:	d9f3      	bls.n	10003372 <_vsnprintf+0x472>
1000338a:	0030      	movs	r0, r6
1000338c:	4698      	mov	r8, r3
1000338e:	0016      	movs	r6, r2
10003390:	970a      	str	r7, [sp, #40]	; 0x28
10003392:	e600      	b.n	10002f96 <_vsnprintf+0x96>
10003394:	9b09      	ldr	r3, [sp, #36]	; 0x24
10003396:	3602      	adds	r6, #2
10003398:	cb04      	ldmia	r3!, {r2}
1000339a:	4690      	mov	r8, r2
1000339c:	43d2      	mvns	r2, r2
1000339e:	4640      	mov	r0, r8
100033a0:	17d2      	asrs	r2, r2, #31
100033a2:	4010      	ands	r0, r2
100033a4:	4680      	mov	r8, r0
100033a6:	9309      	str	r3, [sp, #36]	; 0x24
100033a8:	7830      	ldrb	r0, [r6, #0]
100033aa:	e5f4      	b.n	10002f96 <_vsnprintf+0x96>
100033ac:	2210      	movs	r2, #16
100033ae:	0008      	movs	r0, r1
100033b0:	4390      	bics	r0, r2
100033b2:	3211      	adds	r2, #17
100033b4:	4310      	orrs	r0, r2
100033b6:	4683      	mov	fp, r0
100033b8:	2200      	movs	r2, #0
100033ba:	0549      	lsls	r1, r1, #21
100033bc:	d5b0      	bpl.n	10003320 <_vsnprintf+0x420>
100033be:	465b      	mov	r3, fp
100033c0:	9306      	str	r3, [sp, #24]
100033c2:	2308      	movs	r3, #8
100033c4:	9305      	str	r3, [sp, #20]
100033c6:	4643      	mov	r3, r8
100033c8:	9304      	str	r3, [sp, #16]
100033ca:	2310      	movs	r3, #16
100033cc:	9303      	str	r3, [sp, #12]
100033ce:	2300      	movs	r3, #0
100033d0:	9302      	str	r3, [sp, #8]
100033d2:	ab16      	add	r3, sp, #88	; 0x58
100033d4:	9201      	str	r2, [sp, #4]
100033d6:	9300      	str	r3, [sp, #0]
100033d8:	002a      	movs	r2, r5
100033da:	464b      	mov	r3, r9
100033dc:	0021      	movs	r1, r4
100033de:	9808      	ldr	r0, [sp, #32]
100033e0:	f7ff f8a6 	bl	10002530 <_ntoa_format>
100033e4:	4653      	mov	r3, sl
100033e6:	0005      	movs	r5, r0
100033e8:	3601      	adds	r6, #1
100033ea:	9309      	str	r3, [sp, #36]	; 0x24
100033ec:	e5ad      	b.n	10002f4a <_vsnprintf+0x4a>
100033ee:	7813      	ldrb	r3, [r2, #0]
100033f0:	469c      	mov	ip, r3
100033f2:	2b00      	cmp	r3, #0
100033f4:	d100      	bne.n	100033f8 <_vsnprintf+0x4f8>
100033f6:	e2f7      	b.n	100039e8 <_vsnprintf+0xae8>
100033f8:	2302      	movs	r3, #2
100033fa:	425b      	negs	r3, r3
100033fc:	e737      	b.n	1000326e <_vsnprintf+0x36e>
100033fe:	2320      	movs	r3, #32
10003400:	0002      	movs	r2, r0
10003402:	439a      	bics	r2, r3
10003404:	2a47      	cmp	r2, #71	; 0x47
10003406:	d104      	bne.n	10003412 <_vsnprintf+0x512>
10003408:	2380      	movs	r3, #128	; 0x80
1000340a:	011b      	lsls	r3, r3, #4
1000340c:	4319      	orrs	r1, r3
1000340e:	2302      	movs	r3, #2
10003410:	4398      	bics	r0, r3
10003412:	2845      	cmp	r0, #69	; 0x45
10003414:	d101      	bne.n	1000341a <_vsnprintf+0x51a>
10003416:	2320      	movs	r3, #32
10003418:	4319      	orrs	r1, r3
1000341a:	2207      	movs	r2, #7
1000341c:	9b09      	ldr	r3, [sp, #36]	; 0x24
1000341e:	9104      	str	r1, [sp, #16]
10003420:	3307      	adds	r3, #7
10003422:	4393      	bics	r3, r2
10003424:	9a0a      	ldr	r2, [sp, #40]	; 0x28
10003426:	0019      	movs	r1, r3
10003428:	9203      	str	r2, [sp, #12]
1000342a:	4642      	mov	r2, r8
1000342c:	9202      	str	r2, [sp, #8]
1000342e:	c90c      	ldmia	r1!, {r2, r3}
10003430:	9808      	ldr	r0, [sp, #32]
10003432:	9200      	str	r2, [sp, #0]
10003434:	9301      	str	r3, [sp, #4]
10003436:	9109      	str	r1, [sp, #36]	; 0x24
10003438:	002a      	movs	r2, r5
1000343a:	464b      	mov	r3, r9
1000343c:	0021      	movs	r1, r4
1000343e:	f7ff f96d 	bl	1000271c <_etoa>
10003442:	3601      	adds	r6, #1
10003444:	0005      	movs	r5, r0
10003446:	e580      	b.n	10002f4a <_vsnprintf+0x4a>
10003448:	2310      	movs	r3, #16
1000344a:	930c      	str	r3, [sp, #48]	; 0x30
1000344c:	230c      	movs	r3, #12
1000344e:	000a      	movs	r2, r1
10003450:	439a      	bics	r2, r3
10003452:	920b      	str	r2, [sp, #44]	; 0x2c
10003454:	054b      	lsls	r3, r1, #21
10003456:	d503      	bpl.n	10003460 <_vsnprintf+0x560>
10003458:	2301      	movs	r3, #1
1000345a:	9a0b      	ldr	r2, [sp, #44]	; 0x2c
1000345c:	439a      	bics	r2, r3
1000345e:	920b      	str	r2, [sp, #44]	; 0x2c
10003460:	2869      	cmp	r0, #105	; 0x69
10003462:	d100      	bne.n	10003466 <_vsnprintf+0x566>
10003464:	e627      	b.n	100030b6 <_vsnprintf+0x1b6>
10003466:	2864      	cmp	r0, #100	; 0x64
10003468:	d100      	bne.n	1000346c <_vsnprintf+0x56c>
1000346a:	e624      	b.n	100030b6 <_vsnprintf+0x1b6>
1000346c:	9a0b      	ldr	r2, [sp, #44]	; 0x2c
1000346e:	2380      	movs	r3, #128	; 0x80
10003470:	0011      	movs	r1, r2
10003472:	009b      	lsls	r3, r3, #2
10003474:	4019      	ands	r1, r3
10003476:	468b      	mov	fp, r1
10003478:	421a      	tst	r2, r3
1000347a:	d000      	beq.n	1000347e <_vsnprintf+0x57e>
1000347c:	e166      	b.n	1000374c <_vsnprintf+0x84c>
1000347e:	2380      	movs	r3, #128	; 0x80
10003480:	0011      	movs	r1, r2
10003482:	005b      	lsls	r3, r3, #1
10003484:	4019      	ands	r1, r3
10003486:	468a      	mov	sl, r1
10003488:	421a      	tst	r2, r3
1000348a:	d000      	beq.n	1000348e <_vsnprintf+0x58e>
1000348c:	e239      	b.n	10003902 <_vsnprintf+0xa02>
1000348e:	0013      	movs	r3, r2
10003490:	065b      	lsls	r3, r3, #25
10003492:	d500      	bpl.n	10003496 <_vsnprintf+0x596>
10003494:	e13c      	b.n	10003710 <_vsnprintf+0x810>
10003496:	0013      	movs	r3, r2
10003498:	061b      	lsls	r3, r3, #24
1000349a:	d400      	bmi.n	1000349e <_vsnprintf+0x59e>
1000349c:	e2a6      	b.n	100039ec <_vsnprintf+0xaec>
1000349e:	9b09      	ldr	r3, [sp, #36]	; 0x24
100034a0:	cb04      	ldmia	r3!, {r2}
100034a2:	0412      	lsls	r2, r2, #16
100034a4:	0c12      	lsrs	r2, r2, #16
100034a6:	4693      	mov	fp, r2
100034a8:	9309      	str	r3, [sp, #36]	; 0x24
100034aa:	465b      	mov	r3, fp
100034ac:	2b00      	cmp	r3, #0
100034ae:	d000      	beq.n	100034b2 <_vsnprintf+0x5b2>
100034b0:	e19a      	b.n	100037e8 <_vsnprintf+0x8e8>
100034b2:	9a0b      	ldr	r2, [sp, #44]	; 0x2c
100034b4:	3310      	adds	r3, #16
100034b6:	0011      	movs	r1, r2
100034b8:	4399      	bics	r1, r3
100034ba:	910b      	str	r1, [sp, #44]	; 0x2c
100034bc:	0552      	lsls	r2, r2, #21
100034be:	d400      	bmi.n	100034c2 <_vsnprintf+0x5c2>
100034c0:	e192      	b.n	100037e8 <_vsnprintf+0x8e8>
100034c2:	2300      	movs	r3, #0
100034c4:	469a      	mov	sl, r3
100034c6:	9b0b      	ldr	r3, [sp, #44]	; 0x2c
100034c8:	9306      	str	r3, [sp, #24]
100034ca:	9b0a      	ldr	r3, [sp, #40]	; 0x28
100034cc:	9305      	str	r3, [sp, #20]
100034ce:	4643      	mov	r3, r8
100034d0:	9304      	str	r3, [sp, #16]
100034d2:	9b0c      	ldr	r3, [sp, #48]	; 0x30
100034d4:	9303      	str	r3, [sp, #12]
100034d6:	2300      	movs	r3, #0
100034d8:	e10c      	b.n	100036f4 <_vsnprintf+0x7f4>
100034da:	2320      	movs	r3, #32
100034dc:	4319      	orrs	r1, r3
100034de:	e660      	b.n	100031a2 <_vsnprintf+0x2a2>
100034e0:	9b09      	ldr	r3, [sp, #36]	; 0x24
100034e2:	9a0a      	ldr	r2, [sp, #40]	; 0x28
100034e4:	1b5b      	subs	r3, r3, r5
100034e6:	4698      	mov	r8, r3
100034e8:	464b      	mov	r3, r9
100034ea:	4691      	mov	r9, r2
100034ec:	001f      	movs	r7, r3
100034ee:	46b2      	mov	sl, r6
100034f0:	0026      	movs	r6, r4
100034f2:	9c08      	ldr	r4, [sp, #32]
100034f4:	002a      	movs	r2, r5
100034f6:	003b      	movs	r3, r7
100034f8:	0031      	movs	r1, r6
100034fa:	47a0      	blx	r4
100034fc:	4643      	mov	r3, r8
100034fe:	3501      	adds	r5, #1
10003500:	5d58      	ldrb	r0, [r3, r5]
10003502:	2800      	cmp	r0, #0
10003504:	d1f6      	bne.n	100034f4 <_vsnprintf+0x5f4>
10003506:	464a      	mov	r2, r9
10003508:	0034      	movs	r4, r6
1000350a:	46b9      	mov	r9, r7
1000350c:	4656      	mov	r6, sl
1000350e:	920a      	str	r2, [sp, #40]	; 0x28
10003510:	e6f5      	b.n	100032fe <_vsnprintf+0x3fe>
10003512:	23c0      	movs	r3, #192	; 0xc0
10003514:	009b      	lsls	r3, r3, #2
10003516:	78b0      	ldrb	r0, [r6, #2]
10003518:	4319      	orrs	r1, r3
1000351a:	3602      	adds	r6, #2
1000351c:	e55d      	b.n	10002fda <_vsnprintf+0xda>
1000351e:	23c0      	movs	r3, #192	; 0xc0
10003520:	78b0      	ldrb	r0, [r6, #2]
10003522:	4319      	orrs	r1, r3
10003524:	3602      	adds	r6, #2
10003526:	e558      	b.n	10002fda <_vsnprintf+0xda>
10003528:	230c      	movs	r3, #12
1000352a:	000a      	movs	r2, r1
1000352c:	439a      	bics	r2, r3
1000352e:	3314      	adds	r3, #20
10003530:	431a      	orrs	r2, r3
10003532:	3b10      	subs	r3, #16
10003534:	920b      	str	r2, [sp, #44]	; 0x2c
10003536:	930c      	str	r3, [sp, #48]	; 0x30
10003538:	054b      	lsls	r3, r1, #21
1000353a:	d48d      	bmi.n	10003458 <_vsnprintf+0x558>
1000353c:	e796      	b.n	1000346c <_vsnprintf+0x56c>
1000353e:	46a1      	mov	r9, r4
10003540:	0034      	movs	r4, r6
10003542:	4656      	mov	r6, sl
10003544:	e6db      	b.n	100032fe <_vsnprintf+0x3fe>
10003546:	9a0a      	ldr	r2, [sp, #40]	; 0x28
10003548:	2a01      	cmp	r2, #1
1000354a:	d800      	bhi.n	1000354e <_vsnprintf+0x64e>
1000354c:	e253      	b.n	100039f6 <_vsnprintf+0xaf6>
1000354e:	1e6b      	subs	r3, r5, #1
10003550:	189f      	adds	r7, r3, r2
10003552:	9b08      	ldr	r3, [sp, #32]
10003554:	46b0      	mov	r8, r6
10003556:	0026      	movs	r6, r4
10003558:	464c      	mov	r4, r9
1000355a:	4699      	mov	r9, r3
1000355c:	002a      	movs	r2, r5
1000355e:	0023      	movs	r3, r4
10003560:	3501      	adds	r5, #1
10003562:	0031      	movs	r1, r6
10003564:	2020      	movs	r0, #32
10003566:	47c8      	blx	r9
10003568:	42bd      	cmp	r5, r7
1000356a:	d1f7      	bne.n	1000355c <_vsnprintf+0x65c>
1000356c:	46a1      	mov	r9, r4
1000356e:	0034      	movs	r4, r6
10003570:	4646      	mov	r6, r8
10003572:	9b09      	ldr	r3, [sp, #36]	; 0x24
10003574:	003a      	movs	r2, r7
10003576:	cb01      	ldmia	r3!, {r0}
10003578:	0021      	movs	r1, r4
1000357a:	4698      	mov	r8, r3
1000357c:	1c7d      	adds	r5, r7, #1
1000357e:	464b      	mov	r3, r9
10003580:	9f08      	ldr	r7, [sp, #32]
10003582:	b2c0      	uxtb	r0, r0
10003584:	47b8      	blx	r7
10003586:	4643      	mov	r3, r8
10003588:	3601      	adds	r6, #1
1000358a:	9309      	str	r3, [sp, #36]	; 0x24
1000358c:	e4dd      	b.n	10002f4a <_vsnprintf+0x4a>
1000358e:	9b0b      	ldr	r3, [sp, #44]	; 0x2c
10003590:	9a0a      	ldr	r2, [sp, #40]	; 0x28
10003592:	46a8      	mov	r8, r5
10003594:	429a      	cmp	r2, r3
10003596:	d800      	bhi.n	1000359a <_vsnprintf+0x69a>
10003598:	e6b5      	b.n	10003306 <_vsnprintf+0x406>
1000359a:	4694      	mov	ip, r2
1000359c:	4465      	add	r5, ip
1000359e:	1aed      	subs	r5, r5, r3
100035a0:	9b08      	ldr	r3, [sp, #32]
100035a2:	4647      	mov	r7, r8
100035a4:	46b0      	mov	r8, r6
100035a6:	0026      	movs	r6, r4
100035a8:	464c      	mov	r4, r9
100035aa:	4699      	mov	r9, r3
100035ac:	003a      	movs	r2, r7
100035ae:	0023      	movs	r3, r4
100035b0:	3701      	adds	r7, #1
100035b2:	0031      	movs	r1, r6
100035b4:	2020      	movs	r0, #32
100035b6:	47c8      	blx	r9
100035b8:	42af      	cmp	r7, r5
100035ba:	d1f7      	bne.n	100035ac <_vsnprintf+0x6ac>
100035bc:	46a1      	mov	r9, r4
100035be:	0034      	movs	r4, r6
100035c0:	4646      	mov	r6, r8
100035c2:	e6a0      	b.n	10003306 <_vsnprintf+0x406>
100035c4:	9a0b      	ldr	r2, [sp, #44]	; 0x2c
100035c6:	990a      	ldr	r1, [sp, #40]	; 0x28
100035c8:	1c53      	adds	r3, r2, #1
100035ca:	4291      	cmp	r1, r2
100035cc:	d800      	bhi.n	100035d0 <_vsnprintf+0x6d0>
100035ce:	e214      	b.n	100039fa <_vsnprintf+0xafa>
100035d0:	194b      	adds	r3, r1, r5
100035d2:	1a9b      	subs	r3, r3, r2
100035d4:	001f      	movs	r7, r3
100035d6:	9b08      	ldr	r3, [sp, #32]
100035d8:	46b2      	mov	sl, r6
100035da:	0026      	movs	r6, r4
100035dc:	464c      	mov	r4, r9
100035de:	4699      	mov	r9, r3
100035e0:	002a      	movs	r2, r5
100035e2:	0023      	movs	r3, r4
100035e4:	3501      	adds	r5, #1
100035e6:	0031      	movs	r1, r6
100035e8:	2020      	movs	r0, #32
100035ea:	47c8      	blx	r9
100035ec:	42bd      	cmp	r5, r7
100035ee:	d1f7      	bne.n	100035e0 <_vsnprintf+0x6e0>
100035f0:	9b0a      	ldr	r3, [sp, #40]	; 0x28
100035f2:	46a1      	mov	r9, r4
100035f4:	3301      	adds	r3, #1
100035f6:	930b      	str	r3, [sp, #44]	; 0x2c
100035f8:	9b09      	ldr	r3, [sp, #36]	; 0x24
100035fa:	0034      	movs	r4, r6
100035fc:	781b      	ldrb	r3, [r3, #0]
100035fe:	4656      	mov	r6, sl
10003600:	469c      	mov	ip, r3
10003602:	4660      	mov	r0, ip
10003604:	2800      	cmp	r0, #0
10003606:	d000      	beq.n	1000360a <_vsnprintf+0x70a>
10003608:	e658      	b.n	100032bc <_vsnprintf+0x3bc>
1000360a:	e67c      	b.n	10003306 <_vsnprintf+0x406>
1000360c:	2207      	movs	r2, #7
1000360e:	9b09      	ldr	r3, [sp, #36]	; 0x24
10003610:	3307      	adds	r3, #7
10003612:	4393      	bics	r3, r2
10003614:	3201      	adds	r2, #1
10003616:	4694      	mov	ip, r2
10003618:	449c      	add	ip, r3
1000361a:	4662      	mov	r2, ip
1000361c:	685f      	ldr	r7, [r3, #4]
1000361e:	9209      	str	r2, [sp, #36]	; 0x24
10003620:	681a      	ldr	r2, [r3, #0]
10003622:	17fb      	asrs	r3, r7, #31
10003624:	9310      	str	r3, [sp, #64]	; 0x40
10003626:	9311      	str	r3, [sp, #68]	; 0x44
10003628:	9810      	ldr	r0, [sp, #64]	; 0x40
1000362a:	9911      	ldr	r1, [sp, #68]	; 0x44
1000362c:	0003      	movs	r3, r0
1000362e:	4053      	eors	r3, r2
10003630:	930e      	str	r3, [sp, #56]	; 0x38
10003632:	000b      	movs	r3, r1
10003634:	407b      	eors	r3, r7
10003636:	930f      	str	r3, [sp, #60]	; 0x3c
10003638:	4694      	mov	ip, r2
1000363a:	9a0e      	ldr	r2, [sp, #56]	; 0x38
1000363c:	9b0f      	ldr	r3, [sp, #60]	; 0x3c
1000363e:	1a12      	subs	r2, r2, r0
10003640:	418b      	sbcs	r3, r1
10003642:	920e      	str	r2, [sp, #56]	; 0x38
10003644:	930f      	str	r3, [sp, #60]	; 0x3c
10003646:	0ffb      	lsrs	r3, r7, #31
10003648:	4662      	mov	r2, ip
1000364a:	9312      	str	r3, [sp, #72]	; 0x48
1000364c:	2300      	movs	r3, #0
1000364e:	433a      	orrs	r2, r7
10003650:	469b      	mov	fp, r3
10003652:	d03d      	beq.n	100036d0 <_vsnprintf+0x7d0>
10003654:	9a0b      	ldr	r2, [sp, #44]	; 0x2c
10003656:	2361      	movs	r3, #97	; 0x61
10003658:	0692      	lsls	r2, r2, #26
1000365a:	d500      	bpl.n	1000365e <_vsnprintf+0x75e>
1000365c:	2341      	movs	r3, #65	; 0x41
1000365e:	2200      	movs	r2, #0
10003660:	b2db      	uxtb	r3, r3
10003662:	a90e      	add	r1, sp, #56	; 0x38
10003664:	3b0a      	subs	r3, #10
10003666:	468c      	mov	ip, r1
10003668:	4692      	mov	sl, r2
1000366a:	930d      	str	r3, [sp, #52]	; 0x34
1000366c:	4643      	mov	r3, r8
1000366e:	321f      	adds	r2, #31
10003670:	4462      	add	r2, ip
10003672:	9513      	str	r5, [sp, #76]	; 0x4c
10003674:	9615      	str	r6, [sp, #84]	; 0x54
10003676:	4655      	mov	r5, sl
10003678:	9e0e      	ldr	r6, [sp, #56]	; 0x38
1000367a:	9f0f      	ldr	r7, [sp, #60]	; 0x3c
1000367c:	46a2      	mov	sl, r4
1000367e:	4690      	mov	r8, r2
10003680:	9c0c      	ldr	r4, [sp, #48]	; 0x30
10003682:	9314      	str	r3, [sp, #80]	; 0x50
10003684:	e00c      	b.n	100036a0 <_vsnprintf+0x7a0>
10003686:	3230      	adds	r2, #48	; 0x30
10003688:	b2d2      	uxtb	r2, r2
1000368a:	4643      	mov	r3, r8
1000368c:	3501      	adds	r5, #1
1000368e:	555a      	strb	r2, [r3, r5]
10003690:	45bb      	cmp	fp, r7
10003692:	d100      	bne.n	10003696 <_vsnprintf+0x796>
10003694:	e18a      	b.n	100039ac <_vsnprintf+0xaac>
10003696:	2d20      	cmp	r5, #32
10003698:	d100      	bne.n	1000369c <_vsnprintf+0x79c>
1000369a:	e18a      	b.n	100039b2 <_vsnprintf+0xab2>
1000369c:	0006      	movs	r6, r0
1000369e:	000f      	movs	r7, r1
100036a0:	0022      	movs	r2, r4
100036a2:	2300      	movs	r3, #0
100036a4:	0030      	movs	r0, r6
100036a6:	0039      	movs	r1, r7
100036a8:	f000 fa74 	bl	10003b94 <__wrap___aeabi_uldivmod>
100036ac:	b2d2      	uxtb	r2, r2
100036ae:	2a09      	cmp	r2, #9
100036b0:	d9e9      	bls.n	10003686 <_vsnprintf+0x786>
100036b2:	9b0d      	ldr	r3, [sp, #52]	; 0x34
100036b4:	469c      	mov	ip, r3
100036b6:	4462      	add	r2, ip
100036b8:	b2d2      	uxtb	r2, r2
100036ba:	e7e6      	b.n	1000368a <_vsnprintf+0x78a>
100036bc:	23ff      	movs	r3, #255	; 0xff
100036be:	9909      	ldr	r1, [sp, #36]	; 0x24
100036c0:	c904      	ldmia	r1!, {r2}
100036c2:	4013      	ands	r3, r2
100036c4:	001a      	movs	r2, r3
100036c6:	9109      	str	r1, [sp, #36]	; 0x24
100036c8:	e517      	b.n	100030fa <_vsnprintf+0x1fa>
100036ca:	46c0      	nop			; (mov r8, r8)
100036cc:	10002491 	.word	0x10002491
100036d0:	9a0b      	ldr	r2, [sp, #44]	; 0x2c
100036d2:	3310      	adds	r3, #16
100036d4:	0011      	movs	r1, r2
100036d6:	4399      	bics	r1, r3
100036d8:	910b      	str	r1, [sp, #44]	; 0x2c
100036da:	0552      	lsls	r2, r2, #21
100036dc:	d5ba      	bpl.n	10003654 <_vsnprintf+0x754>
100036de:	2300      	movs	r3, #0
100036e0:	469a      	mov	sl, r3
100036e2:	9b0b      	ldr	r3, [sp, #44]	; 0x2c
100036e4:	9306      	str	r3, [sp, #24]
100036e6:	9b0a      	ldr	r3, [sp, #40]	; 0x28
100036e8:	9305      	str	r3, [sp, #20]
100036ea:	4643      	mov	r3, r8
100036ec:	9304      	str	r3, [sp, #16]
100036ee:	9b0c      	ldr	r3, [sp, #48]	; 0x30
100036f0:	9303      	str	r3, [sp, #12]
100036f2:	9b12      	ldr	r3, [sp, #72]	; 0x48
100036f4:	9302      	str	r3, [sp, #8]
100036f6:	4653      	mov	r3, sl
100036f8:	9301      	str	r3, [sp, #4]
100036fa:	ab16      	add	r3, sp, #88	; 0x58
100036fc:	002a      	movs	r2, r5
100036fe:	9300      	str	r3, [sp, #0]
10003700:	0021      	movs	r1, r4
10003702:	464b      	mov	r3, r9
10003704:	9808      	ldr	r0, [sp, #32]
10003706:	f7fe ff13 	bl	10002530 <_ntoa_format>
1000370a:	3601      	adds	r6, #1
1000370c:	0005      	movs	r5, r0
1000370e:	e41c      	b.n	10002f4a <_vsnprintf+0x4a>
10003710:	22ff      	movs	r2, #255	; 0xff
10003712:	9b09      	ldr	r3, [sp, #36]	; 0x24
10003714:	cb02      	ldmia	r3!, {r1}
10003716:	4011      	ands	r1, r2
10003718:	468b      	mov	fp, r1
1000371a:	9309      	str	r3, [sp, #36]	; 0x24
1000371c:	e6c5      	b.n	100034aa <_vsnprintf+0x5aa>
1000371e:	4653      	mov	r3, sl
10003720:	4645      	mov	r5, r8
10003722:	9309      	str	r3, [sp, #36]	; 0x24
10003724:	3601      	adds	r6, #1
10003726:	f7ff fc10 	bl	10002f4a <_vsnprintf+0x4a>
1000372a:	4656      	mov	r6, sl
1000372c:	465c      	mov	r4, fp
1000372e:	46aa      	mov	sl, r5
10003730:	9d13      	ldr	r5, [sp, #76]	; 0x4c
10003732:	e7d6      	b.n	100036e2 <_vsnprintf+0x7e2>
10003734:	2308      	movs	r3, #8
10003736:	930c      	str	r3, [sp, #48]	; 0x30
10003738:	910b      	str	r1, [sp, #44]	; 0x2c
1000373a:	990b      	ldr	r1, [sp, #44]	; 0x2c
1000373c:	2864      	cmp	r0, #100	; 0x64
1000373e:	d000      	beq.n	10003742 <_vsnprintf+0x842>
10003740:	e684      	b.n	1000344c <_vsnprintf+0x54c>
10003742:	9b0b      	ldr	r3, [sp, #44]	; 0x2c
10003744:	055b      	lsls	r3, r3, #21
10003746:	d500      	bpl.n	1000374a <_vsnprintf+0x84a>
10003748:	e686      	b.n	10003458 <_vsnprintf+0x558>
1000374a:	e4b4      	b.n	100030b6 <_vsnprintf+0x1b6>
1000374c:	2207      	movs	r2, #7
1000374e:	9b09      	ldr	r3, [sp, #36]	; 0x24
10003750:	3307      	adds	r3, #7
10003752:	4393      	bics	r3, r2
10003754:	3201      	adds	r2, #1
10003756:	4694      	mov	ip, r2
10003758:	449c      	add	ip, r3
1000375a:	4662      	mov	r2, ip
1000375c:	9209      	str	r2, [sp, #36]	; 0x24
1000375e:	681a      	ldr	r2, [r3, #0]
10003760:	685b      	ldr	r3, [r3, #4]
10003762:	0010      	movs	r0, r2
10003764:	469b      	mov	fp, r3
10003766:	0013      	movs	r3, r2
10003768:	465a      	mov	r2, fp
1000376a:	4313      	orrs	r3, r2
1000376c:	d107      	bne.n	1000377e <_vsnprintf+0x87e>
1000376e:	9a0b      	ldr	r2, [sp, #44]	; 0x2c
10003770:	3310      	adds	r3, #16
10003772:	0011      	movs	r1, r2
10003774:	4399      	bics	r1, r3
10003776:	910b      	str	r1, [sp, #44]	; 0x2c
10003778:	0552      	lsls	r2, r2, #21
1000377a:	d500      	bpl.n	1000377e <_vsnprintf+0x87e>
1000377c:	e6a1      	b.n	100034c2 <_vsnprintf+0x5c2>
1000377e:	9a0b      	ldr	r2, [sp, #44]	; 0x2c
10003780:	2361      	movs	r3, #97	; 0x61
10003782:	0692      	lsls	r2, r2, #26
10003784:	d500      	bpl.n	10003788 <_vsnprintf+0x888>
10003786:	2341      	movs	r3, #65	; 0x41
10003788:	2200      	movs	r2, #0
1000378a:	b2db      	uxtb	r3, r3
1000378c:	a90e      	add	r1, sp, #56	; 0x38
1000378e:	3b0a      	subs	r3, #10
10003790:	468c      	mov	ip, r1
10003792:	4692      	mov	sl, r2
10003794:	930d      	str	r3, [sp, #52]	; 0x34
10003796:	4643      	mov	r3, r8
10003798:	321f      	adds	r2, #31
1000379a:	4462      	add	r2, ip
1000379c:	465f      	mov	r7, fp
1000379e:	9512      	str	r5, [sp, #72]	; 0x48
100037a0:	46a3      	mov	fp, r4
100037a2:	4655      	mov	r5, sl
100037a4:	0004      	movs	r4, r0
100037a6:	46b2      	mov	sl, r6
100037a8:	4690      	mov	r8, r2
100037aa:	9e0c      	ldr	r6, [sp, #48]	; 0x30
100037ac:	9313      	str	r3, [sp, #76]	; 0x4c
100037ae:	e00d      	b.n	100037cc <_vsnprintf+0x8cc>
100037b0:	3230      	adds	r2, #48	; 0x30
100037b2:	b2d2      	uxtb	r2, r2
100037b4:	4643      	mov	r3, r8
100037b6:	3501      	adds	r5, #1
100037b8:	555a      	strb	r2, [r3, r5]
100037ba:	2300      	movs	r3, #0
100037bc:	42bb      	cmp	r3, r7
100037be:	d100      	bne.n	100037c2 <_vsnprintf+0x8c2>
100037c0:	e100      	b.n	100039c4 <_vsnprintf+0xac4>
100037c2:	2d20      	cmp	r5, #32
100037c4:	d100      	bne.n	100037c8 <_vsnprintf+0x8c8>
100037c6:	e100      	b.n	100039ca <_vsnprintf+0xaca>
100037c8:	0004      	movs	r4, r0
100037ca:	000f      	movs	r7, r1
100037cc:	0032      	movs	r2, r6
100037ce:	2300      	movs	r3, #0
100037d0:	0020      	movs	r0, r4
100037d2:	0039      	movs	r1, r7
100037d4:	f000 f9de 	bl	10003b94 <__wrap___aeabi_uldivmod>
100037d8:	b2d2      	uxtb	r2, r2
100037da:	2a09      	cmp	r2, #9
100037dc:	d9e8      	bls.n	100037b0 <_vsnprintf+0x8b0>
100037de:	9b0d      	ldr	r3, [sp, #52]	; 0x34
100037e0:	469c      	mov	ip, r3
100037e2:	4462      	add	r2, ip
100037e4:	b2d2      	uxtb	r2, r2
100037e6:	e7e5      	b.n	100037b4 <_vsnprintf+0x8b4>
100037e8:	9a0b      	ldr	r2, [sp, #44]	; 0x2c
100037ea:	2361      	movs	r3, #97	; 0x61
100037ec:	0692      	lsls	r2, r2, #26
100037ee:	d500      	bpl.n	100037f2 <_vsnprintf+0x8f2>
100037f0:	2341      	movs	r3, #65	; 0x41
100037f2:	b2db      	uxtb	r3, r3
100037f4:	a90e      	add	r1, sp, #56	; 0x38
100037f6:	3b0a      	subs	r3, #10
100037f8:	221f      	movs	r2, #31
100037fa:	468c      	mov	ip, r1
100037fc:	930d      	str	r3, [sp, #52]	; 0x34
100037fe:	0023      	movs	r3, r4
10003800:	4462      	add	r2, ip
10003802:	465c      	mov	r4, fp
10003804:	9512      	str	r5, [sp, #72]	; 0x48
10003806:	0017      	movs	r7, r2
10003808:	4655      	mov	r5, sl
1000380a:	469b      	mov	fp, r3
1000380c:	46b2      	mov	sl, r6
1000380e:	9e0c      	ldr	r6, [sp, #48]	; 0x30
10003810:	e008      	b.n	10003824 <_vsnprintf+0x924>
10003812:	3330      	adds	r3, #48	; 0x30
10003814:	b2db      	uxtb	r3, r3
10003816:	3501      	adds	r5, #1
10003818:	557b      	strb	r3, [r7, r5]
1000381a:	42b4      	cmp	r4, r6
1000381c:	d30e      	bcc.n	1000383c <_vsnprintf+0x93c>
1000381e:	2d20      	cmp	r5, #32
10003820:	d00c      	beq.n	1000383c <_vsnprintf+0x93c>
10003822:	0004      	movs	r4, r0
10003824:	0031      	movs	r1, r6
10003826:	0020      	movs	r0, r4
10003828:	f000 f976 	bl	10003b18 <__wrap___aeabi_uidiv>
1000382c:	b2cb      	uxtb	r3, r1
1000382e:	2909      	cmp	r1, #9
10003830:	d9ef      	bls.n	10003812 <_vsnprintf+0x912>
10003832:	9a0d      	ldr	r2, [sp, #52]	; 0x34
10003834:	4694      	mov	ip, r2
10003836:	4463      	add	r3, ip
10003838:	b2db      	uxtb	r3, r3
1000383a:	e7ec      	b.n	10003816 <_vsnprintf+0x916>
1000383c:	4656      	mov	r6, sl
1000383e:	465c      	mov	r4, fp
10003840:	46aa      	mov	sl, r5
10003842:	9d12      	ldr	r5, [sp, #72]	; 0x48
10003844:	e63f      	b.n	100034c6 <_vsnprintf+0x5c6>
10003846:	9b09      	ldr	r3, [sp, #36]	; 0x24
10003848:	001a      	movs	r2, r3
1000384a:	ca08      	ldmia	r2!, {r3}
1000384c:	17d9      	asrs	r1, r3, #31
1000384e:	9213      	str	r2, [sp, #76]	; 0x4c
10003850:	185a      	adds	r2, r3, r1
10003852:	404a      	eors	r2, r1
10003854:	4692      	mov	sl, r2
10003856:	0fda      	lsrs	r2, r3, #31
10003858:	9212      	str	r2, [sp, #72]	; 0x48
1000385a:	2b00      	cmp	r3, #0
1000385c:	d108      	bne.n	10003870 <_vsnprintf+0x970>
1000385e:	2380      	movs	r3, #128	; 0x80
10003860:	2210      	movs	r2, #16
10003862:	990b      	ldr	r1, [sp, #44]	; 0x2c
10003864:	00db      	lsls	r3, r3, #3
10003866:	400b      	ands	r3, r1
10003868:	4391      	bics	r1, r2
1000386a:	910b      	str	r1, [sp, #44]	; 0x2c
1000386c:	2b00      	cmp	r3, #0
1000386e:	d12b      	bne.n	100038c8 <_vsnprintf+0x9c8>
10003870:	9a0b      	ldr	r2, [sp, #44]	; 0x2c
10003872:	2361      	movs	r3, #97	; 0x61
10003874:	0692      	lsls	r2, r2, #26
10003876:	d500      	bpl.n	1000387a <_vsnprintf+0x97a>
10003878:	2341      	movs	r3, #65	; 0x41
1000387a:	aa0e      	add	r2, sp, #56	; 0x38
1000387c:	271f      	movs	r7, #31
1000387e:	4694      	mov	ip, r2
10003880:	b2db      	uxtb	r3, r3
10003882:	3b0a      	subs	r3, #10
10003884:	950d      	str	r5, [sp, #52]	; 0x34
10003886:	4467      	add	r7, ip
10003888:	465d      	mov	r5, fp
1000388a:	9309      	str	r3, [sp, #36]	; 0x24
1000388c:	46a3      	mov	fp, r4
1000388e:	4654      	mov	r4, sl
10003890:	46b2      	mov	sl, r6
10003892:	9e0c      	ldr	r6, [sp, #48]	; 0x30
10003894:	e008      	b.n	100038a8 <_vsnprintf+0x9a8>
10003896:	3330      	adds	r3, #48	; 0x30
10003898:	b2db      	uxtb	r3, r3
1000389a:	3501      	adds	r5, #1
1000389c:	557b      	strb	r3, [r7, r5]
1000389e:	42b4      	cmp	r4, r6
100038a0:	d30e      	bcc.n	100038c0 <_vsnprintf+0x9c0>
100038a2:	2d20      	cmp	r5, #32
100038a4:	d00c      	beq.n	100038c0 <_vsnprintf+0x9c0>
100038a6:	0004      	movs	r4, r0
100038a8:	0031      	movs	r1, r6
100038aa:	0020      	movs	r0, r4
100038ac:	f000 f934 	bl	10003b18 <__wrap___aeabi_uidiv>
100038b0:	b2cb      	uxtb	r3, r1
100038b2:	2909      	cmp	r1, #9
100038b4:	d9ef      	bls.n	10003896 <_vsnprintf+0x996>
100038b6:	9a09      	ldr	r2, [sp, #36]	; 0x24
100038b8:	4694      	mov	ip, r2
100038ba:	4463      	add	r3, ip
100038bc:	b2db      	uxtb	r3, r3
100038be:	e7ec      	b.n	1000389a <_vsnprintf+0x99a>
100038c0:	4656      	mov	r6, sl
100038c2:	465c      	mov	r4, fp
100038c4:	46ab      	mov	fp, r5
100038c6:	9d0d      	ldr	r5, [sp, #52]	; 0x34
100038c8:	9b0b      	ldr	r3, [sp, #44]	; 0x2c
100038ca:	002a      	movs	r2, r5
100038cc:	9306      	str	r3, [sp, #24]
100038ce:	9b0a      	ldr	r3, [sp, #40]	; 0x28
100038d0:	0021      	movs	r1, r4
100038d2:	9305      	str	r3, [sp, #20]
100038d4:	4643      	mov	r3, r8
100038d6:	9304      	str	r3, [sp, #16]
100038d8:	9b0c      	ldr	r3, [sp, #48]	; 0x30
100038da:	9808      	ldr	r0, [sp, #32]
100038dc:	9303      	str	r3, [sp, #12]
100038de:	9b12      	ldr	r3, [sp, #72]	; 0x48
100038e0:	3601      	adds	r6, #1
100038e2:	9302      	str	r3, [sp, #8]
100038e4:	465b      	mov	r3, fp
100038e6:	9301      	str	r3, [sp, #4]
100038e8:	ab16      	add	r3, sp, #88	; 0x58
100038ea:	9300      	str	r3, [sp, #0]
100038ec:	464b      	mov	r3, r9
100038ee:	f7fe fe1f 	bl	10002530 <_ntoa_format>
100038f2:	9b13      	ldr	r3, [sp, #76]	; 0x4c
100038f4:	0005      	movs	r5, r0
100038f6:	9309      	str	r3, [sp, #36]	; 0x24
100038f8:	f7ff fb27 	bl	10002f4a <_vsnprintf+0x4a>
100038fc:	2302      	movs	r3, #2
100038fe:	930c      	str	r3, [sp, #48]	; 0x30
10003900:	e71a      	b.n	10003738 <_vsnprintf+0x838>
10003902:	9b09      	ldr	r3, [sp, #36]	; 0x24
10003904:	cb04      	ldmia	r3!, {r2}
10003906:	4692      	mov	sl, r2
10003908:	9312      	str	r3, [sp, #72]	; 0x48
1000390a:	2a00      	cmp	r2, #0
1000390c:	d108      	bne.n	10003920 <_vsnprintf+0xa20>
1000390e:	2380      	movs	r3, #128	; 0x80
10003910:	2210      	movs	r2, #16
10003912:	990b      	ldr	r1, [sp, #44]	; 0x2c
10003914:	00db      	lsls	r3, r3, #3
10003916:	400b      	ands	r3, r1
10003918:	4391      	bics	r1, r2
1000391a:	910b      	str	r1, [sp, #44]	; 0x2c
1000391c:	2b00      	cmp	r3, #0
1000391e:	d12b      	bne.n	10003978 <_vsnprintf+0xa78>
10003920:	9a0b      	ldr	r2, [sp, #44]	; 0x2c
10003922:	2361      	movs	r3, #97	; 0x61
10003924:	0692      	lsls	r2, r2, #26
10003926:	d500      	bpl.n	1000392a <_vsnprintf+0xa2a>
10003928:	2341      	movs	r3, #65	; 0x41
1000392a:	aa0e      	add	r2, sp, #56	; 0x38
1000392c:	271f      	movs	r7, #31
1000392e:	4694      	mov	ip, r2
10003930:	b2db      	uxtb	r3, r3
10003932:	3b0a      	subs	r3, #10
10003934:	950d      	str	r5, [sp, #52]	; 0x34
10003936:	4467      	add	r7, ip
10003938:	465d      	mov	r5, fp
1000393a:	9309      	str	r3, [sp, #36]	; 0x24
1000393c:	46a3      	mov	fp, r4
1000393e:	4654      	mov	r4, sl
10003940:	46b2      	mov	sl, r6
10003942:	9e0c      	ldr	r6, [sp, #48]	; 0x30
10003944:	e008      	b.n	10003958 <_vsnprintf+0xa58>
10003946:	3330      	adds	r3, #48	; 0x30
10003948:	b2db      	uxtb	r3, r3
1000394a:	3501      	adds	r5, #1
1000394c:	557b      	strb	r3, [r7, r5]
1000394e:	42b4      	cmp	r4, r6
10003950:	d30e      	bcc.n	10003970 <_vsnprintf+0xa70>
10003952:	2d20      	cmp	r5, #32
10003954:	d00c      	beq.n	10003970 <_vsnprintf+0xa70>
10003956:	0004      	movs	r4, r0
10003958:	0031      	movs	r1, r6
1000395a:	0020      	movs	r0, r4
1000395c:	f000 f8dc 	bl	10003b18 <__wrap___aeabi_uidiv>
10003960:	b2cb      	uxtb	r3, r1
10003962:	2909      	cmp	r1, #9
10003964:	d9ef      	bls.n	10003946 <_vsnprintf+0xa46>
10003966:	9a09      	ldr	r2, [sp, #36]	; 0x24
10003968:	4694      	mov	ip, r2
1000396a:	4463      	add	r3, ip
1000396c:	b2db      	uxtb	r3, r3
1000396e:	e7ec      	b.n	1000394a <_vsnprintf+0xa4a>
10003970:	4656      	mov	r6, sl
10003972:	465c      	mov	r4, fp
10003974:	46ab      	mov	fp, r5
10003976:	9d0d      	ldr	r5, [sp, #52]	; 0x34
10003978:	9b0b      	ldr	r3, [sp, #44]	; 0x2c
1000397a:	002a      	movs	r2, r5
1000397c:	9306      	str	r3, [sp, #24]
1000397e:	9b0a      	ldr	r3, [sp, #40]	; 0x28
10003980:	0021      	movs	r1, r4
10003982:	9305      	str	r3, [sp, #20]
10003984:	4643      	mov	r3, r8
10003986:	9304      	str	r3, [sp, #16]
10003988:	9b0c      	ldr	r3, [sp, #48]	; 0x30
1000398a:	9808      	ldr	r0, [sp, #32]
1000398c:	9303      	str	r3, [sp, #12]
1000398e:	2300      	movs	r3, #0
10003990:	9302      	str	r3, [sp, #8]
10003992:	465b      	mov	r3, fp
10003994:	9301      	str	r3, [sp, #4]
10003996:	ab16      	add	r3, sp, #88	; 0x58
10003998:	9300      	str	r3, [sp, #0]
1000399a:	464b      	mov	r3, r9
1000399c:	f7fe fdc8 	bl	10002530 <_ntoa_format>
100039a0:	9b12      	ldr	r3, [sp, #72]	; 0x48
100039a2:	0005      	movs	r5, r0
100039a4:	9309      	str	r3, [sp, #36]	; 0x24
100039a6:	3601      	adds	r6, #1
100039a8:	f7ff facf 	bl	10002f4a <_vsnprintf+0x4a>
100039ac:	42b4      	cmp	r4, r6
100039ae:	d800      	bhi.n	100039b2 <_vsnprintf+0xab2>
100039b0:	e671      	b.n	10003696 <_vsnprintf+0x796>
100039b2:	9b14      	ldr	r3, [sp, #80]	; 0x50
100039b4:	4654      	mov	r4, sl
100039b6:	960e      	str	r6, [sp, #56]	; 0x38
100039b8:	970f      	str	r7, [sp, #60]	; 0x3c
100039ba:	46aa      	mov	sl, r5
100039bc:	4698      	mov	r8, r3
100039be:	9e15      	ldr	r6, [sp, #84]	; 0x54
100039c0:	9d13      	ldr	r5, [sp, #76]	; 0x4c
100039c2:	e68e      	b.n	100036e2 <_vsnprintf+0x7e2>
100039c4:	42a6      	cmp	r6, r4
100039c6:	d800      	bhi.n	100039ca <_vsnprintf+0xaca>
100039c8:	e6fb      	b.n	100037c2 <_vsnprintf+0x8c2>
100039ca:	9b13      	ldr	r3, [sp, #76]	; 0x4c
100039cc:	4656      	mov	r6, sl
100039ce:	4698      	mov	r8, r3
100039d0:	46aa      	mov	sl, r5
100039d2:	465c      	mov	r4, fp
100039d4:	9d12      	ldr	r5, [sp, #72]	; 0x48
100039d6:	e576      	b.n	100034c6 <_vsnprintf+0x5c6>
100039d8:	c908      	ldmia	r1!, {r3}
100039da:	17d8      	asrs	r0, r3, #31
100039dc:	181a      	adds	r2, r3, r0
100039de:	4042      	eors	r2, r0
100039e0:	9109      	str	r1, [sp, #36]	; 0x24
100039e2:	f7ff fb8a 	bl	100030fa <_vsnprintf+0x1fa>
100039e6:	2300      	movs	r3, #0
100039e8:	930b      	str	r3, [sp, #44]	; 0x2c
100039ea:	e450      	b.n	1000328e <_vsnprintf+0x38e>
100039ec:	9b09      	ldr	r3, [sp, #36]	; 0x24
100039ee:	cb04      	ldmia	r3!, {r2}
100039f0:	4693      	mov	fp, r2
100039f2:	9309      	str	r3, [sp, #36]	; 0x24
100039f4:	e559      	b.n	100034aa <_vsnprintf+0x5aa>
100039f6:	002f      	movs	r7, r5
100039f8:	e5bb      	b.n	10003572 <_vsnprintf+0x672>
100039fa:	930b      	str	r3, [sp, #44]	; 0x2c
100039fc:	e601      	b.n	10003602 <_vsnprintf+0x702>
100039fe:	3b06      	subs	r3, #6
10003a00:	930c      	str	r3, [sp, #48]	; 0x30
10003a02:	e69a      	b.n	1000373a <_vsnprintf+0x83a>

10003a04 <vfctprintf>:
10003a04:	b500      	push	{lr}
10003a06:	b085      	sub	sp, #20
10003a08:	9103      	str	r1, [sp, #12]
10003a0a:	2101      	movs	r1, #1
10003a0c:	9002      	str	r0, [sp, #8]
10003a0e:	9300      	str	r3, [sp, #0]
10003a10:	4803      	ldr	r0, [pc, #12]	; (10003a20 <vfctprintf+0x1c>)
10003a12:	0013      	movs	r3, r2
10003a14:	424a      	negs	r2, r1
10003a16:	a902      	add	r1, sp, #8
10003a18:	f7ff fa72 	bl	10002f00 <_vsnprintf>
10003a1c:	b005      	add	sp, #20
10003a1e:	bd00      	pop	{pc}
10003a20:	1000270d 	.word	0x1000270d

10003a24 <weak_raw_vprintf>:
10003a24:	b510      	push	{r4, lr}
10003a26:	4a09      	ldr	r2, [pc, #36]	; (10003a4c <weak_raw_vprintf+0x28>)
10003a28:	0003      	movs	r3, r0
10003a2a:	6814      	ldr	r4, [r2, #0]
10003a2c:	b084      	sub	sp, #16
10003a2e:	2c00      	cmp	r4, #0
10003a30:	d008      	beq.n	10003a44 <weak_raw_vprintf+0x20>
10003a32:	2201      	movs	r2, #1
10003a34:	9100      	str	r1, [sp, #0]
10003a36:	4806      	ldr	r0, [pc, #24]	; (10003a50 <weak_raw_vprintf+0x2c>)
10003a38:	4252      	negs	r2, r2
10003a3a:	a903      	add	r1, sp, #12
10003a3c:	47a0      	blx	r4
10003a3e:	2001      	movs	r0, #1
10003a40:	b004      	add	sp, #16
10003a42:	bd10      	pop	{r4, pc}
10003a44:	f001 f8da 	bl	10004bfc <__wrap_puts>
10003a48:	2000      	movs	r0, #0
10003a4a:	e7f9      	b.n	10003a40 <weak_raw_vprintf+0x1c>
10003a4c:	20001c40 	.word	0x20001c40
10003a50:	100026fd 	.word	0x100026fd

10003a54 <__aeabi_bits_init>:
10003a54:	4801      	ldr	r0, [pc, #4]	; (10003a5c <__aeabi_bits_init+0x8>)
10003a56:	2104      	movs	r1, #4
10003a58:	4b01      	ldr	r3, [pc, #4]	; (10003a60 <__aeabi_bits_init+0xc>)
10003a5a:	4718      	bx	r3
10003a5c:	20000ea0 	.word	0x20000ea0
10003a60:	10003a85 	.word	0x10003a85

10003a64 <rom_func_lookup>:
10003a64:	2314      	movs	r3, #20
10003a66:	b510      	push	{r4, lr}
10003a68:	0001      	movs	r1, r0
10003a6a:	8818      	ldrh	r0, [r3, #0]
10003a6c:	3304      	adds	r3, #4
10003a6e:	881b      	ldrh	r3, [r3, #0]
10003a70:	4798      	blx	r3
10003a72:	bd10      	pop	{r4, pc}

10003a74 <rom_data_lookup>:
10003a74:	2316      	movs	r3, #22
10003a76:	b510      	push	{r4, lr}
10003a78:	0001      	movs	r1, r0
10003a7a:	8818      	ldrh	r0, [r3, #0]
10003a7c:	3302      	adds	r3, #2
10003a7e:	881b      	ldrh	r3, [r3, #0]
10003a80:	4798      	blx	r3
10003a82:	bd10      	pop	{r4, pc}

10003a84 <rom_funcs_lookup>:
10003a84:	b5f8      	push	{r3, r4, r5, r6, r7, lr}
10003a86:	4647      	mov	r7, r8
10003a88:	46ce      	mov	lr, r9
10003a8a:	b580      	push	{r7, lr}
10003a8c:	1e0f      	subs	r7, r1, #0
10003a8e:	d019      	beq.n	10003ac4 <rom_funcs_lookup+0x40>
10003a90:	2314      	movs	r3, #20
10003a92:	4699      	mov	r9, r3
10003a94:	3304      	adds	r3, #4
10003a96:	0004      	movs	r4, r0
10003a98:	2500      	movs	r5, #0
10003a9a:	2601      	movs	r6, #1
10003a9c:	4698      	mov	r8, r3
10003a9e:	464b      	mov	r3, r9
10003aa0:	8818      	ldrh	r0, [r3, #0]
10003aa2:	4643      	mov	r3, r8
10003aa4:	6821      	ldr	r1, [r4, #0]
10003aa6:	881b      	ldrh	r3, [r3, #0]
10003aa8:	4798      	blx	r3
10003aaa:	c401      	stmia	r4!, {r0}
10003aac:	1e43      	subs	r3, r0, #1
10003aae:	4198      	sbcs	r0, r3
10003ab0:	3501      	adds	r5, #1
10003ab2:	4240      	negs	r0, r0
10003ab4:	4006      	ands	r6, r0
10003ab6:	42af      	cmp	r7, r5
10003ab8:	d1f1      	bne.n	10003a9e <rom_funcs_lookup+0x1a>
10003aba:	0030      	movs	r0, r6
10003abc:	bcc0      	pop	{r6, r7}
10003abe:	46b9      	mov	r9, r7
10003ac0:	46b0      	mov	r8, r6
10003ac2:	bdf8      	pop	{r3, r4, r5, r6, r7, pc}
10003ac4:	2601      	movs	r6, #1
10003ac6:	e7f8      	b.n	10003aba <rom_funcs_lookup+0x36>

10003ac8 <__wrap___aeabi_idiv>:
10003ac8:	4a12      	ldr	r2, [pc, #72]	; (10003b14 <divmod_s32s32_savestate+0x18>)
10003aca:	6f93      	ldr	r3, [r2, #120]	; 0x78
10003acc:	089b      	lsrs	r3, r3, #2
10003ace:	d215      	bcs.n	10003afc <divmod_s32s32_savestate>

10003ad0 <divmod_s32s32_unsafe>:
10003ad0:	6690      	str	r0, [r2, #104]	; 0x68
10003ad2:	66d1      	str	r1, [r2, #108]	; 0x6c
10003ad4:	2900      	cmp	r1, #0
10003ad6:	d005      	beq.n	10003ae4 <divmod_s32s32_unsafe+0x14>
10003ad8:	e7ff      	b.n	10003ada <divmod_s32s32_unsafe+0xa>
10003ada:	e7ff      	b.n	10003adc <divmod_s32s32_unsafe+0xc>
10003adc:	e7ff      	b.n	10003ade <divmod_s32s32_unsafe+0xe>
10003ade:	6f51      	ldr	r1, [r2, #116]	; 0x74
10003ae0:	6f10      	ldr	r0, [r2, #112]	; 0x70
10003ae2:	4770      	bx	lr
10003ae4:	b504      	push	{r2, lr}
10003ae6:	2180      	movs	r1, #128	; 0x80
10003ae8:	0609      	lsls	r1, r1, #24
10003aea:	17c2      	asrs	r2, r0, #31
10003aec:	4051      	eors	r1, r2
10003aee:	2800      	cmp	r0, #0
10003af0:	d000      	beq.n	10003af4 <divmod_s32s32_unsafe+0x24>
10003af2:	43c8      	mvns	r0, r1
10003af4:	f003 fae8 	bl	100070c8 <____aeabi_idiv0_veneer>
10003af8:	2100      	movs	r1, #0
10003afa:	bd04      	pop	{r2, pc}

10003afc <divmod_s32s32_savestate>:
10003afc:	b5f0      	push	{r4, r5, r6, r7, lr}
10003afe:	6e14      	ldr	r4, [r2, #96]	; 0x60
10003b00:	6e55      	ldr	r5, [r2, #100]	; 0x64
10003b02:	6f57      	ldr	r7, [r2, #116]	; 0x74
10003b04:	6f16      	ldr	r6, [r2, #112]	; 0x70
10003b06:	f7ff ffe3 	bl	10003ad0 <divmod_s32s32_unsafe>
10003b0a:	6614      	str	r4, [r2, #96]	; 0x60
10003b0c:	6655      	str	r5, [r2, #100]	; 0x64
10003b0e:	6757      	str	r7, [r2, #116]	; 0x74
10003b10:	6716      	str	r6, [r2, #112]	; 0x70
10003b12:	bdf0      	pop	{r4, r5, r6, r7, pc}
10003b14:	d0000000 	.word	0xd0000000

10003b18 <__wrap___aeabi_uidiv>:
10003b18:	4a11      	ldr	r2, [pc, #68]	; (10003b60 <divmod_u32u32_savestate+0x18>)
10003b1a:	6f93      	ldr	r3, [r2, #120]	; 0x78
10003b1c:	089b      	lsrs	r3, r3, #2
10003b1e:	d213      	bcs.n	10003b48 <divmod_u32u32_savestate>

10003b20 <divmod_u32u32_unsafe>:
10003b20:	6610      	str	r0, [r2, #96]	; 0x60
10003b22:	6651      	str	r1, [r2, #100]	; 0x64
10003b24:	2900      	cmp	r1, #0
10003b26:	d005      	beq.n	10003b34 <divmod_u32u32_unsafe+0x14>
10003b28:	e7ff      	b.n	10003b2a <divmod_u32u32_unsafe+0xa>
10003b2a:	e7ff      	b.n	10003b2c <divmod_u32u32_unsafe+0xc>
10003b2c:	e7ff      	b.n	10003b2e <divmod_u32u32_unsafe+0xe>
10003b2e:	6f51      	ldr	r1, [r2, #116]	; 0x74
10003b30:	6f10      	ldr	r0, [r2, #112]	; 0x70
10003b32:	4770      	bx	lr
10003b34:	b504      	push	{r2, lr}
10003b36:	2800      	cmp	r0, #0
10003b38:	d001      	beq.n	10003b3e <divmod_u32u32_unsafe+0x1e>
10003b3a:	2000      	movs	r0, #0
10003b3c:	43c0      	mvns	r0, r0
10003b3e:	f003 fac3 	bl	100070c8 <____aeabi_idiv0_veneer>
10003b42:	2100      	movs	r1, #0
10003b44:	bd04      	pop	{r2, pc}
10003b46:	46c0      	nop			; (mov r8, r8)

10003b48 <divmod_u32u32_savestate>:
10003b48:	b5f0      	push	{r4, r5, r6, r7, lr}
10003b4a:	6e14      	ldr	r4, [r2, #96]	; 0x60
10003b4c:	6e55      	ldr	r5, [r2, #100]	; 0x64
10003b4e:	6f57      	ldr	r7, [r2, #116]	; 0x74
10003b50:	6f16      	ldr	r6, [r2, #112]	; 0x70
10003b52:	f7ff ffe5 	bl	10003b20 <divmod_u32u32_unsafe>
10003b56:	6614      	str	r4, [r2, #96]	; 0x60
10003b58:	6655      	str	r5, [r2, #100]	; 0x64
10003b5a:	6757      	str	r7, [r2, #116]	; 0x74
10003b5c:	6716      	str	r6, [r2, #112]	; 0x70
10003b5e:	bdf0      	pop	{r4, r5, r6, r7, pc}
10003b60:	d0000000 	.word	0xd0000000

10003b64 <__wrap___aeabi_ldivmod>:
10003b64:	4694      	mov	ip, r2
10003b66:	4a4a      	ldr	r2, [pc, #296]	; (10003c90 <udiv0+0x1a>)
10003b68:	6f92      	ldr	r2, [r2, #120]	; 0x78
10003b6a:	0892      	lsrs	r2, r2, #2
10003b6c:	4662      	mov	r2, ip
10003b6e:	d201      	bcs.n	10003b74 <divmod_s64s64_savestate>
10003b70:	e028      	b.n	10003bc4 <divmod_s64s64_unsafe>
10003b72:	46c0      	nop			; (mov r8, r8)

10003b74 <divmod_s64s64_savestate>:
10003b74:	b5f0      	push	{r4, r5, r6, r7, lr}
10003b76:	4e46      	ldr	r6, [pc, #280]	; (10003c90 <udiv0+0x1a>)
10003b78:	6e34      	ldr	r4, [r6, #96]	; 0x60
10003b7a:	6e75      	ldr	r5, [r6, #100]	; 0x64
10003b7c:	6f77      	ldr	r7, [r6, #116]	; 0x74
10003b7e:	6f36      	ldr	r6, [r6, #112]	; 0x70
10003b80:	f000 f820 	bl	10003bc4 <divmod_s64s64_unsafe>
10003b84:	4694      	mov	ip, r2
10003b86:	4a42      	ldr	r2, [pc, #264]	; (10003c90 <udiv0+0x1a>)
10003b88:	6614      	str	r4, [r2, #96]	; 0x60
10003b8a:	6655      	str	r5, [r2, #100]	; 0x64
10003b8c:	6757      	str	r7, [r2, #116]	; 0x74
10003b8e:	6716      	str	r6, [r2, #112]	; 0x70
10003b90:	4662      	mov	r2, ip
10003b92:	bdf0      	pop	{r4, r5, r6, r7, pc}

10003b94 <__wrap___aeabi_uldivmod>:
10003b94:	4694      	mov	ip, r2
10003b96:	4a3e      	ldr	r2, [pc, #248]	; (10003c90 <udiv0+0x1a>)
10003b98:	6f92      	ldr	r2, [r2, #120]	; 0x78
10003b9a:	0892      	lsrs	r2, r2, #2
10003b9c:	4662      	mov	r2, ip
10003b9e:	d201      	bcs.n	10003ba4 <divmod_u64u64_savestate>
10003ba0:	e054      	b.n	10003c4c <divmod_u64u64_unsafe>
10003ba2:	46c0      	nop			; (mov r8, r8)

10003ba4 <divmod_u64u64_savestate>:
10003ba4:	b5f0      	push	{r4, r5, r6, r7, lr}
10003ba6:	4e3a      	ldr	r6, [pc, #232]	; (10003c90 <udiv0+0x1a>)
10003ba8:	6e34      	ldr	r4, [r6, #96]	; 0x60
10003baa:	6e75      	ldr	r5, [r6, #100]	; 0x64
10003bac:	6f77      	ldr	r7, [r6, #116]	; 0x74
10003bae:	6f36      	ldr	r6, [r6, #112]	; 0x70
10003bb0:	f000 f84c 	bl	10003c4c <divmod_u64u64_unsafe>
10003bb4:	4694      	mov	ip, r2
10003bb6:	4a36      	ldr	r2, [pc, #216]	; (10003c90 <udiv0+0x1a>)
10003bb8:	6614      	str	r4, [r2, #96]	; 0x60
10003bba:	6655      	str	r5, [r2, #100]	; 0x64
10003bbc:	6757      	str	r7, [r2, #116]	; 0x74
10003bbe:	6716      	str	r6, [r2, #112]	; 0x70
10003bc0:	4662      	mov	r2, ip
10003bc2:	bdf0      	pop	{r4, r5, r6, r7, pc}

10003bc4 <divmod_s64s64_unsafe>:
10003bc4:	2b00      	cmp	r3, #0
10003bc6:	db24      	blt.n	10003c12 <l42_1+0x26>
10003bc8:	d011      	beq.n	10003bee <l42_1+0x2>
10003bca:	2900      	cmp	r1, #0
10003bcc:	da3e      	bge.n	10003c4c <divmod_u64u64_unsafe>
10003bce:	b500      	push	{lr}
10003bd0:	43c9      	mvns	r1, r1
10003bd2:	4240      	negs	r0, r0
10003bd4:	d100      	bne.n	10003bd8 <l40_1>
10003bd6:	3101      	adds	r1, #1

10003bd8 <l40_1>:
10003bd8:	f000 f838 	bl	10003c4c <divmod_u64u64_unsafe>
10003bdc:	43c9      	mvns	r1, r1
10003bde:	4240      	negs	r0, r0
10003be0:	d100      	bne.n	10003be4 <l41_1>
10003be2:	3101      	adds	r1, #1

10003be4 <l41_1>:
10003be4:	43db      	mvns	r3, r3
10003be6:	4252      	negs	r2, r2
10003be8:	d100      	bne.n	10003bec <l42_1>
10003bea:	3301      	adds	r3, #1

10003bec <l42_1>:
10003bec:	bd00      	pop	{pc}
10003bee:	2a00      	cmp	r2, #0
10003bf0:	d1eb      	bne.n	10003bca <divmod_s64s64_unsafe+0x6>
10003bf2:	2800      	cmp	r0, #0
10003bf4:	d101      	bne.n	10003bfa <l42_1+0xe>
10003bf6:	2900      	cmp	r1, #0
10003bf8:	d005      	beq.n	10003c06 <l42_1+0x1a>
10003bfa:	2000      	movs	r0, #0
10003bfc:	0fc9      	lsrs	r1, r1, #31
10003bfe:	07c9      	lsls	r1, r1, #31
10003c00:	d101      	bne.n	10003c06 <l42_1+0x1a>
10003c02:	43c0      	mvns	r0, r0
10003c04:	0841      	lsrs	r1, r0, #1
10003c06:	b500      	push	{lr}
10003c08:	f003 fa4e 	bl	100070a8 <____aeabi_ldiv0_veneer>
10003c0c:	2200      	movs	r2, #0
10003c0e:	2300      	movs	r3, #0
10003c10:	bd00      	pop	{pc}
10003c12:	b500      	push	{lr}
10003c14:	2900      	cmp	r1, #0
10003c16:	db0a      	blt.n	10003c2e <l44_1+0x2>
10003c18:	43db      	mvns	r3, r3
10003c1a:	4252      	negs	r2, r2
10003c1c:	d100      	bne.n	10003c20 <l43_1>
10003c1e:	3301      	adds	r3, #1

10003c20 <l43_1>:
10003c20:	f000 f814 	bl	10003c4c <divmod_u64u64_unsafe>
10003c24:	43c9      	mvns	r1, r1
10003c26:	4240      	negs	r0, r0
10003c28:	d100      	bne.n	10003c2c <l44_1>
10003c2a:	3101      	adds	r1, #1

10003c2c <l44_1>:
10003c2c:	bd00      	pop	{pc}
10003c2e:	43c9      	mvns	r1, r1
10003c30:	4240      	negs	r0, r0
10003c32:	d100      	bne.n	10003c36 <l45_1>
10003c34:	3101      	adds	r1, #1

10003c36 <l45_1>:
10003c36:	43db      	mvns	r3, r3
10003c38:	4252      	negs	r2, r2
10003c3a:	d100      	bne.n	10003c3e <l46_1>
10003c3c:	3301      	adds	r3, #1

10003c3e <l46_1>:
10003c3e:	f000 f805 	bl	10003c4c <divmod_u64u64_unsafe>
10003c42:	43db      	mvns	r3, r3
10003c44:	4252      	negs	r2, r2
10003c46:	d100      	bne.n	10003c4a <l47_1>
10003c48:	3301      	adds	r3, #1

10003c4a <l47_1>:
10003c4a:	bd00      	pop	{pc}

10003c4c <divmod_u64u64_unsafe>:
10003c4c:	2900      	cmp	r1, #0
10003c4e:	d123      	bne.n	10003c98 <y64>
10003c50:	2b00      	cmp	r3, #0
10003c52:	d118      	bne.n	10003c86 <udiv0+0x10>
10003c54:	2a00      	cmp	r2, #0
10003c56:	d00c      	beq.n	10003c72 <divmod_u64u64_unsafe+0x26>
10003c58:	46bc      	mov	ip, r7
10003c5a:	4f0d      	ldr	r7, [pc, #52]	; (10003c90 <udiv0+0x1a>)
10003c5c:	6638      	str	r0, [r7, #96]	; 0x60
10003c5e:	667a      	str	r2, [r7, #100]	; 0x64
10003c60:	2100      	movs	r1, #0
10003c62:	2300      	movs	r3, #0
10003c64:	e7ff      	b.n	10003c66 <divmod_u64u64_unsafe+0x1a>
10003c66:	e7ff      	b.n	10003c68 <divmod_u64u64_unsafe+0x1c>
10003c68:	e7ff      	b.n	10003c6a <divmod_u64u64_unsafe+0x1e>
10003c6a:	6f7a      	ldr	r2, [r7, #116]	; 0x74
10003c6c:	6f38      	ldr	r0, [r7, #112]	; 0x70
10003c6e:	4667      	mov	r7, ip
10003c70:	4770      	bx	lr
10003c72:	2800      	cmp	r0, #0
10003c74:	d001      	beq.n	10003c7a <udiv0+0x4>

10003c76 <udiv0>:
10003c76:	4807      	ldr	r0, [pc, #28]	; (10003c94 <udiv0+0x1e>)
10003c78:	0001      	movs	r1, r0
10003c7a:	b500      	push	{lr}
10003c7c:	f003 fa14 	bl	100070a8 <____aeabi_ldiv0_veneer>
10003c80:	2200      	movs	r2, #0
10003c82:	2300      	movs	r3, #0
10003c84:	bd00      	pop	{pc}
10003c86:	0002      	movs	r2, r0
10003c88:	000b      	movs	r3, r1
10003c8a:	2000      	movs	r0, #0
10003c8c:	2100      	movs	r1, #0
10003c8e:	4770      	bx	lr
10003c90:	d0000000 	.word	0xd0000000
10003c94:	ffffffff 	.word	0xffffffff

10003c98 <y64>:
10003c98:	2b00      	cmp	r3, #0
10003c9a:	d000      	beq.n	10003c9e <y64+0x6>
10003c9c:	e0bf      	b.n	10003e1e <y64_x48>
10003c9e:	0c13      	lsrs	r3, r2, #16
10003ca0:	d128      	bne.n	10003cf4 <y64_x32>
10003ca2:	2a00      	cmp	r2, #0
10003ca4:	d0e7      	beq.n	10003c76 <udiv0>
10003ca6:	b480      	push	{r7}
10003ca8:	4f11      	ldr	r7, [pc, #68]	; (10003cf0 <y64+0x58>)
10003caa:	6639      	str	r1, [r7, #96]	; 0x60
10003cac:	667a      	str	r2, [r7, #100]	; 0x64
10003cae:	e7ff      	b.n	10003cb0 <y64+0x18>
10003cb0:	e7ff      	b.n	10003cb2 <y64+0x1a>
10003cb2:	b430      	push	{r4, r5}
10003cb4:	0c04      	lsrs	r4, r0, #16
10003cb6:	6f7b      	ldr	r3, [r7, #116]	; 0x74
10003cb8:	6f39      	ldr	r1, [r7, #112]	; 0x70
10003cba:	041b      	lsls	r3, r3, #16
10003cbc:	4323      	orrs	r3, r4
10003cbe:	663b      	str	r3, [r7, #96]	; 0x60
10003cc0:	667a      	str	r2, [r7, #100]	; 0x64
10003cc2:	e7ff      	b.n	10003cc4 <y64+0x2c>
10003cc4:	e7ff      	b.n	10003cc6 <y64+0x2e>
10003cc6:	e7ff      	b.n	10003cc8 <y64+0x30>
10003cc8:	46c0      	nop			; (mov r8, r8)
10003cca:	b284      	uxth	r4, r0
10003ccc:	6f7b      	ldr	r3, [r7, #116]	; 0x74
10003cce:	6f3d      	ldr	r5, [r7, #112]	; 0x70
10003cd0:	041b      	lsls	r3, r3, #16
10003cd2:	4323      	orrs	r3, r4
10003cd4:	663b      	str	r3, [r7, #96]	; 0x60
10003cd6:	667a      	str	r2, [r7, #100]	; 0x64
10003cd8:	e7ff      	b.n	10003cda <y64+0x42>
10003cda:	e7ff      	b.n	10003cdc <y64+0x44>
10003cdc:	46c0      	nop			; (mov r8, r8)
10003cde:	2300      	movs	r3, #0
10003ce0:	042c      	lsls	r4, r5, #16
10003ce2:	0c2d      	lsrs	r5, r5, #16
10003ce4:	6f7a      	ldr	r2, [r7, #116]	; 0x74
10003ce6:	6f38      	ldr	r0, [r7, #112]	; 0x70
10003ce8:	1900      	adds	r0, r0, r4
10003cea:	4169      	adcs	r1, r5
10003cec:	bcb0      	pop	{r4, r5, r7}
10003cee:	4770      	bx	lr
10003cf0:	d0000000 	.word	0xd0000000

10003cf4 <y64_x32>:
10003cf4:	b5f0      	push	{r4, r5, r6, r7, lr}
10003cf6:	4694      	mov	ip, r2
10003cf8:	2500      	movs	r5, #0
10003cfa:	0e14      	lsrs	r4, r2, #24
10003cfc:	d101      	bne.n	10003d02 <y64_x32+0xe>
10003cfe:	0212      	lsls	r2, r2, #8
10003d00:	3508      	adds	r5, #8
10003d02:	0f14      	lsrs	r4, r2, #28
10003d04:	d101      	bne.n	10003d0a <y64_x32+0x16>
10003d06:	0112      	lsls	r2, r2, #4
10003d08:	3504      	adds	r5, #4
10003d0a:	0f94      	lsrs	r4, r2, #30
10003d0c:	d101      	bne.n	10003d12 <y64_x32+0x1e>
10003d0e:	0092      	lsls	r2, r2, #2
10003d10:	3502      	adds	r5, #2
10003d12:	0fd4      	lsrs	r4, r2, #31
10003d14:	d101      	bne.n	10003d1a <y64_x32+0x26>
10003d16:	0052      	lsls	r2, r2, #1
10003d18:	3501      	adds	r5, #1
10003d1a:	0bd4      	lsrs	r4, r2, #15
10003d1c:	3401      	adds	r4, #1
10003d1e:	4f25      	ldr	r7, [pc, #148]	; (10003db4 <y64_x32+0xc0>)
10003d20:	667c      	str	r4, [r7, #100]	; 0x64
10003d22:	4c25      	ldr	r4, [pc, #148]	; (10003db8 <y64_x32+0xc4>)
10003d24:	663c      	str	r4, [r7, #96]	; 0x60
10003d26:	0c0e      	lsrs	r6, r1, #16
10003d28:	b293      	uxth	r3, r2
10003d2a:	e7ff      	b.n	10003d2c <y64_x32+0x38>
10003d2c:	e7ff      	b.n	10003d2e <y64_x32+0x3a>
10003d2e:	e7ff      	b.n	10003d30 <y64_x32+0x3c>
10003d30:	6f3c      	ldr	r4, [r7, #112]	; 0x70
10003d32:	4366      	muls	r6, r4
10003d34:	0c36      	lsrs	r6, r6, #16
10003d36:	0377      	lsls	r7, r6, #13
10003d38:	46be      	mov	lr, r7
10003d3a:	4373      	muls	r3, r6
10003d3c:	0bdf      	lsrs	r7, r3, #15
10003d3e:	045b      	lsls	r3, r3, #17
10003d40:	1ac0      	subs	r0, r0, r3
10003d42:	41b9      	sbcs	r1, r7
10003d44:	0c13      	lsrs	r3, r2, #16
10003d46:	4373      	muls	r3, r6
10003d48:	18db      	adds	r3, r3, r3
10003d4a:	1ac9      	subs	r1, r1, r3
10003d4c:	08ce      	lsrs	r6, r1, #3
10003d4e:	4366      	muls	r6, r4
10003d50:	0c36      	lsrs	r6, r6, #16
10003d52:	44b6      	add	lr, r6
10003d54:	b293      	uxth	r3, r2
10003d56:	4373      	muls	r3, r6
10003d58:	0f1f      	lsrs	r7, r3, #28
10003d5a:	011b      	lsls	r3, r3, #4
10003d5c:	1ac0      	subs	r0, r0, r3
10003d5e:	41b9      	sbcs	r1, r7
10003d60:	0c13      	lsrs	r3, r2, #16
10003d62:	4373      	muls	r3, r6
10003d64:	0b1f      	lsrs	r7, r3, #12
10003d66:	051b      	lsls	r3, r3, #20
10003d68:	1ac0      	subs	r0, r0, r3
10003d6a:	41b9      	sbcs	r1, r7
10003d6c:	0d86      	lsrs	r6, r0, #22
10003d6e:	028f      	lsls	r7, r1, #10
10003d70:	433e      	orrs	r6, r7
10003d72:	4366      	muls	r6, r4
10003d74:	0c36      	lsrs	r6, r6, #16
10003d76:	2d09      	cmp	r5, #9
10003d78:	db24      	blt.n	10003dc4 <last0>
10003d7a:	0a52      	lsrs	r2, r2, #9
10003d7c:	4372      	muls	r2, r6
10003d7e:	1a80      	subs	r0, r0, r2
10003d80:	0377      	lsls	r7, r6, #13
10003d82:	0a46      	lsrs	r6, r0, #9
10003d84:	4366      	muls	r6, r4
10003d86:	0c36      	lsrs	r6, r6, #16
10003d88:	2316      	movs	r3, #22
10003d8a:	1b5b      	subs	r3, r3, r5
10003d8c:	40de      	lsrs	r6, r3
10003d8e:	40df      	lsrs	r7, r3
10003d90:	19bf      	adds	r7, r7, r6
10003d92:	4664      	mov	r4, ip
10003d94:	4366      	muls	r6, r4
10003d96:	1b82      	subs	r2, r0, r6
10003d98:	4670      	mov	r0, lr
10003d9a:	3504      	adds	r5, #4
10003d9c:	3306      	adds	r3, #6
10003d9e:	0001      	movs	r1, r0
10003da0:	40d9      	lsrs	r1, r3
10003da2:	40a8      	lsls	r0, r5
10003da4:	19c0      	adds	r0, r0, r7
10003da6:	d300      	bcc.n	10003daa <y64_x32+0xb6>
10003da8:	3101      	adds	r1, #1
10003daa:	42a2      	cmp	r2, r4
10003dac:	d206      	bcs.n	10003dbc <y64_x32+0xc8>
10003dae:	2300      	movs	r3, #0
10003db0:	bdf0      	pop	{r4, r5, r6, r7, pc}
10003db2:	0000      	.short	0x0000
10003db4:	d0000000 	.word	0xd0000000
10003db8:	ffffffff 	.word	0xffffffff
10003dbc:	1b12      	subs	r2, r2, r4
10003dbe:	3001      	adds	r0, #1
10003dc0:	d3f3      	bcc.n	10003daa <y64_x32+0xb6>
10003dc2:	e7f1      	b.n	10003da8 <y64_x32+0xb4>

10003dc4 <last0>:
10003dc4:	2709      	movs	r7, #9
10003dc6:	1b7f      	subs	r7, r7, r5
10003dc8:	40fe      	lsrs	r6, r7
10003dca:	4664      	mov	r4, ip
10003dcc:	b2a2      	uxth	r2, r4
10003dce:	4372      	muls	r2, r6
10003dd0:	1a80      	subs	r0, r0, r2
10003dd2:	d200      	bcs.n	10003dd6 <last0+0x12>
10003dd4:	3901      	subs	r1, #1
10003dd6:	0c22      	lsrs	r2, r4, #16
10003dd8:	4372      	muls	r2, r6
10003dda:	0c13      	lsrs	r3, r2, #16
10003ddc:	0412      	lsls	r2, r2, #16
10003dde:	1a82      	subs	r2, r0, r2
10003de0:	4199      	sbcs	r1, r3
10003de2:	000b      	movs	r3, r1
10003de4:	4670      	mov	r0, lr
10003de6:	3504      	adds	r5, #4
10003de8:	3713      	adds	r7, #19
10003dea:	0001      	movs	r1, r0
10003dec:	40f9      	lsrs	r1, r7
10003dee:	40a8      	lsls	r0, r5
10003df0:	1980      	adds	r0, r0, r6
10003df2:	d300      	bcc.n	10003df6 <last0+0x32>
10003df4:	3101      	adds	r1, #1
10003df6:	2b00      	cmp	r3, #0
10003df8:	d102      	bne.n	10003e00 <last0+0x3c>
10003dfa:	42a2      	cmp	r2, r4
10003dfc:	d20a      	bcs.n	10003e14 <last0+0x50>
10003dfe:	bdf0      	pop	{r4, r5, r6, r7, pc}
10003e00:	3001      	adds	r0, #1
10003e02:	d300      	bcc.n	10003e06 <last0+0x42>
10003e04:	3101      	adds	r1, #1
10003e06:	1b12      	subs	r2, r2, r4
10003e08:	d2fa      	bcs.n	10003e00 <last0+0x3c>
10003e0a:	3b01      	subs	r3, #1
10003e0c:	d1f8      	bne.n	10003e00 <last0+0x3c>
10003e0e:	42a2      	cmp	r2, r4
10003e10:	d200      	bcs.n	10003e14 <last0+0x50>
10003e12:	bdf0      	pop	{r4, r5, r6, r7, pc}
10003e14:	3001      	adds	r0, #1
10003e16:	d300      	bcc.n	10003e1a <last0+0x56>
10003e18:	3101      	adds	r1, #1
10003e1a:	1b12      	subs	r2, r2, r4
10003e1c:	e7f7      	b.n	10003e0e <last0+0x4a>

10003e1e <y64_x48>:
10003e1e:	b5f0      	push	{r4, r5, r6, r7, lr}
10003e20:	0c1c      	lsrs	r4, r3, #16
10003e22:	d000      	beq.n	10003e26 <y64_x48+0x8>
10003e24:	e080      	b.n	10003f28 <y64_x64>
10003e26:	b40c      	push	{r2, r3}
10003e28:	2500      	movs	r5, #0
10003e2a:	0a1c      	lsrs	r4, r3, #8
10003e2c:	d104      	bne.n	10003e38 <y64_x48+0x1a>
10003e2e:	021b      	lsls	r3, r3, #8
10003e30:	0e16      	lsrs	r6, r2, #24
10003e32:	4333      	orrs	r3, r6
10003e34:	0212      	lsls	r2, r2, #8
10003e36:	3508      	adds	r5, #8
10003e38:	0b1c      	lsrs	r4, r3, #12
10003e3a:	d104      	bne.n	10003e46 <y64_x48+0x28>
10003e3c:	011b      	lsls	r3, r3, #4
10003e3e:	0f16      	lsrs	r6, r2, #28
10003e40:	4333      	orrs	r3, r6
10003e42:	0112      	lsls	r2, r2, #4
10003e44:	3504      	adds	r5, #4
10003e46:	0b9c      	lsrs	r4, r3, #14
10003e48:	d104      	bne.n	10003e54 <y64_x48+0x36>
10003e4a:	009b      	lsls	r3, r3, #2
10003e4c:	0f96      	lsrs	r6, r2, #30
10003e4e:	4333      	orrs	r3, r6
10003e50:	0092      	lsls	r2, r2, #2
10003e52:	3502      	adds	r5, #2
10003e54:	0bdc      	lsrs	r4, r3, #15
10003e56:	d102      	bne.n	10003e5e <y64_x48+0x40>
10003e58:	1892      	adds	r2, r2, r2
10003e5a:	415b      	adcs	r3, r3
10003e5c:	3501      	adds	r5, #1
10003e5e:	001c      	movs	r4, r3
10003e60:	1897      	adds	r7, r2, r2
10003e62:	4164      	adcs	r4, r4
10003e64:	3401      	adds	r4, #1
10003e66:	4f46      	ldr	r7, [pc, #280]	; (10003f80 <y64_x64+0x58>)
10003e68:	667c      	str	r4, [r7, #100]	; 0x64
10003e6a:	4c46      	ldr	r4, [pc, #280]	; (10003f84 <y64_x64+0x5c>)
10003e6c:	663c      	str	r4, [r7, #96]	; 0x60
10003e6e:	0c0e      	lsrs	r6, r1, #16
10003e70:	e7ff      	b.n	10003e72 <y64_x48+0x54>
10003e72:	e7ff      	b.n	10003e74 <y64_x48+0x56>
10003e74:	e7ff      	b.n	10003e76 <y64_x48+0x58>
10003e76:	46c0      	nop			; (mov r8, r8)
10003e78:	6f3c      	ldr	r4, [r7, #112]	; 0x70
10003e7a:	4366      	muls	r6, r4
10003e7c:	0c36      	lsrs	r6, r6, #16
10003e7e:	0377      	lsls	r7, r6, #13
10003e80:	46be      	mov	lr, r7
10003e82:	b297      	uxth	r7, r2
10003e84:	4377      	muls	r7, r6
10003e86:	1bc0      	subs	r0, r0, r7
10003e88:	d200      	bcs.n	10003e8c <y64_x48+0x6e>
10003e8a:	3901      	subs	r1, #1
10003e8c:	1bc0      	subs	r0, r0, r7
10003e8e:	d200      	bcs.n	10003e92 <y64_x48+0x74>
10003e90:	3901      	subs	r1, #1
10003e92:	b29f      	uxth	r7, r3
10003e94:	4377      	muls	r7, r6
10003e96:	1bc9      	subs	r1, r1, r7
10003e98:	1bc9      	subs	r1, r1, r7
10003e9a:	0c17      	lsrs	r7, r2, #16
10003e9c:	4377      	muls	r7, r6
10003e9e:	047e      	lsls	r6, r7, #17
10003ea0:	0bff      	lsrs	r7, r7, #15
10003ea2:	1b80      	subs	r0, r0, r6
10003ea4:	41b9      	sbcs	r1, r7
10003ea6:	08ce      	lsrs	r6, r1, #3
10003ea8:	4366      	muls	r6, r4
10003eaa:	0c36      	lsrs	r6, r6, #16
10003eac:	2d0c      	cmp	r5, #12
10003eae:	db33      	blt.n	10003f18 <last1>
10003eb0:	44b6      	add	lr, r6
10003eb2:	0b12      	lsrs	r2, r2, #12
10003eb4:	051f      	lsls	r7, r3, #20
10003eb6:	433a      	orrs	r2, r7
10003eb8:	0b1b      	lsrs	r3, r3, #12
10003eba:	b297      	uxth	r7, r2
10003ebc:	4377      	muls	r7, r6
10003ebe:	1bc0      	subs	r0, r0, r7
10003ec0:	d200      	bcs.n	10003ec4 <y64_x48+0xa6>
10003ec2:	3901      	subs	r1, #1
10003ec4:	b29f      	uxth	r7, r3
10003ec6:	4377      	muls	r7, r6
10003ec8:	1bc9      	subs	r1, r1, r7
10003eca:	0c17      	lsrs	r7, r2, #16
10003ecc:	4377      	muls	r7, r6
10003ece:	043e      	lsls	r6, r7, #16
10003ed0:	0c3f      	lsrs	r7, r7, #16
10003ed2:	1b80      	subs	r0, r0, r6
10003ed4:	41b9      	sbcs	r1, r7
10003ed6:	0d86      	lsrs	r6, r0, #22
10003ed8:	028f      	lsls	r7, r1, #10
10003eda:	433e      	orrs	r6, r7
10003edc:	4366      	muls	r6, r4
10003ede:	2729      	movs	r7, #41	; 0x29
10003ee0:	1b7f      	subs	r7, r7, r5
10003ee2:	40fe      	lsrs	r6, r7
10003ee4:	3d0c      	subs	r5, #12
10003ee6:	4677      	mov	r7, lr
10003ee8:	40af      	lsls	r7, r5
10003eea:	19bf      	adds	r7, r7, r6
10003eec:	bc30      	pop	{r4, r5}
10003eee:	b2a2      	uxth	r2, r4
10003ef0:	b2ab      	uxth	r3, r5
10003ef2:	4372      	muls	r2, r6
10003ef4:	4373      	muls	r3, r6
10003ef6:	1a80      	subs	r0, r0, r2
10003ef8:	4199      	sbcs	r1, r3
10003efa:	0c22      	lsrs	r2, r4, #16
10003efc:	4372      	muls	r2, r6
10003efe:	0c13      	lsrs	r3, r2, #16
10003f00:	0412      	lsls	r2, r2, #16
10003f02:	1a80      	subs	r0, r0, r2
10003f04:	4199      	sbcs	r1, r3
10003f06:	0002      	movs	r2, r0
10003f08:	000b      	movs	r3, r1
10003f0a:	3701      	adds	r7, #1
10003f0c:	1b00      	subs	r0, r0, r4
10003f0e:	41a9      	sbcs	r1, r5
10003f10:	d2f9      	bcs.n	10003f06 <y64_x48+0xe8>
10003f12:	1e78      	subs	r0, r7, #1
10003f14:	2100      	movs	r1, #0
10003f16:	bdf0      	pop	{r4, r5, r6, r7, pc}

10003f18 <last1>:
10003f18:	270c      	movs	r7, #12
10003f1a:	1b7f      	subs	r7, r7, r5
10003f1c:	40fe      	lsrs	r6, r7
10003f1e:	4677      	mov	r7, lr
10003f20:	0b7f      	lsrs	r7, r7, #13
10003f22:	40af      	lsls	r7, r5
10003f24:	19ff      	adds	r7, r7, r7
10003f26:	e7e0      	b.n	10003eea <y64_x48+0xcc>

10003f28 <y64_x64>:
10003f28:	2400      	movs	r4, #0
10003f2a:	1c5d      	adds	r5, r3, #1
10003f2c:	d007      	beq.n	10003f3e <y64_x64+0x16>
10003f2e:	4f14      	ldr	r7, [pc, #80]	; (10003f80 <y64_x64+0x58>)
10003f30:	667d      	str	r5, [r7, #100]	; 0x64
10003f32:	6639      	str	r1, [r7, #96]	; 0x60
10003f34:	e7ff      	b.n	10003f36 <y64_x64+0xe>
10003f36:	e7ff      	b.n	10003f38 <y64_x64+0x10>
10003f38:	e7ff      	b.n	10003f3a <y64_x64+0x12>
10003f3a:	e7ff      	b.n	10003f3c <y64_x64+0x14>
10003f3c:	6f3c      	ldr	r4, [r7, #112]	; 0x70
10003f3e:	b295      	uxth	r5, r2
10003f40:	b29e      	uxth	r6, r3
10003f42:	4365      	muls	r5, r4
10003f44:	4366      	muls	r6, r4
10003f46:	1b40      	subs	r0, r0, r5
10003f48:	41b1      	sbcs	r1, r6
10003f4a:	0c15      	lsrs	r5, r2, #16
10003f4c:	0c1e      	lsrs	r6, r3, #16
10003f4e:	4365      	muls	r5, r4
10003f50:	4366      	muls	r6, r4
10003f52:	0436      	lsls	r6, r6, #16
10003f54:	0c2f      	lsrs	r7, r5, #16
10003f56:	433e      	orrs	r6, r7
10003f58:	042d      	lsls	r5, r5, #16
10003f5a:	1b40      	subs	r0, r0, r5
10003f5c:	41b1      	sbcs	r1, r6
10003f5e:	4299      	cmp	r1, r3
10003f60:	d204      	bcs.n	10003f6c <y64_x64+0x44>
10003f62:	0002      	movs	r2, r0
10003f64:	000b      	movs	r3, r1
10003f66:	0020      	movs	r0, r4
10003f68:	2100      	movs	r1, #0
10003f6a:	bdf0      	pop	{r4, r5, r6, r7, pc}
10003f6c:	d101      	bne.n	10003f72 <y64_x64+0x4a>
10003f6e:	4290      	cmp	r0, r2
10003f70:	d3f7      	bcc.n	10003f62 <y64_x64+0x3a>
10003f72:	1a80      	subs	r0, r0, r2
10003f74:	4199      	sbcs	r1, r3
10003f76:	3401      	adds	r4, #1
10003f78:	4299      	cmp	r1, r3
10003f7a:	d3f2      	bcc.n	10003f62 <y64_x64+0x3a>
10003f7c:	e7f6      	b.n	10003f6c <y64_x64+0x44>
10003f7e:	0000      	.short	0x0000
10003f80:	d0000000 	.word	0xd0000000
10003f84:	ffffffff 	.word	0xffffffff

10003f88 <__wrap___aeabi_drsub>:
10003f88:	4048      	eors	r0, r1
10003f8a:	4041      	eors	r1, r0
10003f8c:	4048      	eors	r0, r1

10003f8e <__wrap___aeabi_dsub>:
10003f8e:	b418      	push	{r3, r4}
10003f90:	4b1b      	ldr	r3, [pc, #108]	; (10004000 <__wrap___aeabi_dmul+0x12>)
10003f92:	685b      	ldr	r3, [r3, #4]
10003f94:	46fc      	mov	ip, pc
10003f96:	9301      	str	r3, [sp, #4]
10003f98:	bd08      	pop	{r3, pc}
10003f9a:	df04      	.short	0xdf04
10003f9c:	10004227 	.word	0x10004227

10003fa0 <__wrap___aeabi_dadd>:
10003fa0:	b418      	push	{r3, r4}
10003fa2:	4b17      	ldr	r3, [pc, #92]	; (10004000 <__wrap___aeabi_dmul+0x12>)
10003fa4:	681b      	ldr	r3, [r3, #0]
10003fa6:	46fc      	mov	ip, pc
10003fa8:	9301      	str	r3, [sp, #4]
10003faa:	bd08      	pop	{r3, pc}
10003fac:	4231df00 	.word	0x4231df00
10003fb0:	1000      	.short	0x1000

10003fb2 <__wrap___aeabi_ddiv>:
10003fb2:	4694      	mov	ip, r2
10003fb4:	4a13      	ldr	r2, [pc, #76]	; (10004004 <__wrap___aeabi_dmul+0x16>)
10003fb6:	6f92      	ldr	r2, [r2, #120]	; 0x78
10003fb8:	0892      	lsrs	r2, r2, #2
10003fba:	d209      	bcs.n	10003fd0 <ddiv_save_state>
10003fbc:	4662      	mov	r2, ip

10003fbe <ddiv_shim_call>:
10003fbe:	b418      	push	{r3, r4}
10003fc0:	4b0f      	ldr	r3, [pc, #60]	; (10004000 <__wrap___aeabi_dmul+0x12>)
10003fc2:	68db      	ldr	r3, [r3, #12]
10003fc4:	46fc      	mov	ip, pc
10003fc6:	9301      	str	r3, [sp, #4]
10003fc8:	bd08      	pop	{r3, pc}
10003fca:	df0c      	.short	0xdf0c
10003fcc:	100044e9 	.word	0x100044e9

10003fd0 <ddiv_save_state>:
10003fd0:	4a0c      	ldr	r2, [pc, #48]	; (10004004 <__wrap___aeabi_dmul+0x16>)
10003fd2:	b5f0      	push	{r4, r5, r6, r7, lr}
10003fd4:	6e14      	ldr	r4, [r2, #96]	; 0x60
10003fd6:	6e55      	ldr	r5, [r2, #100]	; 0x64
10003fd8:	6f57      	ldr	r7, [r2, #116]	; 0x74
10003fda:	6f16      	ldr	r6, [r2, #112]	; 0x70
10003fdc:	4662      	mov	r2, ip
10003fde:	f7ff ffee 	bl	10003fbe <ddiv_shim_call>
10003fe2:	4a08      	ldr	r2, [pc, #32]	; (10004004 <__wrap___aeabi_dmul+0x16>)
10003fe4:	6614      	str	r4, [r2, #96]	; 0x60
10003fe6:	6655      	str	r5, [r2, #100]	; 0x64
10003fe8:	6757      	str	r7, [r2, #116]	; 0x74
10003fea:	6716      	str	r6, [r2, #112]	; 0x70
10003fec:	bdf0      	pop	{r4, r5, r6, r7, pc}

10003fee <__wrap___aeabi_dmul>:
10003fee:	b418      	push	{r3, r4}
10003ff0:	4b03      	ldr	r3, [pc, #12]	; (10004000 <__wrap___aeabi_dmul+0x12>)
10003ff2:	689b      	ldr	r3, [r3, #8]
10003ff4:	46fc      	mov	ip, pc
10003ff6:	9301      	str	r3, [sp, #4]
10003ff8:	bd08      	pop	{r3, pc}
10003ffa:	df08      	.short	0xdf08
10003ffc:	1000438d 	.word	0x1000438d
10004000:	20001028 	.word	0x20001028
10004004:	d0000000 	.word	0xd0000000

10004008 <__wrap___aeabi_cdrcmple>:
10004008:	b5ff      	push	{r0, r1, r2, r3, r4, r5, r6, r7, lr}
1000400a:	4050      	eors	r0, r2
1000400c:	4042      	eors	r2, r0
1000400e:	4050      	eors	r0, r2
10004010:	4059      	eors	r1, r3
10004012:	404b      	eors	r3, r1
10004014:	4059      	eors	r1, r3
10004016:	e000      	b.n	1000401a <__aeabi_dfcmple_guts>

10004018 <__wrap___aeabi_cdcmpeq>:
10004018:	b5ff      	push	{r0, r1, r2, r3, r4, r5, r6, r7, lr}

1000401a <__aeabi_dfcmple_guts>:
1000401a:	4f15      	ldr	r7, [pc, #84]	; (10004070 <__aeabi_dfcmple_guts+0x56>)
1000401c:	004c      	lsls	r4, r1, #1
1000401e:	0d64      	lsrs	r4, r4, #21
10004020:	d003      	beq.n	1000402a <__aeabi_dfcmple_guts+0x10>
10004022:	42bc      	cmp	r4, r7
10004024:	d104      	bne.n	10004030 <__aeabi_dfcmple_guts+0x16>
10004026:	030c      	lsls	r4, r1, #12
10004028:	d814      	bhi.n	10004054 <__aeabi_dfcmple_guts+0x3a>
1000402a:	2000      	movs	r0, #0
1000402c:	0d09      	lsrs	r1, r1, #20
1000402e:	0509      	lsls	r1, r1, #20
10004030:	005c      	lsls	r4, r3, #1
10004032:	0d64      	lsrs	r4, r4, #21
10004034:	d003      	beq.n	1000403e <__aeabi_dfcmple_guts+0x24>
10004036:	42bc      	cmp	r4, r7
10004038:	d104      	bne.n	10004044 <__aeabi_dfcmple_guts+0x2a>
1000403a:	031c      	lsls	r4, r3, #12
1000403c:	d80a      	bhi.n	10004054 <__aeabi_dfcmple_guts+0x3a>
1000403e:	2200      	movs	r2, #0
10004040:	0d1b      	lsrs	r3, r3, #20
10004042:	051b      	lsls	r3, r3, #20
10004044:	2601      	movs	r6, #1
10004046:	404b      	eors	r3, r1
10004048:	d409      	bmi.n	1000405e <__aeabi_dfcmple_guts+0x44>
1000404a:	404b      	eors	r3, r1
1000404c:	d503      	bpl.n	10004056 <__aeabi_dfcmple_guts+0x3c>
1000404e:	428b      	cmp	r3, r1
10004050:	d100      	bne.n	10004054 <__aeabi_dfcmple_guts+0x3a>
10004052:	4282      	cmp	r2, r0
10004054:	bdff      	pop	{r0, r1, r2, r3, r4, r5, r6, r7, pc}
10004056:	4299      	cmp	r1, r3
10004058:	d1fc      	bne.n	10004054 <__aeabi_dfcmple_guts+0x3a>
1000405a:	4290      	cmp	r0, r2
1000405c:	bdff      	pop	{r0, r1, r2, r3, r4, r5, r6, r7, pc}
1000405e:	430b      	orrs	r3, r1
10004060:	18db      	adds	r3, r3, r3
10004062:	4303      	orrs	r3, r0
10004064:	4313      	orrs	r3, r2
10004066:	d0f5      	beq.n	10004054 <__aeabi_dfcmple_guts+0x3a>
10004068:	43c9      	mvns	r1, r1
1000406a:	1849      	adds	r1, r1, r1
1000406c:	bdff      	pop	{r0, r1, r2, r3, r4, r5, r6, r7, pc}
1000406e:	0000      	.short	0x0000
10004070:	000007ff 	.word	0x000007ff

10004074 <__wrap___aeabi_dcmplt>:
10004074:	b500      	push	{lr}
10004076:	f7ff ffcf 	bl	10004018 <__wrap___aeabi_cdcmpeq>
1000407a:	4180      	sbcs	r0, r0
1000407c:	bd00      	pop	{pc}
1000407e:	46c0      	nop			; (mov r8, r8)

10004080 <__wrap___aeabi_dcmple>:
10004080:	b500      	push	{lr}
10004082:	f7ff ffc9 	bl	10004018 <__wrap___aeabi_cdcmpeq>
10004086:	d901      	bls.n	1000408c <__wrap___aeabi_dcmple+0xc>
10004088:	2000      	movs	r0, #0
1000408a:	bd00      	pop	{pc}
1000408c:	2001      	movs	r0, #1
1000408e:	bd00      	pop	{pc}

10004090 <__wrap___aeabi_dcmpge>:
10004090:	b500      	push	{lr}
10004092:	f7ff ffb9 	bl	10004008 <__wrap___aeabi_cdrcmple>
10004096:	d901      	bls.n	1000409c <__wrap___aeabi_dcmpge+0xc>
10004098:	2000      	movs	r0, #0
1000409a:	bd00      	pop	{pc}
1000409c:	2001      	movs	r0, #1
1000409e:	bd00      	pop	{pc}

100040a0 <__wrap___aeabi_dcmpgt>:
100040a0:	b500      	push	{lr}
100040a2:	f7ff ffb1 	bl	10004008 <__wrap___aeabi_cdrcmple>
100040a6:	4180      	sbcs	r0, r0
100040a8:	bd00      	pop	{pc}

100040aa <__wrap___aeabi_dcmpun>:
100040aa:	2001      	movs	r0, #1
100040ac:	0540      	lsls	r0, r0, #21
100040ae:	004a      	lsls	r2, r1, #1
100040b0:	1812      	adds	r2, r2, r0
100040b2:	d804      	bhi.n	100040be <__wrap___aeabi_dcmpun+0x14>
100040b4:	005a      	lsls	r2, r3, #1
100040b6:	1812      	adds	r2, r2, r0
100040b8:	d801      	bhi.n	100040be <__wrap___aeabi_dcmpun+0x14>
100040ba:	2000      	movs	r0, #0
100040bc:	4770      	bx	lr
100040be:	2001      	movs	r0, #1
100040c0:	4770      	bx	lr
100040c2:	2000      	movs	r0, #0
100040c4:	4770      	bx	lr
	...

100040c8 <__wrap___aeabi_ui2d>:
100040c8:	2100      	movs	r1, #0
100040ca:	2800      	cmp	r0, #0
100040cc:	d105      	bne.n	100040da <__wrap___aeabi_i2d+0xa>
100040ce:	4770      	bx	lr

100040d0 <__wrap___aeabi_i2d>:
100040d0:	17c1      	asrs	r1, r0, #31
100040d2:	4048      	eors	r0, r1
100040d4:	1a40      	subs	r0, r0, r1
100040d6:	d0fa      	beq.n	100040ce <__wrap___aeabi_ui2d+0x6>
100040d8:	07c9      	lsls	r1, r1, #31
100040da:	b513      	push	{r0, r1, r4, lr}
100040dc:	4b06      	ldr	r3, [pc, #24]	; (100040f8 <__wrap___aeabi_i2d+0x28>)
100040de:	681b      	ldr	r3, [r3, #0]
100040e0:	4798      	blx	r3
100040e2:	bc0c      	pop	{r2, r3}
100040e4:	1c44      	adds	r4, r0, #1
100040e6:	40a2      	lsls	r2, r4
100040e8:	0510      	lsls	r0, r2, #20
100040ea:	0b12      	lsrs	r2, r2, #12
100040ec:	4903      	ldr	r1, [pc, #12]	; (100040fc <__wrap___aeabi_i2d+0x2c>)
100040ee:	1b09      	subs	r1, r1, r4
100040f0:	0509      	lsls	r1, r1, #20
100040f2:	4319      	orrs	r1, r3
100040f4:	4311      	orrs	r1, r2
100040f6:	bd10      	pop	{r4, pc}
100040f8:	20001c7c 	.word	0x20001c7c
100040fc:	0000041f 	.word	0x0000041f

10004100 <__wrap___aeabi_d2iz>:
10004100:	b510      	push	{r4, lr}
10004102:	004c      	lsls	r4, r1, #1
10004104:	0d62      	lsrs	r2, r4, #21
10004106:	2380      	movs	r3, #128	; 0x80
10004108:	18d2      	adds	r2, r2, r3
1000410a:	00db      	lsls	r3, r3, #3
1000410c:	1ad2      	subs	r2, r2, r3
1000410e:	055b      	lsls	r3, r3, #21
10004110:	2a7e      	cmp	r2, #126	; 0x7e
10004112:	dd10      	ble.n	10004136 <__wrap___aeabi_d2iz+0x36>
10004114:	3a9e      	subs	r2, #158	; 0x9e
10004116:	da13      	bge.n	10004140 <__wrap___aeabi_d2iz+0x40>
10004118:	17cc      	asrs	r4, r1, #31
1000411a:	0309      	lsls	r1, r1, #12
1000411c:	0849      	lsrs	r1, r1, #1
1000411e:	4319      	orrs	r1, r3
10004120:	4252      	negs	r2, r2
10004122:	40d1      	lsrs	r1, r2
10004124:	0064      	lsls	r4, r4, #1
10004126:	3401      	adds	r4, #1
10004128:	3215      	adds	r2, #21
1000412a:	2a20      	cmp	r2, #32
1000412c:	da05      	bge.n	1000413a <__wrap___aeabi_d2iz+0x3a>
1000412e:	40d0      	lsrs	r0, r2
10004130:	4308      	orrs	r0, r1
10004132:	4360      	muls	r0, r4
10004134:	bd10      	pop	{r4, pc}
10004136:	2000      	movs	r0, #0
10004138:	bd10      	pop	{r4, pc}
1000413a:	4608      	mov	r0, r1
1000413c:	4360      	muls	r0, r4
1000413e:	bd10      	pop	{r4, pc}
10004140:	0fc8      	lsrs	r0, r1, #31
10004142:	18c0      	adds	r0, r0, r3
10004144:	3801      	subs	r0, #1
10004146:	bd10      	pop	{r4, pc}

10004148 <__wrap___aeabi_d2uiz>:
10004148:	b418      	push	{r3, r4}
1000414a:	4b04      	ldr	r3, [pc, #16]	; (1000415c <__wrap___aeabi_d2uiz+0x14>)
1000414c:	6a5b      	ldr	r3, [r3, #36]	; 0x24
1000414e:	46fc      	mov	ip, pc
10004150:	9301      	str	r3, [sp, #4]
10004152:	bd08      	pop	{r3, pc}
10004154:	4699df24 	.word	0x4699df24
10004158:	00001000 	.word	0x00001000
1000415c:	20001028 	.word	0x20001028

10004160 <__aeabi_double_init>:
10004160:	2313      	movs	r3, #19
10004162:	b570      	push	{r4, r5, r6, lr}
10004164:	781d      	ldrb	r5, [r3, #0]
10004166:	2d01      	cmp	r5, #1
10004168:	d015      	beq.n	10004196 <__aeabi_double_init+0x36>
1000416a:	dd10      	ble.n	1000418e <__aeabi_double_init+0x2e>
1000416c:	481c      	ldr	r0, [pc, #112]	; (100041e0 <__aeabi_double_init+0x80>)
1000416e:	f7ff fc81 	bl	10003a74 <rom_data_lookup>
10004172:	4c1c      	ldr	r4, [pc, #112]	; (100041e4 <__aeabi_double_init+0x84>)
10004174:	0001      	movs	r1, r0
10004176:	2280      	movs	r2, #128	; 0x80
10004178:	0020      	movs	r0, r4
1000417a:	f000 fbdb 	bl	10004934 <__wrap___aeabi_memcpy>
1000417e:	2d02      	cmp	r5, #2
10004180:	d006      	beq.n	10004190 <__aeabi_double_init+0x30>
10004182:	4819      	ldr	r0, [pc, #100]	; (100041e8 <__aeabi_double_init+0x88>)
10004184:	f7ff fc6e 	bl	10003a64 <rom_func_lookup>
10004188:	4b18      	ldr	r3, [pc, #96]	; (100041ec <__aeabi_double_init+0x8c>)
1000418a:	6018      	str	r0, [r3, #0]
1000418c:	bd70      	pop	{r4, r5, r6, pc}
1000418e:	4c15      	ldr	r4, [pc, #84]	; (100041e4 <__aeabi_double_init+0x84>)
10004190:	4b17      	ldr	r3, [pc, #92]	; (100041f0 <__aeabi_double_init+0x90>)
10004192:	64a3      	str	r3, [r4, #72]	; 0x48
10004194:	e7f5      	b.n	10004182 <__aeabi_double_init+0x22>
10004196:	4b16      	ldr	r3, [pc, #88]	; (100041f0 <__aeabi_double_init+0x90>)
10004198:	4c12      	ldr	r4, [pc, #72]	; (100041e4 <__aeabi_double_init+0x84>)
1000419a:	6023      	str	r3, [r4, #0]
1000419c:	6063      	str	r3, [r4, #4]
1000419e:	60a3      	str	r3, [r4, #8]
100041a0:	60e3      	str	r3, [r4, #12]
100041a2:	6123      	str	r3, [r4, #16]
100041a4:	6163      	str	r3, [r4, #20]
100041a6:	61a3      	str	r3, [r4, #24]
100041a8:	61e3      	str	r3, [r4, #28]
100041aa:	6223      	str	r3, [r4, #32]
100041ac:	6263      	str	r3, [r4, #36]	; 0x24
100041ae:	62a3      	str	r3, [r4, #40]	; 0x28
100041b0:	62e3      	str	r3, [r4, #44]	; 0x2c
100041b2:	6323      	str	r3, [r4, #48]	; 0x30
100041b4:	6363      	str	r3, [r4, #52]	; 0x34
100041b6:	63a3      	str	r3, [r4, #56]	; 0x38
100041b8:	63e3      	str	r3, [r4, #60]	; 0x3c
100041ba:	6423      	str	r3, [r4, #64]	; 0x40
100041bc:	6463      	str	r3, [r4, #68]	; 0x44
100041be:	64a3      	str	r3, [r4, #72]	; 0x48
100041c0:	64e3      	str	r3, [r4, #76]	; 0x4c
100041c2:	6523      	str	r3, [r4, #80]	; 0x50
100041c4:	6563      	str	r3, [r4, #84]	; 0x54
100041c6:	65a3      	str	r3, [r4, #88]	; 0x58
100041c8:	65e3      	str	r3, [r4, #92]	; 0x5c
100041ca:	6623      	str	r3, [r4, #96]	; 0x60
100041cc:	6663      	str	r3, [r4, #100]	; 0x64
100041ce:	66a3      	str	r3, [r4, #104]	; 0x68
100041d0:	66e3      	str	r3, [r4, #108]	; 0x6c
100041d2:	6723      	str	r3, [r4, #112]	; 0x70
100041d4:	6763      	str	r3, [r4, #116]	; 0x74
100041d6:	67a3      	str	r3, [r4, #120]	; 0x78
100041d8:	67e3      	str	r3, [r4, #124]	; 0x7c
100041da:	64a3      	str	r3, [r4, #72]	; 0x48
100041dc:	e7d1      	b.n	10004182 <__aeabi_double_init+0x22>
100041de:	46c0      	nop			; (mov r8, r8)
100041e0:	00004453 	.word	0x00004453
100041e4:	20001028 	.word	0x20001028
100041e8:	0000334c 	.word	0x0000334c
100041ec:	20001c7c 	.word	0x20001c7c
100041f0:	100041f5 	.word	0x100041f5

100041f4 <double_table_shim_on_use_helper>:
100041f4:	b507      	push	{r0, r1, r2, lr}
100041f6:	4660      	mov	r0, ip
100041f8:	8801      	ldrh	r1, [r0, #0]
100041fa:	0a0a      	lsrs	r2, r1, #8
100041fc:	3002      	adds	r0, #2
100041fe:	2adf      	cmp	r2, #223	; 0xdf
10004200:	d1fa      	bne.n	100041f8 <double_table_shim_on_use_helper+0x4>
10004202:	b2c9      	uxtb	r1, r1
10004204:	0882      	lsrs	r2, r0, #2
10004206:	d304      	bcc.n	10004212 <double_table_shim_on_use_helper+0x1e>
10004208:	8802      	ldrh	r2, [r0, #0]
1000420a:	8840      	ldrh	r0, [r0, #2]
1000420c:	0400      	lsls	r0, r0, #16
1000420e:	4310      	orrs	r0, r2
10004210:	e000      	b.n	10004214 <double_table_shim_on_use_helper+0x20>
10004212:	6800      	ldr	r0, [r0, #0]
10004214:	4a01      	ldr	r2, [pc, #4]	; (1000421c <double_table_shim_on_use_helper+0x28>)
10004216:	5050      	str	r0, [r2, r1]
10004218:	9003      	str	r0, [sp, #12]
1000421a:	bd07      	pop	{r0, r1, r2, pc}
1000421c:	20001028 	.word	0x20001028

10004220 <drsub_shim>:
10004220:	b40f      	push	{r0, r1, r2, r3}
10004222:	bc03      	pop	{r0, r1}
10004224:	bc0c      	pop	{r2, r3}

10004226 <dsub_shim>:
10004226:	b5f0      	push	{r4, r5, r6, r7, lr}
10004228:	2401      	movs	r4, #1
1000422a:	07e4      	lsls	r4, r4, #31
1000422c:	4063      	eors	r3, r4
1000422e:	e000      	b.n	10004232 <da_entry>

10004230 <dadd_shim>:
10004230:	b5f0      	push	{r4, r5, r6, r7, lr}

10004232 <da_entry>:
10004232:	0d0c      	lsrs	r4, r1, #20
10004234:	0fcf      	lsrs	r7, r1, #31
10004236:	1e66      	subs	r6, r4, #1
10004238:	0536      	lsls	r6, r6, #20
1000423a:	1b89      	subs	r1, r1, r6
1000423c:	0564      	lsls	r4, r4, #21
1000423e:	d303      	bcc.n	10004248 <l8_1>
10004240:	43c9      	mvns	r1, r1
10004242:	4240      	negs	r0, r0
10004244:	d300      	bcc.n	10004248 <l8_1>
10004246:	3101      	adds	r1, #1

10004248 <l8_1>:
10004248:	0d64      	lsrs	r4, r4, #21
1000424a:	d003      	beq.n	10004254 <l8_2>
1000424c:	1c66      	adds	r6, r4, #1
1000424e:	0af6      	lsrs	r6, r6, #11
10004250:	d007      	beq.n	10004262 <l8_3>
10004252:	1be4      	subs	r4, r4, r7

10004254 <l8_2>:
10004254:	2000      	movs	r0, #0
10004256:	007f      	lsls	r7, r7, #1
10004258:	1c79      	adds	r1, r7, #1
1000425a:	0789      	lsls	r1, r1, #30
1000425c:	1289      	asrs	r1, r1, #10
1000425e:	3c80      	subs	r4, #128	; 0x80
10004260:	0324      	lsls	r4, r4, #12

10004262 <l8_3>:
10004262:	0d1d      	lsrs	r5, r3, #20
10004264:	0fdf      	lsrs	r7, r3, #31
10004266:	1e6e      	subs	r6, r5, #1
10004268:	0536      	lsls	r6, r6, #20
1000426a:	1b9b      	subs	r3, r3, r6
1000426c:	056d      	lsls	r5, r5, #21
1000426e:	d303      	bcc.n	10004278 <l9_1>
10004270:	43db      	mvns	r3, r3
10004272:	4252      	negs	r2, r2
10004274:	d300      	bcc.n	10004278 <l9_1>
10004276:	3301      	adds	r3, #1

10004278 <l9_1>:
10004278:	0d6d      	lsrs	r5, r5, #21
1000427a:	d003      	beq.n	10004284 <l9_2>
1000427c:	1c6e      	adds	r6, r5, #1
1000427e:	0af6      	lsrs	r6, r6, #11
10004280:	d007      	beq.n	10004292 <l9_3>
10004282:	1bed      	subs	r5, r5, r7

10004284 <l9_2>:
10004284:	2200      	movs	r2, #0
10004286:	007f      	lsls	r7, r7, #1
10004288:	1c7b      	adds	r3, r7, #1
1000428a:	079b      	lsls	r3, r3, #30
1000428c:	129b      	asrs	r3, r3, #10
1000428e:	3d80      	subs	r5, #128	; 0x80
10004290:	032d      	lsls	r5, r5, #12

10004292 <l9_3>:
10004292:	1b2f      	subs	r7, r5, r4
10004294:	1b66      	subs	r6, r4, r5
10004296:	d458      	bmi.n	1000434a <da_ygtx>
10004298:	46a4      	mov	ip, r4
1000429a:	2e20      	cmp	r6, #32
1000429c:	da46      	bge.n	1000432c <da_xrgty>
1000429e:	3720      	adds	r7, #32
100042a0:	0014      	movs	r4, r2
100042a2:	40bc      	lsls	r4, r7

100042a4 <da_xgty0>:
100042a4:	001d      	movs	r5, r3
100042a6:	40bd      	lsls	r5, r7
100042a8:	40f2      	lsrs	r2, r6
100042aa:	4133      	asrs	r3, r6
100042ac:	432a      	orrs	r2, r5

100042ae <da_add>:
100042ae:	1880      	adds	r0, r0, r2
100042b0:	4159      	adcs	r1, r3

100042b2 <da_pack>:
100042b2:	0fcb      	lsrs	r3, r1, #31
100042b4:	d005      	beq.n	100042c2 <da_pack+0x10>
100042b6:	43c9      	mvns	r1, r1
100042b8:	43c0      	mvns	r0, r0
100042ba:	2200      	movs	r2, #0
100042bc:	4264      	negs	r4, r4
100042be:	4150      	adcs	r0, r2
100042c0:	4151      	adcs	r1, r2
100042c2:	4662      	mov	r2, ip
100042c4:	0d4d      	lsrs	r5, r1, #21
100042c6:	d128      	bne.n	1000431a <da_0>
100042c8:	0d0d      	lsrs	r5, r1, #20
100042ca:	d107      	bne.n	100042dc <da_1>
100042cc:	2800      	cmp	r0, #0
100042ce:	d01f      	beq.n	10004310 <da_5>

100042d0 <da_2>:
100042d0:	1924      	adds	r4, r4, r4
100042d2:	4140      	adcs	r0, r0
100042d4:	4149      	adcs	r1, r1
100042d6:	3a01      	subs	r2, #1
100042d8:	0d0d      	lsrs	r5, r1, #20
100042da:	d0f9      	beq.n	100042d0 <da_2>

100042dc <da_1>:
100042dc:	0064      	lsls	r4, r4, #1
100042de:	d306      	bcc.n	100042ee <da_3>

100042e0 <da_4>:
100042e0:	3001      	adds	r0, #1
100042e2:	d300      	bcc.n	100042e6 <da_4+0x6>
100042e4:	3101      	adds	r1, #1
100042e6:	2c00      	cmp	r4, #0
100042e8:	d101      	bne.n	100042ee <da_3>
100042ea:	0840      	lsrs	r0, r0, #1
100042ec:	0040      	lsls	r0, r0, #1

100042ee <da_3>:
100042ee:	3a01      	subs	r2, #1
100042f0:	d40b      	bmi.n	1000430a <da_6>
100042f2:	1c94      	adds	r4, r2, #2
100042f4:	0ae4      	lsrs	r4, r4, #11
100042f6:	d104      	bne.n	10004302 <da_7>
100042f8:	0512      	lsls	r2, r2, #20
100042fa:	4411      	add	r1, r2
100042fc:	07db      	lsls	r3, r3, #31
100042fe:	4419      	add	r1, r3
10004300:	bdf0      	pop	{r4, r5, r6, r7, pc}

10004302 <da_7>:
10004302:	07d9      	lsls	r1, r3, #31
10004304:	4b20      	ldr	r3, [pc, #128]	; (10004388 <da_xmgty+0x4>)
10004306:	4319      	orrs	r1, r3
10004308:	e000      	b.n	1000430c <da_6+0x2>

1000430a <da_6>:
1000430a:	07d9      	lsls	r1, r3, #31
1000430c:	2000      	movs	r0, #0
1000430e:	bdf0      	pop	{r4, r5, r6, r7, pc}

10004310 <da_5>:
10004310:	2900      	cmp	r1, #0
10004312:	d1dd      	bne.n	100042d0 <da_2>
10004314:	2c00      	cmp	r4, #0
10004316:	d1db      	bne.n	100042d0 <da_2>
10004318:	bdf0      	pop	{r4, r5, r6, r7, pc}

1000431a <da_0>:
1000431a:	3201      	adds	r2, #1
1000431c:	07c6      	lsls	r6, r0, #31
1000431e:	0840      	lsrs	r0, r0, #1
10004320:	07cd      	lsls	r5, r1, #31
10004322:	4328      	orrs	r0, r5
10004324:	0849      	lsrs	r1, r1, #1
10004326:	2e00      	cmp	r6, #0
10004328:	d0e1      	beq.n	100042ee <da_3>
1000432a:	e7d9      	b.n	100042e0 <da_4>

1000432c <da_xrgty>:
1000432c:	2e3c      	cmp	r6, #60	; 0x3c
1000432e:	da29      	bge.n	10004384 <da_xmgty>
10004330:	3e20      	subs	r6, #32
10004332:	3740      	adds	r7, #64	; 0x40
10004334:	0014      	movs	r4, r2
10004336:	40bc      	lsls	r4, r7
10004338:	d000      	beq.n	1000433c <da_xrgty+0x10>
1000433a:	2401      	movs	r4, #1
1000433c:	40f2      	lsrs	r2, r6
1000433e:	4314      	orrs	r4, r2
10004340:	001a      	movs	r2, r3
10004342:	40bb      	lsls	r3, r7
10004344:	431c      	orrs	r4, r3
10004346:	17d3      	asrs	r3, r2, #31
10004348:	e7ac      	b.n	100042a4 <da_xgty0>

1000434a <da_ygtx>:
1000434a:	46ac      	mov	ip, r5
1000434c:	2f20      	cmp	r7, #32
1000434e:	da08      	bge.n	10004362 <da_yrgtx>
10004350:	3620      	adds	r6, #32
10004352:	0004      	movs	r4, r0
10004354:	40b4      	lsls	r4, r6

10004356 <da_ygtx0>:
10004356:	000d      	movs	r5, r1
10004358:	40b5      	lsls	r5, r6
1000435a:	40f8      	lsrs	r0, r7
1000435c:	4139      	asrs	r1, r7
1000435e:	4328      	orrs	r0, r5
10004360:	e7a5      	b.n	100042ae <da_add>

10004362 <da_yrgtx>:
10004362:	2f3c      	cmp	r7, #60	; 0x3c
10004364:	da0c      	bge.n	10004380 <da_ymgtx>
10004366:	3f20      	subs	r7, #32
10004368:	3640      	adds	r6, #64	; 0x40
1000436a:	0004      	movs	r4, r0
1000436c:	40b4      	lsls	r4, r6
1000436e:	d000      	beq.n	10004372 <da_yrgtx+0x10>
10004370:	2401      	movs	r4, #1
10004372:	40f8      	lsrs	r0, r7
10004374:	4304      	orrs	r4, r0
10004376:	0008      	movs	r0, r1
10004378:	40b1      	lsls	r1, r6
1000437a:	430c      	orrs	r4, r1
1000437c:	17c1      	asrs	r1, r0, #31
1000437e:	e7ea      	b.n	10004356 <da_ygtx0>

10004380 <da_ymgtx>:
10004380:	0010      	movs	r0, r2
10004382:	0019      	movs	r1, r3

10004384 <da_xmgty>:
10004384:	2400      	movs	r4, #0
10004386:	e794      	b.n	100042b2 <da_pack>
10004388:	7ff00000 	.word	0x7ff00000

1000438c <dmul_shim>:
1000438c:	b5f0      	push	{r4, r5, r6, r7, lr}
1000438e:	0d0c      	lsrs	r4, r1, #20
10004390:	1e66      	subs	r6, r4, #1
10004392:	0536      	lsls	r6, r6, #20
10004394:	1b89      	subs	r1, r1, r6
10004396:	0ae6      	lsrs	r6, r4, #11
10004398:	0564      	lsls	r4, r4, #21
1000439a:	0d64      	lsrs	r4, r4, #21
1000439c:	d002      	beq.n	100043a4 <l12_1>
1000439e:	1c65      	adds	r5, r4, #1
100043a0:	0aed      	lsrs	r5, r5, #11
100043a2:	d004      	beq.n	100043ae <l12_2>

100043a4 <l12_1>:
100043a4:	2000      	movs	r0, #0
100043a6:	2101      	movs	r1, #1
100043a8:	0509      	lsls	r1, r1, #20
100043aa:	3c80      	subs	r4, #128	; 0x80
100043ac:	0324      	lsls	r4, r4, #12

100043ae <l12_2>:
100043ae:	46a4      	mov	ip, r4
100043b0:	0d1c      	lsrs	r4, r3, #20
100043b2:	1e67      	subs	r7, r4, #1
100043b4:	053f      	lsls	r7, r7, #20
100043b6:	1bdb      	subs	r3, r3, r7
100043b8:	0ae7      	lsrs	r7, r4, #11
100043ba:	0564      	lsls	r4, r4, #21
100043bc:	0d64      	lsrs	r4, r4, #21
100043be:	d002      	beq.n	100043c6 <l13_1>
100043c0:	1c65      	adds	r5, r4, #1
100043c2:	0aed      	lsrs	r5, r5, #11
100043c4:	d004      	beq.n	100043d0 <l13_2>

100043c6 <l13_1>:
100043c6:	2200      	movs	r2, #0
100043c8:	2301      	movs	r3, #1
100043ca:	051b      	lsls	r3, r3, #20
100043cc:	3c80      	subs	r4, #128	; 0x80
100043ce:	0324      	lsls	r4, r4, #12

100043d0 <l13_2>:
100043d0:	4077      	eors	r7, r6
100043d2:	4464      	add	r4, ip
100043d4:	b497      	push	{r0, r1, r2, r4, r7}
100043d6:	b284      	uxth	r4, r0
100043d8:	b296      	uxth	r6, r2
100043da:	4374      	muls	r4, r6
100043dc:	0c07      	lsrs	r7, r0, #16
100043de:	437e      	muls	r6, r7
100043e0:	0c15      	lsrs	r5, r2, #16
100043e2:	436f      	muls	r7, r5
100043e4:	b280      	uxth	r0, r0
100043e6:	4368      	muls	r0, r5
100043e8:	1836      	adds	r6, r6, r0
100043ea:	d302      	bcc.n	100043f2 <l14_1>
100043ec:	2001      	movs	r0, #1
100043ee:	0400      	lsls	r0, r0, #16
100043f0:	183f      	adds	r7, r7, r0

100043f2 <l14_1>:
100043f2:	0430      	lsls	r0, r6, #16
100043f4:	0c35      	lsrs	r5, r6, #16
100043f6:	1900      	adds	r0, r0, r4
100043f8:	417d      	adcs	r5, r7
100043fa:	4684      	mov	ip, r0
100043fc:	b288      	uxth	r0, r1
100043fe:	b29a      	uxth	r2, r3
10004400:	4350      	muls	r0, r2
10004402:	0c0c      	lsrs	r4, r1, #16
10004404:	4362      	muls	r2, r4
10004406:	0c1f      	lsrs	r7, r3, #16
10004408:	437c      	muls	r4, r7
1000440a:	b28e      	uxth	r6, r1
1000440c:	437e      	muls	r6, r7
1000440e:	1992      	adds	r2, r2, r6
10004410:	d302      	bcc.n	10004418 <l15_1>
10004412:	2601      	movs	r6, #1
10004414:	0436      	lsls	r6, r6, #16
10004416:	19a4      	adds	r4, r4, r6

10004418 <l15_1>:
10004418:	0416      	lsls	r6, r2, #16
1000441a:	0c17      	lsrs	r7, r2, #16
1000441c:	1836      	adds	r6, r6, r0
1000441e:	4167      	adcs	r7, r4
10004420:	bc01      	pop	{r0}
10004422:	b281      	uxth	r1, r0
10004424:	b29a      	uxth	r2, r3
10004426:	4351      	muls	r1, r2
10004428:	0c04      	lsrs	r4, r0, #16
1000442a:	4362      	muls	r2, r4
1000442c:	0c1b      	lsrs	r3, r3, #16
1000442e:	435c      	muls	r4, r3
10004430:	b280      	uxth	r0, r0
10004432:	4358      	muls	r0, r3
10004434:	1812      	adds	r2, r2, r0
10004436:	d302      	bcc.n	1000443e <l16_1>
10004438:	2001      	movs	r0, #1
1000443a:	0400      	lsls	r0, r0, #16
1000443c:	1824      	adds	r4, r4, r0

1000443e <l16_1>:
1000443e:	0410      	lsls	r0, r2, #16
10004440:	0c13      	lsrs	r3, r2, #16
10004442:	1840      	adds	r0, r0, r1
10004444:	4163      	adcs	r3, r4
10004446:	182d      	adds	r5, r5, r0
10004448:	415e      	adcs	r6, r3
1000444a:	2000      	movs	r0, #0
1000444c:	4147      	adcs	r7, r0
1000444e:	bc06      	pop	{r1, r2}
10004450:	b288      	uxth	r0, r1
10004452:	b293      	uxth	r3, r2
10004454:	4358      	muls	r0, r3
10004456:	0c0c      	lsrs	r4, r1, #16
10004458:	4363      	muls	r3, r4
1000445a:	0c12      	lsrs	r2, r2, #16
1000445c:	4354      	muls	r4, r2
1000445e:	b289      	uxth	r1, r1
10004460:	4351      	muls	r1, r2
10004462:	185b      	adds	r3, r3, r1
10004464:	d302      	bcc.n	1000446c <l17_1>
10004466:	2101      	movs	r1, #1
10004468:	0409      	lsls	r1, r1, #16
1000446a:	1864      	adds	r4, r4, r1

1000446c <l17_1>:
1000446c:	0419      	lsls	r1, r3, #16
1000446e:	0c1a      	lsrs	r2, r3, #16
10004470:	1809      	adds	r1, r1, r0
10004472:	4162      	adcs	r2, r4
10004474:	186d      	adds	r5, r5, r1
10004476:	4156      	adcs	r6, r2
10004478:	2000      	movs	r0, #0
1000447a:	4147      	adcs	r7, r0
1000447c:	bc18      	pop	{r3, r4}
1000447e:	02f9      	lsls	r1, r7, #11
10004480:	0d72      	lsrs	r2, r6, #21
10004482:	4311      	orrs	r1, r2
10004484:	02f0      	lsls	r0, r6, #11
10004486:	0d6a      	lsrs	r2, r5, #21
10004488:	4310      	orrs	r0, r2
1000448a:	02ed      	lsls	r5, r5, #11
1000448c:	0d0a      	lsrs	r2, r1, #20
1000448e:	d103      	bne.n	10004498 <l17_1+0x2c>
10004490:	196d      	adds	r5, r5, r5
10004492:	4140      	adcs	r0, r0
10004494:	4149      	adcs	r1, r1
10004496:	3b01      	subs	r3, #1
10004498:	4e12      	ldr	r6, [pc, #72]	; (100044e4 <dm_1+0xa>)
1000449a:	1b9b      	subs	r3, r3, r6
1000449c:	0076      	lsls	r6, r6, #1
1000449e:	42b3      	cmp	r3, r6
100044a0:	d20e      	bcs.n	100044c0 <dm_0>
100044a2:	006d      	lsls	r5, r5, #1
100044a4:	d307      	bcc.n	100044b6 <l17_1+0x4a>
100044a6:	3001      	adds	r0, #1
100044a8:	2600      	movs	r6, #0
100044aa:	4171      	adcs	r1, r6
100044ac:	4666      	mov	r6, ip
100044ae:	4335      	orrs	r5, r6
100044b0:	d101      	bne.n	100044b6 <l17_1+0x4a>
100044b2:	0840      	lsrs	r0, r0, #1
100044b4:	0040      	lsls	r0, r0, #1
100044b6:	051b      	lsls	r3, r3, #20
100044b8:	18c9      	adds	r1, r1, r3

100044ba <dm_2>:
100044ba:	07e4      	lsls	r4, r4, #31
100044bc:	4421      	add	r1, r4
100044be:	bdf0      	pop	{r4, r5, r6, r7, pc}

100044c0 <dm_0>:
100044c0:	da0b      	bge.n	100044da <dm_1>
100044c2:	3301      	adds	r3, #1
100044c4:	d106      	bne.n	100044d4 <dm_0+0x14>
100044c6:	3001      	adds	r0, #1
100044c8:	d104      	bne.n	100044d4 <dm_0+0x14>
100044ca:	3101      	adds	r1, #1
100044cc:	0d4f      	lsrs	r7, r1, #21
100044ce:	d001      	beq.n	100044d4 <dm_0+0x14>
100044d0:	0849      	lsrs	r1, r1, #1
100044d2:	e7f2      	b.n	100044ba <dm_2>
100044d4:	07e1      	lsls	r1, r4, #31
100044d6:	2000      	movs	r0, #0
100044d8:	bdf0      	pop	{r4, r5, r6, r7, pc}

100044da <dm_1>:
100044da:	3601      	adds	r6, #1
100044dc:	0531      	lsls	r1, r6, #20
100044de:	2000      	movs	r0, #0
100044e0:	e7eb      	b.n	100044ba <dm_2>
100044e2:	0000      	.short	0x0000
100044e4:	000003ff 	.word	0x000003ff

100044e8 <ddiv_shim>:
100044e8:	b5f0      	push	{r4, r5, r6, r7, lr}

100044ea <ddiv0>:
100044ea:	0d1c      	lsrs	r4, r3, #20
100044ec:	1e67      	subs	r7, r4, #1
100044ee:	053f      	lsls	r7, r7, #20
100044f0:	1bdb      	subs	r3, r3, r7
100044f2:	0ae7      	lsrs	r7, r4, #11
100044f4:	0564      	lsls	r4, r4, #21
100044f6:	0d64      	lsrs	r4, r4, #21
100044f8:	d002      	beq.n	10004500 <l20_1>
100044fa:	1c66      	adds	r6, r4, #1
100044fc:	0af6      	lsrs	r6, r6, #11
100044fe:	d004      	beq.n	1000450a <l20_2>

10004500 <l20_1>:
10004500:	2200      	movs	r2, #0
10004502:	2301      	movs	r3, #1
10004504:	051b      	lsls	r3, r3, #20
10004506:	3c80      	subs	r4, #128	; 0x80
10004508:	0324      	lsls	r4, r4, #12

1000450a <l20_2>:
1000450a:	25d0      	movs	r5, #208	; 0xd0
1000450c:	062d      	lsls	r5, r5, #24
1000450e:	2600      	movs	r6, #0
10004510:	43f6      	mvns	r6, r6
10004512:	662e      	str	r6, [r5, #96]	; 0x60
10004514:	091e      	lsrs	r6, r3, #4
10004516:	666e      	str	r6, [r5, #100]	; 0x64
10004518:	0fce      	lsrs	r6, r1, #31
1000451a:	19f6      	adds	r6, r6, r7
1000451c:	46b4      	mov	ip, r6
1000451e:	0049      	lsls	r1, r1, #1
10004520:	0d4f      	lsrs	r7, r1, #21
10004522:	d002      	beq.n	1000452a <l20_2+0x20>
10004524:	1c7e      	adds	r6, r7, #1
10004526:	0af6      	lsrs	r6, r6, #11
10004528:	d003      	beq.n	10004532 <l20_2+0x28>
1000452a:	2000      	movs	r0, #0
1000452c:	2100      	movs	r1, #0
1000452e:	3f40      	subs	r7, #64	; 0x40
10004530:	033f      	lsls	r7, r7, #12
10004532:	1b3e      	subs	r6, r7, r4
10004534:	00b6      	lsls	r6, r6, #2
10004536:	44b4      	add	ip, r6
10004538:	3f01      	subs	r7, #1
1000453a:	057f      	lsls	r7, r7, #21
1000453c:	1bc9      	subs	r1, r1, r7
1000453e:	0849      	lsrs	r1, r1, #1
10004540:	6f2e      	ldr	r6, [r5, #112]	; 0x70
10004542:	3601      	adds	r6, #1
10004544:	0876      	lsrs	r6, r6, #1
10004546:	029c      	lsls	r4, r3, #10
10004548:	0d95      	lsrs	r5, r2, #22
1000454a:	4325      	orrs	r5, r4
1000454c:	4375      	muls	r5, r6
1000454e:	13ed      	asrs	r5, r5, #15
10004550:	4375      	muls	r5, r6
10004552:	13ad      	asrs	r5, r5, #14
10004554:	3501      	adds	r5, #1
10004556:	106d      	asrs	r5, r5, #1
10004558:	03f6      	lsls	r6, r6, #15
1000455a:	1b76      	subs	r6, r6, r5
1000455c:	b40c      	push	{r2, r3}
1000455e:	02cc      	lsls	r4, r1, #11
10004560:	0d45      	lsrs	r5, r0, #21
10004562:	432c      	orrs	r4, r5
10004564:	b2a2      	uxth	r2, r4
10004566:	b2b3      	uxth	r3, r6
10004568:	435a      	muls	r2, r3
1000456a:	0c27      	lsrs	r7, r4, #16
1000456c:	437b      	muls	r3, r7
1000456e:	0c35      	lsrs	r5, r6, #16
10004570:	436f      	muls	r7, r5
10004572:	b2a4      	uxth	r4, r4
10004574:	436c      	muls	r4, r5
10004576:	191b      	adds	r3, r3, r4
10004578:	d302      	bcc.n	10004580 <l21_1>
1000457a:	2401      	movs	r4, #1
1000457c:	0424      	lsls	r4, r4, #16
1000457e:	193f      	adds	r7, r7, r4

10004580 <l21_1>:
10004580:	041c      	lsls	r4, r3, #16
10004582:	0c1d      	lsrs	r5, r3, #16
10004584:	18a4      	adds	r4, r4, r2
10004586:	417d      	adcs	r5, r7
10004588:	1924      	adds	r4, r4, r4
1000458a:	416d      	adcs	r5, r5
1000458c:	9a00      	ldr	r2, [sp, #0]
1000458e:	b291      	uxth	r1, r2
10004590:	b2ac      	uxth	r4, r5
10004592:	4361      	muls	r1, r4
10004594:	0c17      	lsrs	r7, r2, #16
10004596:	437c      	muls	r4, r7
10004598:	0c2b      	lsrs	r3, r5, #16
1000459a:	435f      	muls	r7, r3
1000459c:	b292      	uxth	r2, r2
1000459e:	435a      	muls	r2, r3
100045a0:	18a4      	adds	r4, r4, r2
100045a2:	d302      	bcc.n	100045aa <l22_1>
100045a4:	2201      	movs	r2, #1
100045a6:	0412      	lsls	r2, r2, #16
100045a8:	18bf      	adds	r7, r7, r2

100045aa <l22_1>:
100045aa:	0422      	lsls	r2, r4, #16
100045ac:	0c23      	lsrs	r3, r4, #16
100045ae:	1852      	adds	r2, r2, r1
100045b0:	417b      	adcs	r3, r7
100045b2:	9c01      	ldr	r4, [sp, #4]
100045b4:	436c      	muls	r4, r5
100045b6:	191b      	adds	r3, r3, r4
100045b8:	0e52      	lsrs	r2, r2, #25
100045ba:	01d9      	lsls	r1, r3, #7
100045bc:	430a      	orrs	r2, r1
100045be:	0144      	lsls	r4, r0, #5
100045c0:	1aa0      	subs	r0, r4, r2
100045c2:	b281      	uxth	r1, r0
100045c4:	b2b2      	uxth	r2, r6
100045c6:	4351      	muls	r1, r2
100045c8:	1403      	asrs	r3, r0, #16
100045ca:	435a      	muls	r2, r3
100045cc:	0c36      	lsrs	r6, r6, #16
100045ce:	4373      	muls	r3, r6
100045d0:	b287      	uxth	r7, r0
100045d2:	4377      	muls	r7, r6
100045d4:	17d6      	asrs	r6, r2, #31
100045d6:	19d2      	adds	r2, r2, r7
100045d8:	2700      	movs	r7, #0
100045da:	417e      	adcs	r6, r7
100045dc:	0436      	lsls	r6, r6, #16
100045de:	199b      	adds	r3, r3, r6
100045e0:	0417      	lsls	r7, r2, #16
100045e2:	0c16      	lsrs	r6, r2, #16
100045e4:	187f      	adds	r7, r7, r1
100045e6:	415e      	adcs	r6, r3
100045e8:	1673      	asrs	r3, r6, #25
100045ea:	18ed      	adds	r5, r5, r3
100045ec:	01f3      	lsls	r3, r6, #7
100045ee:	2600      	movs	r6, #0
100045f0:	3380      	adds	r3, #128	; 0x80
100045f2:	4175      	adcs	r5, r6
100045f4:	0fa9      	lsrs	r1, r5, #30
100045f6:	d106      	bne.n	10004606 <dd_0>
100045f8:	0064      	lsls	r4, r4, #1
100045fa:	0a69      	lsrs	r1, r5, #9
100045fc:	05e8      	lsls	r0, r5, #23
100045fe:	0a5b      	lsrs	r3, r3, #9
10004600:	4318      	orrs	r0, r3
10004602:	d209      	bcs.n	10004618 <dd_1>
10004604:	e02f      	b.n	10004666 <dd_2>

10004606 <dd_0>:
10004606:	2204      	movs	r2, #4
10004608:	4494      	add	ip, r2
1000460a:	3380      	adds	r3, #128	; 0x80
1000460c:	4175      	adcs	r5, r6
1000460e:	0aa9      	lsrs	r1, r5, #10
10004610:	05a8      	lsls	r0, r5, #22
10004612:	0a9b      	lsrs	r3, r3, #10
10004614:	4318      	orrs	r0, r3
10004616:	d326      	bcc.n	10004666 <dd_2>

10004618 <dd_1>:
10004618:	4140      	adcs	r0, r0
1000461a:	4149      	adcs	r1, r1
1000461c:	0424      	lsls	r4, r4, #16
1000461e:	9a00      	ldr	r2, [sp, #0]
10004620:	9b01      	ldr	r3, [sp, #4]
10004622:	000d      	movs	r5, r1
10004624:	4355      	muls	r5, r2
10004626:	1b64      	subs	r4, r4, r5
10004628:	4343      	muls	r3, r0
1000462a:	1ae4      	subs	r4, r4, r3
1000462c:	b295      	uxth	r5, r2
1000462e:	b286      	uxth	r6, r0
10004630:	4375      	muls	r5, r6
10004632:	0c17      	lsrs	r7, r2, #16
10004634:	437e      	muls	r6, r7
10004636:	0c03      	lsrs	r3, r0, #16
10004638:	435f      	muls	r7, r3
1000463a:	b292      	uxth	r2, r2
1000463c:	435a      	muls	r2, r3
1000463e:	18b6      	adds	r6, r6, r2
10004640:	d302      	bcc.n	10004648 <l24_1>
10004642:	2201      	movs	r2, #1
10004644:	0412      	lsls	r2, r2, #16
10004646:	18bf      	adds	r7, r7, r2

10004648 <l24_1>:
10004648:	0432      	lsls	r2, r6, #16
1000464a:	0c33      	lsrs	r3, r6, #16
1000464c:	1952      	adds	r2, r2, r5
1000464e:	417b      	adcs	r3, r7
10004650:	4252      	negs	r2, r2
10004652:	419c      	sbcs	r4, r3
10004654:	2c00      	cmp	r4, #0
10004656:	d402      	bmi.n	1000465e <l24_1+0x16>
10004658:	2200      	movs	r2, #0
1000465a:	3001      	adds	r0, #1
1000465c:	4151      	adcs	r1, r2
1000465e:	0840      	lsrs	r0, r0, #1
10004660:	07ca      	lsls	r2, r1, #31
10004662:	4310      	orrs	r0, r2
10004664:	0849      	lsrs	r1, r1, #1

10004666 <dd_2>:
10004666:	b002      	add	sp, #8
10004668:	4662      	mov	r2, ip
1000466a:	07d7      	lsls	r7, r2, #31
1000466c:	1092      	asrs	r2, r2, #2
1000466e:	4b08      	ldr	r3, [pc, #32]	; (10004690 <dd_4+0x6>)
10004670:	18d2      	adds	r2, r2, r3
10004672:	4b08      	ldr	r3, [pc, #32]	; (10004694 <dd_4+0xa>)
10004674:	429a      	cmp	r2, r3
10004676:	d203      	bcs.n	10004680 <dd_3>
10004678:	0512      	lsls	r2, r2, #20
1000467a:	1889      	adds	r1, r1, r2

1000467c <dd_5>:
1000467c:	19c9      	adds	r1, r1, r7
1000467e:	bdf0      	pop	{r4, r5, r6, r7, pc}

10004680 <dd_3>:
10004680:	2000      	movs	r0, #0
10004682:	2a00      	cmp	r2, #0
10004684:	dc01      	bgt.n	1000468a <dd_4>
10004686:	0039      	movs	r1, r7
10004688:	bdf0      	pop	{r4, r5, r6, r7, pc}

1000468a <dd_4>:
1000468a:	3301      	adds	r3, #1
1000468c:	0519      	lsls	r1, r3, #20
1000468e:	e7f5      	b.n	1000467c <dd_5>
10004690:	000003fd 	.word	0x000003fd
10004694:	000007fe 	.word	0x000007fe

10004698 <double2uint_shim>:
10004698:	2200      	movs	r2, #0

1000469a <double2ufix_shim>:
1000469a:	b500      	push	{lr}
1000469c:	3220      	adds	r2, #32
1000469e:	f000 f804 	bl	100046aa <double2ufix64_shim>
100046a2:	0008      	movs	r0, r1
100046a4:	bd00      	pop	{pc}
	...

100046a8 <double2uint64_shim>:
100046a8:	2200      	movs	r2, #0

100046aa <double2ufix64_shim>:
100046aa:	150b      	asrs	r3, r1, #20
100046ac:	d40a      	bmi.n	100046c4 <ret_dzero>

100046ae <d2fix>:
100046ae:	b510      	push	{r4, lr}
100046b0:	4694      	mov	ip, r2
100046b2:	f000 f831 	bl	10004718 <dunpacks>
100046b6:	1414      	asrs	r4, r2, #16
100046b8:	3401      	adds	r4, #1
100046ba:	da00      	bge.n	100046be <d2fix+0x10>
100046bc:	2100      	movs	r1, #0
100046be:	17cb      	asrs	r3, r1, #31
100046c0:	4c14      	ldr	r4, [pc, #80]	; (10004714 <d2fix_a+0x4a>)
100046c2:	4720      	bx	r4

100046c4 <ret_dzero>:
100046c4:	2000      	movs	r0, #0
100046c6:	2100      	movs	r1, #0
100046c8:	4770      	bx	lr

100046ca <d2fix_a>:
100046ca:	4462      	add	r2, ip
100046cc:	3a34      	subs	r2, #52	; 0x34
100046ce:	d40c      	bmi.n	100046ea <d2fix_a+0x20>
100046d0:	2a0c      	cmp	r2, #12
100046d2:	da07      	bge.n	100046e4 <d2fix_a+0x1a>
100046d4:	0004      	movs	r4, r0
100046d6:	4091      	lsls	r1, r2
100046d8:	4090      	lsls	r0, r2
100046da:	4252      	negs	r2, r2
100046dc:	3220      	adds	r2, #32
100046de:	40d4      	lsrs	r4, r2
100046e0:	4321      	orrs	r1, r4
100046e2:	bd10      	pop	{r4, pc}
100046e4:	43d8      	mvns	r0, r3
100046e6:	43d9      	mvns	r1, r3
100046e8:	bd10      	pop	{r4, pc}
100046ea:	3220      	adds	r2, #32
100046ec:	d407      	bmi.n	100046fe <d2fix_a+0x34>
100046ee:	460c      	mov	r4, r1
100046f0:	4094      	lsls	r4, r2
100046f2:	4252      	negs	r2, r2
100046f4:	3220      	adds	r2, #32
100046f6:	4111      	asrs	r1, r2
100046f8:	40d0      	lsrs	r0, r2
100046fa:	4320      	orrs	r0, r4
100046fc:	bd10      	pop	{r4, pc}
100046fe:	0008      	movs	r0, r1
10004700:	17c9      	asrs	r1, r1, #31
10004702:	3220      	adds	r2, #32
10004704:	d403      	bmi.n	1000470e <d2fix_a+0x44>
10004706:	4252      	negs	r2, r2
10004708:	3220      	adds	r2, #32
1000470a:	4110      	asrs	r0, r2
1000470c:	bd10      	pop	{r4, pc}
1000470e:	0018      	movs	r0, r3
10004710:	0019      	movs	r1, r3
10004712:	bd10      	pop	{r4, pc}
10004714:	100046cb 	.word	0x100046cb

10004718 <dunpacks>:
10004718:	0d0a      	lsrs	r2, r1, #20
1000471a:	0fcc      	lsrs	r4, r1, #31
1000471c:	1e53      	subs	r3, r2, #1
1000471e:	051b      	lsls	r3, r3, #20
10004720:	1ac9      	subs	r1, r1, r3
10004722:	0552      	lsls	r2, r2, #21
10004724:	d303      	bcc.n	1000472e <l60_1>
10004726:	43c9      	mvns	r1, r1
10004728:	4240      	negs	r0, r0
1000472a:	d300      	bcc.n	1000472e <l60_1>
1000472c:	3101      	adds	r1, #1

1000472e <l60_1>:
1000472e:	0d52      	lsrs	r2, r2, #21
10004730:	d003      	beq.n	1000473a <l60_2>
10004732:	1c53      	adds	r3, r2, #1
10004734:	0adb      	lsrs	r3, r3, #11
10004736:	d007      	beq.n	10004748 <l60_3>
10004738:	1b12      	subs	r2, r2, r4

1000473a <l60_2>:
1000473a:	2000      	movs	r0, #0
1000473c:	0064      	lsls	r4, r4, #1
1000473e:	1c61      	adds	r1, r4, #1
10004740:	0789      	lsls	r1, r1, #30
10004742:	1289      	asrs	r1, r1, #10
10004744:	3a80      	subs	r2, #128	; 0x80
10004746:	0312      	lsls	r2, r2, #12

10004748 <l60_3>:
10004748:	4b01      	ldr	r3, [pc, #4]	; (10004750 <l60_3+0x8>)
1000474a:	1ad2      	subs	r2, r2, r3
1000474c:	4770      	bx	lr
1000474e:	0000      	.short	0x0000
10004750:	000003ff 	.word	0x000003ff

10004754 <__wrap___aeabi_lmul>:
10004754:	4351      	muls	r1, r2
10004756:	4343      	muls	r3, r0
10004758:	18c9      	adds	r1, r1, r3
1000475a:	468c      	mov	ip, r1
1000475c:	0c11      	lsrs	r1, r2, #16
1000475e:	b283      	uxth	r3, r0
10004760:	434b      	muls	r3, r1
10004762:	b410      	push	{r4}
10004764:	0c04      	lsrs	r4, r0, #16
10004766:	4361      	muls	r1, r4
10004768:	b292      	uxth	r2, r2
1000476a:	b280      	uxth	r0, r0
1000476c:	4350      	muls	r0, r2
1000476e:	4362      	muls	r2, r4
10004770:	041c      	lsls	r4, r3, #16
10004772:	0c1b      	lsrs	r3, r3, #16
10004774:	1900      	adds	r0, r0, r4
10004776:	bc10      	pop	{r4}
10004778:	4159      	adcs	r1, r3
1000477a:	0413      	lsls	r3, r2, #16
1000477c:	0c12      	lsrs	r2, r2, #16
1000477e:	18c0      	adds	r0, r0, r3
10004780:	4151      	adcs	r1, r2
10004782:	4461      	add	r1, ip
10004784:	4770      	bx	lr
	...

10004788 <__wrap___aeabi_frsub>:
10004788:	4048      	eors	r0, r1
1000478a:	4041      	eors	r1, r0
1000478c:	4048      	eors	r0, r1

1000478e <__wrap___aeabi_fsub>:
1000478e:	4b0e      	ldr	r3, [pc, #56]	; (100047c8 <__wrap___aeabi_fmul+0x6>)
10004790:	685b      	ldr	r3, [r3, #4]
10004792:	4718      	bx	r3

10004794 <__wrap___aeabi_fadd>:
10004794:	4b0c      	ldr	r3, [pc, #48]	; (100047c8 <__wrap___aeabi_fmul+0x6>)
10004796:	681b      	ldr	r3, [r3, #0]
10004798:	4718      	bx	r3

1000479a <__wrap___aeabi_fdiv>:
1000479a:	4a0c      	ldr	r2, [pc, #48]	; (100047cc <__wrap___aeabi_fmul+0xa>)
1000479c:	6f93      	ldr	r3, [r2, #120]	; 0x78
1000479e:	089b      	lsrs	r3, r3, #2
100047a0:	d202      	bcs.n	100047a8 <fdiv_save_state>

100047a2 <fdiv_shim_call>:
100047a2:	4b09      	ldr	r3, [pc, #36]	; (100047c8 <__wrap___aeabi_fmul+0x6>)
100047a4:	68db      	ldr	r3, [r3, #12]
100047a6:	4718      	bx	r3

100047a8 <fdiv_save_state>:
100047a8:	b5f0      	push	{r4, r5, r6, r7, lr}
100047aa:	6e14      	ldr	r4, [r2, #96]	; 0x60
100047ac:	6e55      	ldr	r5, [r2, #100]	; 0x64
100047ae:	6f57      	ldr	r7, [r2, #116]	; 0x74
100047b0:	6f16      	ldr	r6, [r2, #112]	; 0x70
100047b2:	f7ff fff6 	bl	100047a2 <fdiv_shim_call>
100047b6:	4a05      	ldr	r2, [pc, #20]	; (100047cc <__wrap___aeabi_fmul+0xa>)
100047b8:	6614      	str	r4, [r2, #96]	; 0x60
100047ba:	6655      	str	r5, [r2, #100]	; 0x64
100047bc:	6757      	str	r7, [r2, #116]	; 0x74
100047be:	6716      	str	r6, [r2, #112]	; 0x70
100047c0:	bdf0      	pop	{r4, r5, r6, r7, pc}

100047c2 <__wrap___aeabi_fmul>:
100047c2:	4b01      	ldr	r3, [pc, #4]	; (100047c8 <__wrap___aeabi_fmul+0x6>)
100047c4:	689b      	ldr	r3, [r3, #8]
100047c6:	4718      	bx	r3
100047c8:	20001128 	.word	0x20001128
100047cc:	d0000000 	.word	0xd0000000

100047d0 <__wrap___aeabi_cfrcmple>:
100047d0:	b507      	push	{r0, r1, r2, lr}
100047d2:	4048      	eors	r0, r1
100047d4:	4041      	eors	r1, r0
100047d6:	4048      	eors	r0, r1
100047d8:	e001      	b.n	100047de <__aeabi_cfcmple_guts>
100047da:	46c0      	nop			; (mov r8, r8)

100047dc <__wrap___aeabi_cfcmpeq>:
100047dc:	b507      	push	{r0, r1, r2, lr}

100047de <__aeabi_cfcmple_guts>:
100047de:	0042      	lsls	r2, r0, #1
100047e0:	0e12      	lsrs	r2, r2, #24
100047e2:	d003      	beq.n	100047ec <__aeabi_cfcmple_guts+0xe>
100047e4:	2aff      	cmp	r2, #255	; 0xff
100047e6:	d103      	bne.n	100047f0 <__aeabi_cfcmple_guts+0x12>
100047e8:	0242      	lsls	r2, r0, #9
100047ea:	d818      	bhi.n	1000481e <__aeabi_cfcmple_guts+0x40>
100047ec:	0dc0      	lsrs	r0, r0, #23
100047ee:	05c0      	lsls	r0, r0, #23
100047f0:	004a      	lsls	r2, r1, #1
100047f2:	0e12      	lsrs	r2, r2, #24
100047f4:	d003      	beq.n	100047fe <__aeabi_cfcmple_guts+0x20>
100047f6:	2aff      	cmp	r2, #255	; 0xff
100047f8:	d103      	bne.n	10004802 <__aeabi_cfcmple_guts+0x24>
100047fa:	024a      	lsls	r2, r1, #9
100047fc:	d80f      	bhi.n	1000481e <__aeabi_cfcmple_guts+0x40>
100047fe:	0dc9      	lsrs	r1, r1, #23
10004800:	05c9      	lsls	r1, r1, #23
10004802:	2201      	movs	r2, #1
10004804:	4041      	eors	r1, r0
10004806:	d405      	bmi.n	10004814 <__aeabi_cfcmple_guts+0x36>
10004808:	4041      	eors	r1, r0
1000480a:	d501      	bpl.n	10004810 <__aeabi_cfcmple_guts+0x32>
1000480c:	4281      	cmp	r1, r0
1000480e:	bd07      	pop	{r0, r1, r2, pc}
10004810:	4288      	cmp	r0, r1
10004812:	bd07      	pop	{r0, r1, r2, pc}
10004814:	4301      	orrs	r1, r0
10004816:	1849      	adds	r1, r1, r1
10004818:	d001      	beq.n	1000481e <__aeabi_cfcmple_guts+0x40>
1000481a:	43c0      	mvns	r0, r0
1000481c:	1800      	adds	r0, r0, r0
1000481e:	bd07      	pop	{r0, r1, r2, pc}

10004820 <__wrap___aeabi_fcmplt>:
10004820:	b500      	push	{lr}
10004822:	f7ff ffdb 	bl	100047dc <__wrap___aeabi_cfcmpeq>
10004826:	4180      	sbcs	r0, r0
10004828:	bd00      	pop	{pc}
1000482a:	46c0      	nop			; (mov r8, r8)

1000482c <__wrap___aeabi_fcmpgt>:
1000482c:	b500      	push	{lr}
1000482e:	f7ff ffcf 	bl	100047d0 <__wrap___aeabi_cfrcmple>
10004832:	4180      	sbcs	r0, r0
10004834:	bd00      	pop	{pc}
	...

10004838 <__wrap___aeabi_i2f>:
10004838:	0fc1      	lsrs	r1, r0, #31
1000483a:	07c9      	lsls	r1, r1, #31
1000483c:	d500      	bpl.n	10004840 <__wrap___aeabi_i2f+0x8>
1000483e:	4240      	negs	r0, r0
10004840:	2800      	cmp	r0, #0
10004842:	d017      	beq.n	10004874 <__aeabi_i2f_main+0x30>

10004844 <__aeabi_i2f_main>:
10004844:	46f4      	mov	ip, lr
10004846:	b403      	push	{r0, r1}
10004848:	4b0b      	ldr	r3, [pc, #44]	; (10004878 <__aeabi_i2f_main+0x34>)
1000484a:	681b      	ldr	r3, [r3, #0]
1000484c:	4798      	blx	r3
1000484e:	bc06      	pop	{r1, r2}
10004850:	4081      	lsls	r1, r0
10004852:	389e      	subs	r0, #158	; 0x9e
10004854:	4240      	negs	r0, r0
10004856:	3180      	adds	r1, #128	; 0x80
10004858:	d207      	bcs.n	1000486a <__aeabi_i2f_main+0x26>
1000485a:	060b      	lsls	r3, r1, #24
1000485c:	d007      	beq.n	1000486e <__aeabi_i2f_main+0x2a>
1000485e:	0049      	lsls	r1, r1, #1
10004860:	0a49      	lsrs	r1, r1, #9
10004862:	05c0      	lsls	r0, r0, #23
10004864:	4310      	orrs	r0, r2
10004866:	4308      	orrs	r0, r1
10004868:	4760      	bx	ip
1000486a:	3001      	adds	r0, #1
1000486c:	e7f8      	b.n	10004860 <__aeabi_i2f_main+0x1c>
1000486e:	0a49      	lsrs	r1, r1, #9
10004870:	0289      	lsls	r1, r1, #10
10004872:	e7f5      	b.n	10004860 <__aeabi_i2f_main+0x1c>
10004874:	4770      	bx	lr
10004876:	0000      	.short	0x0000
10004878:	20001c7c 	.word	0x20001c7c

1000487c <__wrap___aeabi_f2uiz>:
1000487c:	4b01      	ldr	r3, [pc, #4]	; (10004884 <__wrap___aeabi_f2uiz+0x8>)
1000487e:	6a5b      	ldr	r3, [r3, #36]	; 0x24
10004880:	4718      	bx	r3
10004882:	0000      	.short	0x0000
10004884:	20001128 	.word	0x20001128

10004888 <__aeabi_float_init>:
10004888:	2313      	movs	r3, #19
1000488a:	b510      	push	{r4, lr}
1000488c:	4812      	ldr	r0, [pc, #72]	; (100048d8 <__aeabi_float_init+0x50>)
1000488e:	781c      	ldrb	r4, [r3, #0]
10004890:	f7ff f8f0 	bl	10003a74 <rom_data_lookup>
10004894:	0001      	movs	r1, r0
10004896:	2c01      	cmp	r4, #1
10004898:	d00a      	beq.n	100048b0 <__aeabi_float_init+0x28>
1000489a:	dd03      	ble.n	100048a4 <__aeabi_float_init+0x1c>
1000489c:	2280      	movs	r2, #128	; 0x80
1000489e:	480f      	ldr	r0, [pc, #60]	; (100048dc <__aeabi_float_init+0x54>)
100048a0:	f000 f848 	bl	10004934 <__wrap___aeabi_memcpy>
100048a4:	480e      	ldr	r0, [pc, #56]	; (100048e0 <__aeabi_float_init+0x58>)
100048a6:	f7ff f8dd 	bl	10003a64 <rom_func_lookup>
100048aa:	4b0e      	ldr	r3, [pc, #56]	; (100048e4 <__aeabi_float_init+0x5c>)
100048ac:	6018      	str	r0, [r3, #0]
100048ae:	bd10      	pop	{r4, pc}
100048b0:	4c0a      	ldr	r4, [pc, #40]	; (100048dc <__aeabi_float_init+0x54>)
100048b2:	2254      	movs	r2, #84	; 0x54
100048b4:	0020      	movs	r0, r4
100048b6:	f000 f83d 	bl	10004934 <__wrap___aeabi_memcpy>
100048ba:	4b0b      	ldr	r3, [pc, #44]	; (100048e8 <__aeabi_float_init+0x60>)
100048bc:	6563      	str	r3, [r4, #84]	; 0x54
100048be:	65a3      	str	r3, [r4, #88]	; 0x58
100048c0:	65e3      	str	r3, [r4, #92]	; 0x5c
100048c2:	6623      	str	r3, [r4, #96]	; 0x60
100048c4:	6663      	str	r3, [r4, #100]	; 0x64
100048c6:	66a3      	str	r3, [r4, #104]	; 0x68
100048c8:	66e3      	str	r3, [r4, #108]	; 0x6c
100048ca:	6723      	str	r3, [r4, #112]	; 0x70
100048cc:	6763      	str	r3, [r4, #116]	; 0x74
100048ce:	67a3      	str	r3, [r4, #120]	; 0x78
100048d0:	67e3      	str	r3, [r4, #124]	; 0x7c
100048d2:	6223      	str	r3, [r4, #32]
100048d4:	61e3      	str	r3, [r4, #28]
100048d6:	e7e5      	b.n	100048a4 <__aeabi_float_init+0x1c>
100048d8:	00004653 	.word	0x00004653
100048dc:	20001128 	.word	0x20001128
100048e0:	0000334c 	.word	0x0000334c
100048e4:	20001c7c 	.word	0x20001c7c
100048e8:	100048ed 	.word	0x100048ed

100048ec <float_table_shim_on_use_helper>:
100048ec:	b507      	push	{r0, r1, r2, lr}
100048ee:	4660      	mov	r0, ip
100048f0:	8801      	ldrh	r1, [r0, #0]
100048f2:	0a0a      	lsrs	r2, r1, #8
100048f4:	3002      	adds	r0, #2
100048f6:	2adf      	cmp	r2, #223	; 0xdf
100048f8:	d1fa      	bne.n	100048f0 <float_table_shim_on_use_helper+0x4>
100048fa:	b2c9      	uxtb	r1, r1
100048fc:	0882      	lsrs	r2, r0, #2
100048fe:	d304      	bcc.n	1000490a <float_table_shim_on_use_helper+0x1e>
10004900:	8802      	ldrh	r2, [r0, #0]
10004902:	8840      	ldrh	r0, [r0, #2]
10004904:	0400      	lsls	r0, r0, #16
10004906:	4310      	orrs	r0, r2
10004908:	e000      	b.n	1000490c <float_table_shim_on_use_helper+0x20>
1000490a:	6800      	ldr	r0, [r0, #0]
1000490c:	4a01      	ldr	r2, [pc, #4]	; (10004914 <float_table_shim_on_use_helper+0x28>)
1000490e:	5050      	str	r0, [r2, r1]
10004910:	9003      	str	r0, [sp, #12]
10004912:	bd07      	pop	{r0, r1, r2, pc}
10004914:	20001128 	.word	0x20001128

10004918 <__aeabi_mem_init>:
10004918:	4801      	ldr	r0, [pc, #4]	; (10004920 <__aeabi_mem_init+0x8>)
1000491a:	2104      	movs	r1, #4
1000491c:	4b01      	ldr	r3, [pc, #4]	; (10004924 <__aeabi_mem_init+0xc>)
1000491e:	4718      	bx	r3
10004920:	20000eb0 	.word	0x20000eb0
10004924:	10003a85 	.word	0x10003a85

10004928 <__wrap_memset>:
10004928:	4b01      	ldr	r3, [pc, #4]	; (10004930 <__wrap_memset+0x8>)
1000492a:	681b      	ldr	r3, [r3, #0]
1000492c:	4718      	bx	r3
1000492e:	0000      	.short	0x0000
10004930:	20000eb0 	.word	0x20000eb0

10004934 <__wrap___aeabi_memcpy>:
10004934:	4b01      	ldr	r3, [pc, #4]	; (1000493c <__wrap___aeabi_memcpy+0x8>)
10004936:	685b      	ldr	r3, [r3, #4]
10004938:	4718      	bx	r3
1000493a:	0000      	.short	0x0000
1000493c:	20000eb0 	.word	0x20000eb0

10004940 <stdio_out_chars_no_crlf>:
10004940:	0003      	movs	r3, r0
10004942:	b510      	push	{r4, lr}
10004944:	0008      	movs	r0, r1
10004946:	0011      	movs	r1, r2
10004948:	681b      	ldr	r3, [r3, #0]
1000494a:	4798      	blx	r3
1000494c:	bd10      	pop	{r4, pc}
1000494e:	46c0      	nop			; (mov r8, r8)

10004950 <stdio_out_chars_crlf>:
10004950:	b5f0      	push	{r4, r5, r6, r7, lr}
10004952:	4646      	mov	r6, r8
10004954:	464f      	mov	r7, r9
10004956:	46d6      	mov	lr, sl
10004958:	b5c0      	push	{r6, r7, lr}
1000495a:	7d43      	ldrb	r3, [r0, #21]
1000495c:	4680      	mov	r8, r0
1000495e:	000e      	movs	r6, r1
10004960:	0017      	movs	r7, r2
10004962:	2b00      	cmp	r3, #0
10004964:	d046      	beq.n	100049f4 <stdio_out_chars_crlf+0xa4>
10004966:	2a00      	cmp	r2, #0
10004968:	dd3f      	ble.n	100049ea <stdio_out_chars_crlf+0x9a>
1000496a:	1e4b      	subs	r3, r1, #1
1000496c:	4699      	mov	r9, r3
1000496e:	4b24      	ldr	r3, [pc, #144]	; (10004a00 <stdio_out_chars_crlf+0xb0>)
10004970:	2501      	movs	r5, #1
10004972:	2400      	movs	r4, #0
10004974:	2000      	movs	r0, #0
10004976:	469a      	mov	sl, r3
10004978:	e00d      	b.n	10004996 <stdio_out_chars_crlf+0x46>
1000497a:	464b      	mov	r3, r9
1000497c:	5d1b      	ldrb	r3, [r3, r4]
1000497e:	3b0d      	subs	r3, #13
10004980:	425a      	negs	r2, r3
10004982:	4153      	adcs	r3, r2
10004984:	5d32      	ldrb	r2, [r6, r4]
10004986:	b2db      	uxtb	r3, r3
10004988:	2a0a      	cmp	r2, #10
1000498a:	d00b      	beq.n	100049a4 <stdio_out_chars_crlf+0x54>
1000498c:	002b      	movs	r3, r5
1000498e:	3401      	adds	r4, #1
10004990:	3501      	adds	r5, #1
10004992:	429f      	cmp	r7, r3
10004994:	dd1a      	ble.n	100049cc <stdio_out_chars_crlf+0x7c>
10004996:	2c00      	cmp	r4, #0
10004998:	d1ef      	bne.n	1000497a <stdio_out_chars_crlf+0x2a>
1000499a:	4643      	mov	r3, r8
1000499c:	5d32      	ldrb	r2, [r6, r4]
1000499e:	7d1b      	ldrb	r3, [r3, #20]
100049a0:	2a0a      	cmp	r2, #10
100049a2:	d1f3      	bne.n	1000498c <stdio_out_chars_crlf+0x3c>
100049a4:	2b00      	cmp	r3, #0
100049a6:	d1f1      	bne.n	1000498c <stdio_out_chars_crlf+0x3c>
100049a8:	42a0      	cmp	r0, r4
100049aa:	da04      	bge.n	100049b6 <stdio_out_chars_crlf+0x66>
100049ac:	4643      	mov	r3, r8
100049ae:	1a21      	subs	r1, r4, r0
100049b0:	681b      	ldr	r3, [r3, #0]
100049b2:	1830      	adds	r0, r6, r0
100049b4:	4798      	blx	r3
100049b6:	4643      	mov	r3, r8
100049b8:	4650      	mov	r0, sl
100049ba:	681b      	ldr	r3, [r3, #0]
100049bc:	2102      	movs	r1, #2
100049be:	4798      	blx	r3
100049c0:	3401      	adds	r4, #1
100049c2:	0028      	movs	r0, r5
100049c4:	002b      	movs	r3, r5
100049c6:	3501      	adds	r5, #1
100049c8:	429f      	cmp	r7, r3
100049ca:	dce4      	bgt.n	10004996 <stdio_out_chars_crlf+0x46>
100049cc:	4287      	cmp	r7, r0
100049ce:	dd04      	ble.n	100049da <stdio_out_chars_crlf+0x8a>
100049d0:	4643      	mov	r3, r8
100049d2:	1a39      	subs	r1, r7, r0
100049d4:	681b      	ldr	r3, [r3, #0]
100049d6:	1830      	adds	r0, r6, r0
100049d8:	4798      	blx	r3
100049da:	19f6      	adds	r6, r6, r7
100049dc:	3e01      	subs	r6, #1
100049de:	7833      	ldrb	r3, [r6, #0]
100049e0:	3b0d      	subs	r3, #13
100049e2:	425a      	negs	r2, r3
100049e4:	4153      	adcs	r3, r2
100049e6:	4642      	mov	r2, r8
100049e8:	7513      	strb	r3, [r2, #20]
100049ea:	bce0      	pop	{r5, r6, r7}
100049ec:	46ba      	mov	sl, r7
100049ee:	46b1      	mov	r9, r6
100049f0:	46a8      	mov	r8, r5
100049f2:	bdf0      	pop	{r4, r5, r6, r7, pc}
100049f4:	6803      	ldr	r3, [r0, #0]
100049f6:	0011      	movs	r1, r2
100049f8:	0030      	movs	r0, r6
100049fa:	4798      	blx	r3
100049fc:	e7f5      	b.n	100049ea <stdio_out_chars_crlf+0x9a>
100049fe:	46c0      	nop			; (mov r8, r8)
10004a00:	100074d4 	.word	0x100074d4

10004a04 <stdio_buffered_printer>:
10004a04:	b5f0      	push	{r4, r5, r6, r7, lr}
10004a06:	46c6      	mov	lr, r8
10004a08:	000c      	movs	r4, r1
10004a0a:	6809      	ldr	r1, [r1, #0]
10004a0c:	0006      	movs	r6, r0
10004a0e:	b500      	push	{lr}
10004a10:	2980      	cmp	r1, #128	; 0x80
10004a12:	d006      	beq.n	10004a22 <stdio_buffered_printer+0x1e>
10004a14:	1c4b      	adds	r3, r1, #1
10004a16:	6023      	str	r3, [r4, #0]
10004a18:	1864      	adds	r4, r4, r1
10004a1a:	7126      	strb	r6, [r4, #4]
10004a1c:	bc80      	pop	{r7}
10004a1e:	46b8      	mov	r8, r7
10004a20:	bdf0      	pop	{r4, r5, r6, r7, pc}
10004a22:	4b0f      	ldr	r3, [pc, #60]	; (10004a60 <stdio_buffered_printer+0x5c>)
10004a24:	681d      	ldr	r5, [r3, #0]
10004a26:	2d00      	cmp	r5, #0
10004a28:	d016      	beq.n	10004a58 <stdio_buffered_printer+0x54>
10004a2a:	1d23      	adds	r3, r4, #4
10004a2c:	4698      	mov	r8, r3
10004a2e:	4f0d      	ldr	r7, [pc, #52]	; (10004a64 <stdio_buffered_printer+0x60>)
10004a30:	e002      	b.n	10004a38 <stdio_buffered_printer+0x34>
10004a32:	692d      	ldr	r5, [r5, #16]
10004a34:	2d00      	cmp	r5, #0
10004a36:	d00f      	beq.n	10004a58 <stdio_buffered_printer+0x54>
10004a38:	682b      	ldr	r3, [r5, #0]
10004a3a:	2b00      	cmp	r3, #0
10004a3c:	d0f9      	beq.n	10004a32 <stdio_buffered_printer+0x2e>
10004a3e:	683b      	ldr	r3, [r7, #0]
10004a40:	2b00      	cmp	r3, #0
10004a42:	d001      	beq.n	10004a48 <stdio_buffered_printer+0x44>
10004a44:	42ab      	cmp	r3, r5
10004a46:	d1f4      	bne.n	10004a32 <stdio_buffered_printer+0x2e>
10004a48:	0028      	movs	r0, r5
10004a4a:	4641      	mov	r1, r8
10004a4c:	6822      	ldr	r2, [r4, #0]
10004a4e:	f7ff ff7f 	bl	10004950 <stdio_out_chars_crlf>
10004a52:	692d      	ldr	r5, [r5, #16]
10004a54:	2d00      	cmp	r5, #0
10004a56:	d1ef      	bne.n	10004a38 <stdio_buffered_printer+0x34>
10004a58:	2301      	movs	r3, #1
10004a5a:	2100      	movs	r1, #0
10004a5c:	e7db      	b.n	10004a16 <stdio_buffered_printer+0x12>
10004a5e:	46c0      	nop			; (mov r8, r8)
10004a60:	20001834 	.word	0x20001834
10004a64:	2000183c 	.word	0x2000183c

10004a68 <stdio_put_string.isra.0>:
10004a68:	b5f0      	push	{r4, r5, r6, r7, lr}
10004a6a:	46de      	mov	lr, fp
10004a6c:	4657      	mov	r7, sl
10004a6e:	464e      	mov	r6, r9
10004a70:	4645      	mov	r5, r8
10004a72:	b5e0      	push	{r5, r6, r7, lr}
10004a74:	b085      	sub	sp, #20
10004a76:	0017      	movs	r7, r2
10004a78:	001c      	movs	r4, r3
10004a7a:	0006      	movs	r6, r0
10004a7c:	000d      	movs	r5, r1
10004a7e:	f7fc fe95 	bl	100017ac <time_us_64>
10004a82:	2300      	movs	r3, #0
10004a84:	4a30      	ldr	r2, [pc, #192]	; (10004b48 <stdio_put_string.isra.0+0xe0>)
10004a86:	1812      	adds	r2, r2, r0
10004a88:	414b      	adcs	r3, r1
10004a8a:	2b00      	cmp	r3, #0
10004a8c:	db58      	blt.n	10004b40 <stdio_put_string.isra.0+0xd8>
10004a8e:	492f      	ldr	r1, [pc, #188]	; (10004b4c <stdio_put_string.isra.0+0xe4>)
10004a90:	0008      	movs	r0, r1
10004a92:	468a      	mov	sl, r1
10004a94:	f002 fb30 	bl	100070f8 <__mutex_try_enter_block_until_veneer>
10004a98:	9001      	str	r0, [sp, #4]
10004a9a:	1c6b      	adds	r3, r5, #1
10004a9c:	d103      	bne.n	10004aa6 <stdio_put_string.isra.0+0x3e>
10004a9e:	0030      	movs	r0, r6
10004aa0:	f002 fac0 	bl	10007024 <strlen>
10004aa4:	0005      	movs	r5, r0
10004aa6:	2c00      	cmp	r4, #0
10004aa8:	d125      	bne.n	10004af6 <stdio_put_string.isra.0+0x8e>
10004aaa:	4b29      	ldr	r3, [pc, #164]	; (10004b50 <stdio_put_string.isra.0+0xe8>)
10004aac:	4698      	mov	r8, r3
10004aae:	4b29      	ldr	r3, [pc, #164]	; (10004b54 <stdio_put_string.isra.0+0xec>)
10004ab0:	681c      	ldr	r4, [r3, #0]
10004ab2:	2c00      	cmp	r4, #0
10004ab4:	d015      	beq.n	10004ae2 <stdio_put_string.isra.0+0x7a>
10004ab6:	2f00      	cmp	r7, #0
10004ab8:	d120      	bne.n	10004afc <stdio_put_string.isra.0+0x94>
10004aba:	4f27      	ldr	r7, [pc, #156]	; (10004b58 <stdio_put_string.isra.0+0xf0>)
10004abc:	e002      	b.n	10004ac4 <stdio_put_string.isra.0+0x5c>
10004abe:	6924      	ldr	r4, [r4, #16]
10004ac0:	2c00      	cmp	r4, #0
10004ac2:	d00e      	beq.n	10004ae2 <stdio_put_string.isra.0+0x7a>
10004ac4:	6823      	ldr	r3, [r4, #0]
10004ac6:	2b00      	cmp	r3, #0
10004ac8:	d0f9      	beq.n	10004abe <stdio_put_string.isra.0+0x56>
10004aca:	683b      	ldr	r3, [r7, #0]
10004acc:	2b00      	cmp	r3, #0
10004ace:	d001      	beq.n	10004ad4 <stdio_put_string.isra.0+0x6c>
10004ad0:	42a3      	cmp	r3, r4
10004ad2:	d1f4      	bne.n	10004abe <stdio_put_string.isra.0+0x56>
10004ad4:	0020      	movs	r0, r4
10004ad6:	002a      	movs	r2, r5
10004ad8:	0031      	movs	r1, r6
10004ada:	47c0      	blx	r8
10004adc:	6924      	ldr	r4, [r4, #16]
10004ade:	2c00      	cmp	r4, #0
10004ae0:	d1f0      	bne.n	10004ac4 <stdio_put_string.isra.0+0x5c>
10004ae2:	9b01      	ldr	r3, [sp, #4]
10004ae4:	2b00      	cmp	r3, #0
10004ae6:	d127      	bne.n	10004b38 <stdio_put_string.isra.0+0xd0>
10004ae8:	b005      	add	sp, #20
10004aea:	bcf0      	pop	{r4, r5, r6, r7}
10004aec:	46bb      	mov	fp, r7
10004aee:	46b2      	mov	sl, r6
10004af0:	46a9      	mov	r9, r5
10004af2:	46a0      	mov	r8, r4
10004af4:	bdf0      	pop	{r4, r5, r6, r7, pc}
10004af6:	4b19      	ldr	r3, [pc, #100]	; (10004b5c <stdio_put_string.isra.0+0xf4>)
10004af8:	4698      	mov	r8, r3
10004afa:	e7d8      	b.n	10004aae <stdio_put_string.isra.0+0x46>
10004afc:	4b16      	ldr	r3, [pc, #88]	; (10004b58 <stdio_put_string.isra.0+0xf0>)
10004afe:	4699      	mov	r9, r3
10004b00:	ab02      	add	r3, sp, #8
10004b02:	1ddf      	adds	r7, r3, #7
10004b04:	230a      	movs	r3, #10
10004b06:	469b      	mov	fp, r3
10004b08:	e002      	b.n	10004b10 <stdio_put_string.isra.0+0xa8>
10004b0a:	6924      	ldr	r4, [r4, #16]
10004b0c:	2c00      	cmp	r4, #0
10004b0e:	d0e8      	beq.n	10004ae2 <stdio_put_string.isra.0+0x7a>
10004b10:	6823      	ldr	r3, [r4, #0]
10004b12:	2b00      	cmp	r3, #0
10004b14:	d0f9      	beq.n	10004b0a <stdio_put_string.isra.0+0xa2>
10004b16:	464b      	mov	r3, r9
10004b18:	681b      	ldr	r3, [r3, #0]
10004b1a:	2b00      	cmp	r3, #0
10004b1c:	d001      	beq.n	10004b22 <stdio_put_string.isra.0+0xba>
10004b1e:	42a3      	cmp	r3, r4
10004b20:	d1f3      	bne.n	10004b0a <stdio_put_string.isra.0+0xa2>
10004b22:	002a      	movs	r2, r5
10004b24:	0031      	movs	r1, r6
10004b26:	0020      	movs	r0, r4
10004b28:	47c0      	blx	r8
10004b2a:	465b      	mov	r3, fp
10004b2c:	2201      	movs	r2, #1
10004b2e:	0039      	movs	r1, r7
10004b30:	0020      	movs	r0, r4
10004b32:	703b      	strb	r3, [r7, #0]
10004b34:	47c0      	blx	r8
10004b36:	e7e8      	b.n	10004b0a <stdio_put_string.isra.0+0xa2>
10004b38:	4650      	mov	r0, sl
10004b3a:	f002 faad 	bl	10007098 <__mutex_exit_veneer>
10004b3e:	e7d3      	b.n	10004ae8 <stdio_put_string.isra.0+0x80>
10004b40:	2201      	movs	r2, #1
10004b42:	4b07      	ldr	r3, [pc, #28]	; (10004b60 <stdio_put_string.isra.0+0xf8>)
10004b44:	4252      	negs	r2, r2
10004b46:	e7a2      	b.n	10004a8e <stdio_put_string.isra.0+0x26>
10004b48:	000f4240 	.word	0x000f4240
10004b4c:	20000f00 	.word	0x20000f00
10004b50:	10004951 	.word	0x10004951
10004b54:	20001834 	.word	0x20001834
10004b58:	2000183c 	.word	0x2000183c
10004b5c:	10004941 	.word	0x10004941
10004b60:	7fffffff 	.word	0x7fffffff

10004b64 <__wrap_putchar>:
10004b64:	b5f0      	push	{r4, r5, r6, r7, lr}
10004b66:	46ce      	mov	lr, r9
10004b68:	4647      	mov	r7, r8
10004b6a:	b580      	push	{r7, lr}
10004b6c:	b083      	sub	sp, #12
10004b6e:	466b      	mov	r3, sp
10004b70:	0006      	movs	r6, r0
10004b72:	1ddd      	adds	r5, r3, #7
10004b74:	7028      	strb	r0, [r5, #0]
10004b76:	f7fc fe19 	bl	100017ac <time_us_64>
10004b7a:	2300      	movs	r3, #0
10004b7c:	4a1a      	ldr	r2, [pc, #104]	; (10004be8 <__wrap_putchar+0x84>)
10004b7e:	1812      	adds	r2, r2, r0
10004b80:	414b      	adcs	r3, r1
10004b82:	2b00      	cmp	r3, #0
10004b84:	db2b      	blt.n	10004bde <__wrap_putchar+0x7a>
10004b86:	4919      	ldr	r1, [pc, #100]	; (10004bec <__wrap_putchar+0x88>)
10004b88:	0008      	movs	r0, r1
10004b8a:	4688      	mov	r8, r1
10004b8c:	f002 fab4 	bl	100070f8 <__mutex_try_enter_block_until_veneer>
10004b90:	4b17      	ldr	r3, [pc, #92]	; (10004bf0 <__wrap_putchar+0x8c>)
10004b92:	4681      	mov	r9, r0
10004b94:	681c      	ldr	r4, [r3, #0]
10004b96:	2c00      	cmp	r4, #0
10004b98:	d014      	beq.n	10004bc4 <__wrap_putchar+0x60>
10004b9a:	4f16      	ldr	r7, [pc, #88]	; (10004bf4 <__wrap_putchar+0x90>)
10004b9c:	e002      	b.n	10004ba4 <__wrap_putchar+0x40>
10004b9e:	6924      	ldr	r4, [r4, #16]
10004ba0:	2c00      	cmp	r4, #0
10004ba2:	d00f      	beq.n	10004bc4 <__wrap_putchar+0x60>
10004ba4:	6823      	ldr	r3, [r4, #0]
10004ba6:	2b00      	cmp	r3, #0
10004ba8:	d0f9      	beq.n	10004b9e <__wrap_putchar+0x3a>
10004baa:	683b      	ldr	r3, [r7, #0]
10004bac:	2b00      	cmp	r3, #0
10004bae:	d001      	beq.n	10004bb4 <__wrap_putchar+0x50>
10004bb0:	42a3      	cmp	r3, r4
10004bb2:	d1f4      	bne.n	10004b9e <__wrap_putchar+0x3a>
10004bb4:	0020      	movs	r0, r4
10004bb6:	2201      	movs	r2, #1
10004bb8:	0029      	movs	r1, r5
10004bba:	f7ff fec9 	bl	10004950 <stdio_out_chars_crlf>
10004bbe:	6924      	ldr	r4, [r4, #16]
10004bc0:	2c00      	cmp	r4, #0
10004bc2:	d1ef      	bne.n	10004ba4 <__wrap_putchar+0x40>
10004bc4:	464b      	mov	r3, r9
10004bc6:	2b00      	cmp	r3, #0
10004bc8:	d105      	bne.n	10004bd6 <__wrap_putchar+0x72>
10004bca:	0030      	movs	r0, r6
10004bcc:	b003      	add	sp, #12
10004bce:	bcc0      	pop	{r6, r7}
10004bd0:	46b9      	mov	r9, r7
10004bd2:	46b0      	mov	r8, r6
10004bd4:	bdf0      	pop	{r4, r5, r6, r7, pc}
10004bd6:	4640      	mov	r0, r8
10004bd8:	f002 fa5e 	bl	10007098 <__mutex_exit_veneer>
10004bdc:	e7f5      	b.n	10004bca <__wrap_putchar+0x66>
10004bde:	2201      	movs	r2, #1
10004be0:	4b05      	ldr	r3, [pc, #20]	; (10004bf8 <__wrap_putchar+0x94>)
10004be2:	4252      	negs	r2, r2
10004be4:	e7cf      	b.n	10004b86 <__wrap_putchar+0x22>
10004be6:	46c0      	nop			; (mov r8, r8)
10004be8:	000f4240 	.word	0x000f4240
10004bec:	20000f00 	.word	0x20000f00
10004bf0:	20001834 	.word	0x20001834
10004bf4:	2000183c 	.word	0x2000183c
10004bf8:	7fffffff 	.word	0x7fffffff

10004bfc <__wrap_puts>:
10004bfc:	b570      	push	{r4, r5, r6, lr}
10004bfe:	0004      	movs	r4, r0
10004c00:	f002 fa10 	bl	10007024 <strlen>
10004c04:	2300      	movs	r3, #0
10004c06:	0001      	movs	r1, r0
10004c08:	0005      	movs	r5, r0
10004c0a:	2201      	movs	r2, #1
10004c0c:	0020      	movs	r0, r4
10004c0e:	f7ff ff2b 	bl	10004a68 <stdio_put_string.isra.0>
10004c12:	4b08      	ldr	r3, [pc, #32]	; (10004c34 <__wrap_puts+0x38>)
10004c14:	681c      	ldr	r4, [r3, #0]
10004c16:	2c00      	cmp	r4, #0
10004c18:	d006      	beq.n	10004c28 <__wrap_puts+0x2c>
10004c1a:	6863      	ldr	r3, [r4, #4]
10004c1c:	2b00      	cmp	r3, #0
10004c1e:	d005      	beq.n	10004c2c <__wrap_puts+0x30>
10004c20:	4798      	blx	r3
10004c22:	6924      	ldr	r4, [r4, #16]
10004c24:	2c00      	cmp	r4, #0
10004c26:	d1f8      	bne.n	10004c1a <__wrap_puts+0x1e>
10004c28:	0028      	movs	r0, r5
10004c2a:	bd70      	pop	{r4, r5, r6, pc}
10004c2c:	6924      	ldr	r4, [r4, #16]
10004c2e:	2c00      	cmp	r4, #0
10004c30:	d1f3      	bne.n	10004c1a <__wrap_puts+0x1e>
10004c32:	e7f9      	b.n	10004c28 <__wrap_puts+0x2c>
10004c34:	20001834 	.word	0x20001834

10004c38 <stdio_set_driver_enabled>:
10004c38:	4a0a      	ldr	r2, [pc, #40]	; (10004c64 <stdio_set_driver_enabled+0x2c>)
10004c3a:	6813      	ldr	r3, [r2, #0]
10004c3c:	2b00      	cmp	r3, #0
10004c3e:	d105      	bne.n	10004c4c <stdio_set_driver_enabled+0x14>
10004c40:	e00c      	b.n	10004c5c <stdio_set_driver_enabled+0x24>
10004c42:	001a      	movs	r2, r3
10004c44:	691b      	ldr	r3, [r3, #16]
10004c46:	3210      	adds	r2, #16
10004c48:	2b00      	cmp	r3, #0
10004c4a:	d007      	beq.n	10004c5c <stdio_set_driver_enabled+0x24>
10004c4c:	4298      	cmp	r0, r3
10004c4e:	d1f8      	bne.n	10004c42 <stdio_set_driver_enabled+0xa>
10004c50:	2900      	cmp	r1, #0
10004c52:	d102      	bne.n	10004c5a <stdio_set_driver_enabled+0x22>
10004c54:	6903      	ldr	r3, [r0, #16]
10004c56:	6013      	str	r3, [r2, #0]
10004c58:	6101      	str	r1, [r0, #16]
10004c5a:	4770      	bx	lr
10004c5c:	2900      	cmp	r1, #0
10004c5e:	d0fc      	beq.n	10004c5a <stdio_set_driver_enabled+0x22>
10004c60:	6010      	str	r0, [r2, #0]
10004c62:	e7fa      	b.n	10004c5a <stdio_set_driver_enabled+0x22>
10004c64:	20001834 	.word	0x20001834

10004c68 <__wrap_vprintf>:
10004c68:	b5f0      	push	{r4, r5, r6, r7, lr}
10004c6a:	46ce      	mov	lr, r9
10004c6c:	4647      	mov	r7, r8
10004c6e:	b580      	push	{r7, lr}
10004c70:	b0a5      	sub	sp, #148	; 0x94
10004c72:	0004      	movs	r4, r0
10004c74:	000d      	movs	r5, r1
10004c76:	f7fc fd99 	bl	100017ac <time_us_64>
10004c7a:	2300      	movs	r3, #0
10004c7c:	4a2a      	ldr	r2, [pc, #168]	; (10004d28 <__wrap_vprintf+0xc0>)
10004c7e:	1812      	adds	r2, r2, r0
10004c80:	414b      	adcs	r3, r1
10004c82:	2b00      	cmp	r3, #0
10004c84:	db49      	blt.n	10004d1a <__wrap_vprintf+0xb2>
10004c86:	4e29      	ldr	r6, [pc, #164]	; (10004d2c <__wrap_vprintf+0xc4>)
10004c88:	0030      	movs	r0, r6
10004c8a:	f002 fa35 	bl	100070f8 <__mutex_try_enter_block_until_veneer>
10004c8e:	2300      	movs	r3, #0
10004c90:	0007      	movs	r7, r0
10004c92:	9303      	str	r3, [sp, #12]
10004c94:	0022      	movs	r2, r4
10004c96:	002b      	movs	r3, r5
10004c98:	4825      	ldr	r0, [pc, #148]	; (10004d30 <__wrap_vprintf+0xc8>)
10004c9a:	a903      	add	r1, sp, #12
10004c9c:	f7fe feb2 	bl	10003a04 <vfctprintf>
10004ca0:	9b03      	ldr	r3, [sp, #12]
10004ca2:	4680      	mov	r8, r0
10004ca4:	2b00      	cmp	r3, #0
10004ca6:	d114      	bne.n	10004cd2 <__wrap_vprintf+0x6a>
10004ca8:	4b22      	ldr	r3, [pc, #136]	; (10004d34 <__wrap_vprintf+0xcc>)
10004caa:	681c      	ldr	r4, [r3, #0]
10004cac:	2c00      	cmp	r4, #0
10004cae:	d006      	beq.n	10004cbe <__wrap_vprintf+0x56>
10004cb0:	6863      	ldr	r3, [r4, #4]
10004cb2:	2b00      	cmp	r3, #0
10004cb4:	d00b      	beq.n	10004cce <__wrap_vprintf+0x66>
10004cb6:	4798      	blx	r3
10004cb8:	6924      	ldr	r4, [r4, #16]
10004cba:	2c00      	cmp	r4, #0
10004cbc:	d1f8      	bne.n	10004cb0 <__wrap_vprintf+0x48>
10004cbe:	2f00      	cmp	r7, #0
10004cc0:	d127      	bne.n	10004d12 <__wrap_vprintf+0xaa>
10004cc2:	4640      	mov	r0, r8
10004cc4:	b025      	add	sp, #148	; 0x94
10004cc6:	bcc0      	pop	{r6, r7}
10004cc8:	46b9      	mov	r9, r7
10004cca:	46b0      	mov	r8, r6
10004ccc:	bdf0      	pop	{r4, r5, r6, r7, pc}
10004cce:	6924      	ldr	r4, [r4, #16]
10004cd0:	e7ec      	b.n	10004cac <__wrap_vprintf+0x44>
10004cd2:	4b18      	ldr	r3, [pc, #96]	; (10004d34 <__wrap_vprintf+0xcc>)
10004cd4:	681d      	ldr	r5, [r3, #0]
10004cd6:	4699      	mov	r9, r3
10004cd8:	2d00      	cmp	r5, #0
10004cda:	d022      	beq.n	10004d22 <__wrap_vprintf+0xba>
10004cdc:	4c16      	ldr	r4, [pc, #88]	; (10004d38 <__wrap_vprintf+0xd0>)
10004cde:	e002      	b.n	10004ce6 <__wrap_vprintf+0x7e>
10004ce0:	692d      	ldr	r5, [r5, #16]
10004ce2:	2d00      	cmp	r5, #0
10004ce4:	d011      	beq.n	10004d0a <__wrap_vprintf+0xa2>
10004ce6:	682b      	ldr	r3, [r5, #0]
10004ce8:	2b00      	cmp	r3, #0
10004cea:	d0f9      	beq.n	10004ce0 <__wrap_vprintf+0x78>
10004cec:	6823      	ldr	r3, [r4, #0]
10004cee:	2b00      	cmp	r3, #0
10004cf0:	d001      	beq.n	10004cf6 <__wrap_vprintf+0x8e>
10004cf2:	429d      	cmp	r5, r3
10004cf4:	d1f4      	bne.n	10004ce0 <__wrap_vprintf+0x78>
10004cf6:	9b03      	ldr	r3, [sp, #12]
10004cf8:	0028      	movs	r0, r5
10004cfa:	001a      	movs	r2, r3
10004cfc:	a904      	add	r1, sp, #16
10004cfe:	9301      	str	r3, [sp, #4]
10004d00:	f7ff fe26 	bl	10004950 <stdio_out_chars_crlf>
10004d04:	692d      	ldr	r5, [r5, #16]
10004d06:	2d00      	cmp	r5, #0
10004d08:	d1ed      	bne.n	10004ce6 <__wrap_vprintf+0x7e>
10004d0a:	464b      	mov	r3, r9
10004d0c:	9503      	str	r5, [sp, #12]
10004d0e:	681c      	ldr	r4, [r3, #0]
10004d10:	e7cc      	b.n	10004cac <__wrap_vprintf+0x44>
10004d12:	0030      	movs	r0, r6
10004d14:	f002 f9c0 	bl	10007098 <__mutex_exit_veneer>
10004d18:	e7d3      	b.n	10004cc2 <__wrap_vprintf+0x5a>
10004d1a:	2201      	movs	r2, #1
10004d1c:	4b07      	ldr	r3, [pc, #28]	; (10004d3c <__wrap_vprintf+0xd4>)
10004d1e:	4252      	negs	r2, r2
10004d20:	e7b1      	b.n	10004c86 <__wrap_vprintf+0x1e>
10004d22:	9503      	str	r5, [sp, #12]
10004d24:	e7cb      	b.n	10004cbe <__wrap_vprintf+0x56>
10004d26:	46c0      	nop			; (mov r8, r8)
10004d28:	000f4240 	.word	0x000f4240
10004d2c:	20000f00 	.word	0x20000f00
10004d30:	10004a05 	.word	0x10004a05
10004d34:	20001834 	.word	0x20001834
10004d38:	2000183c 	.word	0x2000183c
10004d3c:	7fffffff 	.word	0x7fffffff

10004d40 <__wrap_printf>:
10004d40:	b40f      	push	{r0, r1, r2, r3}
10004d42:	b500      	push	{lr}
10004d44:	b083      	sub	sp, #12
10004d46:	a904      	add	r1, sp, #16
10004d48:	c901      	ldmia	r1!, {r0}
10004d4a:	9101      	str	r1, [sp, #4]
10004d4c:	f7ff ff8c 	bl	10004c68 <__wrap_vprintf>
10004d50:	b003      	add	sp, #12
10004d52:	bc08      	pop	{r3}
10004d54:	b004      	add	sp, #16
10004d56:	4718      	bx	r3

10004d58 <stdio_init_all>:
10004d58:	b510      	push	{r4, lr}
10004d5a:	f000 f9d9 	bl	10005110 <stdio_usb_init>
10004d5e:	bd10      	pop	{r4, pc}

10004d60 <resetd_init>:
10004d60:	4770      	bx	lr
10004d62:	46c0      	nop			; (mov r8, r8)

10004d64 <resetd_reset>:
10004d64:	2200      	movs	r2, #0
10004d66:	4b01      	ldr	r3, [pc, #4]	; (10004d6c <resetd_reset+0x8>)
10004d68:	701a      	strb	r2, [r3, #0]
10004d6a:	4770      	bx	lr
10004d6c:	20001cb9 	.word	0x20001cb9

10004d70 <resetd_open>:
10004d70:	794b      	ldrb	r3, [r1, #5]
10004d72:	2000      	movs	r0, #0
10004d74:	2bff      	cmp	r3, #255	; 0xff
10004d76:	d10b      	bne.n	10004d90 <resetd_open+0x20>
10004d78:	798b      	ldrb	r3, [r1, #6]
10004d7a:	2b00      	cmp	r3, #0
10004d7c:	d108      	bne.n	10004d90 <resetd_open+0x20>
10004d7e:	79cb      	ldrb	r3, [r1, #7]
10004d80:	2b01      	cmp	r3, #1
10004d82:	d105      	bne.n	10004d90 <resetd_open+0x20>
10004d84:	2a08      	cmp	r2, #8
10004d86:	d903      	bls.n	10004d90 <resetd_open+0x20>
10004d88:	788a      	ldrb	r2, [r1, #2]
10004d8a:	4b02      	ldr	r3, [pc, #8]	; (10004d94 <resetd_open+0x24>)
10004d8c:	3009      	adds	r0, #9
10004d8e:	701a      	strb	r2, [r3, #0]
10004d90:	4770      	bx	lr
10004d92:	46c0      	nop			; (mov r8, r8)
10004d94:	20001cb9 	.word	0x20001cb9

10004d98 <resetd_xfer_cb>:
10004d98:	2001      	movs	r0, #1
10004d9a:	4770      	bx	lr

10004d9c <resetd_control_xfer_cb>:
10004d9c:	b570      	push	{r4, r5, r6, lr}
10004d9e:	2901      	cmp	r1, #1
10004da0:	d109      	bne.n	10004db6 <resetd_control_xfer_cb+0x1a>
10004da2:	4915      	ldr	r1, [pc, #84]	; (10004df8 <resetd_control_xfer_cb+0x5c>)
10004da4:	7953      	ldrb	r3, [r2, #5]
10004da6:	7910      	ldrb	r0, [r2, #4]
10004da8:	7809      	ldrb	r1, [r1, #0]
10004daa:	021b      	lsls	r3, r3, #8
10004dac:	4303      	orrs	r3, r0
10004dae:	2000      	movs	r0, #0
10004db0:	4299      	cmp	r1, r3
10004db2:	d002      	beq.n	10004dba <resetd_control_xfer_cb+0x1e>
10004db4:	bd70      	pop	{r4, r5, r6, pc}
10004db6:	2001      	movs	r0, #1
10004db8:	e7fc      	b.n	10004db4 <resetd_control_xfer_cb+0x18>
10004dba:	7853      	ldrb	r3, [r2, #1]
10004dbc:	2b01      	cmp	r3, #1
10004dbe:	d008      	beq.n	10004dd2 <resetd_control_xfer_cb+0x36>
10004dc0:	2b02      	cmp	r3, #2
10004dc2:	d1f7      	bne.n	10004db4 <resetd_control_xfer_cb+0x18>
10004dc4:	2000      	movs	r0, #0
10004dc6:	2264      	movs	r2, #100	; 0x64
10004dc8:	2100      	movs	r1, #0
10004dca:	f7fd fa65 	bl	10002298 <watchdog_reboot>
10004dce:	2001      	movs	r0, #1
10004dd0:	e7f0      	b.n	10004db4 <resetd_control_xfer_cb+0x18>
10004dd2:	7894      	ldrb	r4, [r2, #2]
10004dd4:	78d2      	ldrb	r2, [r2, #3]
10004dd6:	0005      	movs	r5, r0
10004dd8:	0212      	lsls	r2, r2, #8
10004dda:	4314      	orrs	r4, r2
10004ddc:	05d2      	lsls	r2, r2, #23
10004dde:	d502      	bpl.n	10004de6 <resetd_control_xfer_cb+0x4a>
10004de0:	0a62      	lsrs	r2, r4, #9
10004de2:	4093      	lsls	r3, r2
10004de4:	001d      	movs	r5, r3
10004de6:	4805      	ldr	r0, [pc, #20]	; (10004dfc <resetd_control_xfer_cb+0x60>)
10004de8:	f7fe fe3c 	bl	10003a64 <rom_func_lookup>
10004dec:	217f      	movs	r1, #127	; 0x7f
10004dee:	0003      	movs	r3, r0
10004df0:	4021      	ands	r1, r4
10004df2:	0028      	movs	r0, r5
10004df4:	4798      	blx	r3
10004df6:	46c0      	nop			; (mov r8, r8)
10004df8:	20001cb9 	.word	0x20001cb9
10004dfc:	00004255 	.word	0x00004255

10004e00 <usbd_app_driver_get_cb>:
10004e00:	2301      	movs	r3, #1
10004e02:	7003      	strb	r3, [r0, #0]
10004e04:	4800      	ldr	r0, [pc, #0]	; (10004e08 <usbd_app_driver_get_cb+0x8>)
10004e06:	4770      	bx	lr
10004e08:	100074d8 	.word	0x100074d8

10004e0c <tud_cdc_line_coding_cb>:
10004e0c:	7848      	ldrb	r0, [r1, #1]
10004e0e:	780b      	ldrb	r3, [r1, #0]
10004e10:	788a      	ldrb	r2, [r1, #2]
10004e12:	0200      	lsls	r0, r0, #8
10004e14:	4318      	orrs	r0, r3
10004e16:	0412      	lsls	r2, r2, #16
10004e18:	4310      	orrs	r0, r2
10004e1a:	2296      	movs	r2, #150	; 0x96
10004e1c:	78cb      	ldrb	r3, [r1, #3]
10004e1e:	b510      	push	{r4, lr}
10004e20:	061b      	lsls	r3, r3, #24
10004e22:	4303      	orrs	r3, r0
10004e24:	00d2      	lsls	r2, r2, #3
10004e26:	4293      	cmp	r3, r2
10004e28:	d000      	beq.n	10004e2c <tud_cdc_line_coding_cb+0x20>
10004e2a:	bd10      	pop	{r4, pc}
10004e2c:	4803      	ldr	r0, [pc, #12]	; (10004e3c <tud_cdc_line_coding_cb+0x30>)
10004e2e:	f7fe fe19 	bl	10003a64 <rom_func_lookup>
10004e32:	2100      	movs	r1, #0
10004e34:	0003      	movs	r3, r0
10004e36:	0008      	movs	r0, r1
10004e38:	4798      	blx	r3
10004e3a:	46c0      	nop			; (mov r8, r8)
10004e3c:	00004255 	.word	0x00004255

10004e40 <stdio_usb_set_chars_available_callback>:
10004e40:	4b02      	ldr	r3, [pc, #8]	; (10004e4c <stdio_usb_set_chars_available_callback+0xc>)
10004e42:	6018      	str	r0, [r3, #0]
10004e44:	4b02      	ldr	r3, [pc, #8]	; (10004e50 <stdio_usb_set_chars_available_callback+0x10>)
10004e46:	6019      	str	r1, [r3, #0]
10004e48:	4770      	bx	lr
10004e4a:	46c0      	nop			; (mov r8, r8)
10004e4c:	20001798 	.word	0x20001798
10004e50:	2000179c 	.word	0x2000179c

10004e54 <usb_irq>:
10004e54:	b510      	push	{r4, lr}
10004e56:	4b02      	ldr	r3, [pc, #8]	; (10004e60 <usb_irq+0xc>)
10004e58:	7818      	ldrb	r0, [r3, #0]
10004e5a:	f7fb fdf5 	bl	10000a48 <irq_set_pending>
10004e5e:	bd10      	pop	{r4, pc}
10004e60:	20001cba 	.word	0x20001cba

10004e64 <timer_task>:
10004e64:	4b11      	ldr	r3, [pc, #68]	; (10004eac <timer_task+0x48>)
10004e66:	b570      	push	{r4, r5, r6, lr}
10004e68:	681a      	ldr	r2, [r3, #0]
10004e6a:	2a00      	cmp	r2, #0
10004e6c:	d01a      	beq.n	10004ea4 <timer_task+0x40>
10004e6e:	f3ef 8110 	mrs	r1, PRIMASK
10004e72:	b672      	cpsid	i
10004e74:	6810      	ldr	r0, [r2, #0]
10004e76:	2800      	cmp	r0, #0
10004e78:	d0fc      	beq.n	10004e74 <timer_task+0x10>
10004e7a:	f3bf 8f5f 	dmb	sy
10004e7e:	2200      	movs	r2, #0
10004e80:	480b      	ldr	r0, [pc, #44]	; (10004eb0 <timer_task+0x4c>)
10004e82:	6059      	str	r1, [r3, #4]
10004e84:	7002      	strb	r2, [r0, #0]
10004e86:	681b      	ldr	r3, [r3, #0]
10004e88:	f3bf 8f5f 	dmb	sy
10004e8c:	601a      	str	r2, [r3, #0]
10004e8e:	f381 8810 	msr	PRIMASK, r1
10004e92:	2400      	movs	r4, #0
10004e94:	2500      	movs	r5, #0
10004e96:	4b07      	ldr	r3, [pc, #28]	; (10004eb4 <timer_task+0x50>)
10004e98:	7818      	ldrb	r0, [r3, #0]
10004e9a:	f7fb fdd5 	bl	10000a48 <irq_set_pending>
10004e9e:	0029      	movs	r1, r5
10004ea0:	0020      	movs	r0, r4
10004ea2:	bd70      	pop	{r4, r5, r6, pc}
10004ea4:	24fa      	movs	r4, #250	; 0xfa
10004ea6:	2500      	movs	r5, #0
10004ea8:	00a4      	lsls	r4, r4, #2
10004eaa:	e7f4      	b.n	10004e96 <timer_task+0x32>
10004eac:	20001c4c 	.word	0x20001c4c
10004eb0:	20001cbb 	.word	0x20001cbb
10004eb4:	20001cba 	.word	0x20001cba

10004eb8 <stdio_usb_in_chars>:
10004eb8:	b570      	push	{r4, r5, r6, lr}
10004eba:	0004      	movs	r4, r0
10004ebc:	2000      	movs	r0, #0
10004ebe:	000e      	movs	r6, r1
10004ec0:	f001 fb02 	bl	100064c8 <tud_cdc_n_connected>
10004ec4:	2800      	cmp	r0, #0
10004ec6:	d035      	beq.n	10004f34 <stdio_usb_in_chars+0x7c>
10004ec8:	2000      	movs	r0, #0
10004eca:	f001 fb15 	bl	100064f8 <tud_cdc_n_available>
10004ece:	2800      	cmp	r0, #0
10004ed0:	d030      	beq.n	10004f34 <stdio_usb_in_chars+0x7c>
10004ed2:	f7fc fc6b 	bl	100017ac <time_us_64>
10004ed6:	2300      	movs	r3, #0
10004ed8:	4a18      	ldr	r2, [pc, #96]	; (10004f3c <stdio_usb_in_chars+0x84>)
10004eda:	1812      	adds	r2, r2, r0
10004edc:	414b      	adcs	r3, r1
10004ede:	2b00      	cmp	r3, #0
10004ee0:	db24      	blt.n	10004f2c <stdio_usb_in_chars+0x74>
10004ee2:	4d17      	ldr	r5, [pc, #92]	; (10004f40 <stdio_usb_in_chars+0x88>)
10004ee4:	0028      	movs	r0, r5
10004ee6:	f002 f907 	bl	100070f8 <__mutex_try_enter_block_until_veneer>
10004eea:	2800      	cmp	r0, #0
10004eec:	d022      	beq.n	10004f34 <stdio_usb_in_chars+0x7c>
10004eee:	2000      	movs	r0, #0
10004ef0:	f001 faea 	bl	100064c8 <tud_cdc_n_connected>
10004ef4:	2800      	cmp	r0, #0
10004ef6:	d10b      	bne.n	10004f10 <stdio_usb_in_chars+0x58>
10004ef8:	2001      	movs	r0, #1
10004efa:	2100      	movs	r1, #0
10004efc:	2403      	movs	r4, #3
10004efe:	4240      	negs	r0, r0
10004f00:	f000 fccc 	bl	1000589c <tud_task_ext>
10004f04:	4264      	negs	r4, r4
10004f06:	0028      	movs	r0, r5
10004f08:	f002 f8c6 	bl	10007098 <__mutex_exit_veneer>
10004f0c:	0020      	movs	r0, r4
10004f0e:	bd70      	pop	{r4, r5, r6, pc}
10004f10:	2000      	movs	r0, #0
10004f12:	f001 faf1 	bl	100064f8 <tud_cdc_n_available>
10004f16:	2800      	cmp	r0, #0
10004f18:	d0ee      	beq.n	10004ef8 <stdio_usb_in_chars+0x40>
10004f1a:	0021      	movs	r1, r4
10004f1c:	0032      	movs	r2, r6
10004f1e:	2000      	movs	r0, #0
10004f20:	f001 faf6 	bl	10006510 <tud_cdc_n_read>
10004f24:	1e04      	subs	r4, r0, #0
10004f26:	d1ee      	bne.n	10004f06 <stdio_usb_in_chars+0x4e>
10004f28:	3c03      	subs	r4, #3
10004f2a:	e7ec      	b.n	10004f06 <stdio_usb_in_chars+0x4e>
10004f2c:	2201      	movs	r2, #1
10004f2e:	4b05      	ldr	r3, [pc, #20]	; (10004f44 <stdio_usb_in_chars+0x8c>)
10004f30:	4252      	negs	r2, r2
10004f32:	e7d6      	b.n	10004ee2 <stdio_usb_in_chars+0x2a>
10004f34:	2403      	movs	r4, #3
10004f36:	4264      	negs	r4, r4
10004f38:	e7e8      	b.n	10004f0c <stdio_usb_in_chars+0x54>
10004f3a:	46c0      	nop			; (mov r8, r8)
10004f3c:	000f4240 	.word	0x000f4240
10004f40:	20001c84 	.word	0x20001c84
10004f44:	7fffffff 	.word	0x7fffffff

10004f48 <stdio_usb_out_chars>:
10004f48:	b5f8      	push	{r3, r4, r5, r6, r7, lr}
10004f4a:	46de      	mov	lr, fp
10004f4c:	4657      	mov	r7, sl
10004f4e:	b580      	push	{r7, lr}
10004f50:	0005      	movs	r5, r0
10004f52:	000c      	movs	r4, r1
10004f54:	f7fc fc2a 	bl	100017ac <time_us_64>
10004f58:	2300      	movs	r3, #0
10004f5a:	4a36      	ldr	r2, [pc, #216]	; (10005034 <stdio_usb_out_chars+0xec>)
10004f5c:	1812      	adds	r2, r2, r0
10004f5e:	414b      	adcs	r3, r1
10004f60:	2b00      	cmp	r3, #0
10004f62:	db5a      	blt.n	1000501a <stdio_usb_out_chars+0xd2>
10004f64:	4934      	ldr	r1, [pc, #208]	; (10005038 <stdio_usb_out_chars+0xf0>)
10004f66:	0008      	movs	r0, r1
10004f68:	468a      	mov	sl, r1
10004f6a:	f002 f8c5 	bl	100070f8 <__mutex_try_enter_block_until_veneer>
10004f6e:	2800      	cmp	r0, #0
10004f70:	d103      	bne.n	10004f7a <stdio_usb_out_chars+0x32>
10004f72:	bcc0      	pop	{r6, r7}
10004f74:	46bb      	mov	fp, r7
10004f76:	46b2      	mov	sl, r6
10004f78:	bdf8      	pop	{r3, r4, r5, r6, r7, pc}
10004f7a:	2000      	movs	r0, #0
10004f7c:	f001 faa4 	bl	100064c8 <tud_cdc_n_connected>
10004f80:	2800      	cmp	r0, #0
10004f82:	d04e      	beq.n	10005022 <stdio_usb_out_chars+0xda>
10004f84:	2600      	movs	r6, #0
10004f86:	2c00      	cmp	r4, #0
10004f88:	dd43      	ble.n	10005012 <stdio_usb_out_chars+0xca>
10004f8a:	4b2c      	ldr	r3, [pc, #176]	; (1000503c <stdio_usb_out_chars+0xf4>)
10004f8c:	469b      	mov	fp, r3
10004f8e:	e014      	b.n	10004fba <stdio_usb_out_chars+0x72>
10004f90:	19a9      	adds	r1, r5, r6
10004f92:	2000      	movs	r0, #0
10004f94:	f001 fb30 	bl	100065f8 <tud_cdc_n_write>
10004f98:	0007      	movs	r7, r0
10004f9a:	2001      	movs	r0, #1
10004f9c:	2100      	movs	r1, #0
10004f9e:	4240      	negs	r0, r0
10004fa0:	f000 fc7c 	bl	1000589c <tud_task_ext>
10004fa4:	2000      	movs	r0, #0
10004fa6:	f001 faeb 	bl	10006580 <tud_cdc_n_write_flush>
10004faa:	f7fc fbff 	bl	100017ac <time_us_64>
10004fae:	4b23      	ldr	r3, [pc, #140]	; (1000503c <stdio_usb_out_chars+0xf4>)
10004fb0:	19f6      	adds	r6, r6, r7
10004fb2:	6018      	str	r0, [r3, #0]
10004fb4:	6059      	str	r1, [r3, #4]
10004fb6:	42b4      	cmp	r4, r6
10004fb8:	dd2b      	ble.n	10005012 <stdio_usb_out_chars+0xca>
10004fba:	2000      	movs	r0, #0
10004fbc:	f001 fb36 	bl	1000662c <tud_cdc_n_write_available>
10004fc0:	1ba7      	subs	r7, r4, r6
10004fc2:	0002      	movs	r2, r0
10004fc4:	42b8      	cmp	r0, r7
10004fc6:	dd00      	ble.n	10004fca <stdio_usb_out_chars+0x82>
10004fc8:	003a      	movs	r2, r7
10004fca:	2a00      	cmp	r2, #0
10004fcc:	d1e0      	bne.n	10004f90 <stdio_usb_out_chars+0x48>
10004fce:	2001      	movs	r0, #1
10004fd0:	2100      	movs	r1, #0
10004fd2:	4240      	negs	r0, r0
10004fd4:	f000 fc62 	bl	1000589c <tud_task_ext>
10004fd8:	2000      	movs	r0, #0
10004fda:	f001 fad1 	bl	10006580 <tud_cdc_n_write_flush>
10004fde:	2000      	movs	r0, #0
10004fe0:	f001 fa72 	bl	100064c8 <tud_cdc_n_connected>
10004fe4:	2800      	cmp	r0, #0
10004fe6:	d014      	beq.n	10005012 <stdio_usb_out_chars+0xca>
10004fe8:	2000      	movs	r0, #0
10004fea:	f001 fb1f 	bl	1000662c <tud_cdc_n_write_available>
10004fee:	2800      	cmp	r0, #0
10004ff0:	d1e1      	bne.n	10004fb6 <stdio_usb_out_chars+0x6e>
10004ff2:	f7fc fbdb 	bl	100017ac <time_us_64>
10004ff6:	465b      	mov	r3, fp
10004ff8:	000f      	movs	r7, r1
10004ffa:	681a      	ldr	r2, [r3, #0]
10004ffc:	685b      	ldr	r3, [r3, #4]
10004ffe:	2100      	movs	r1, #0
10005000:	4684      	mov	ip, r0
10005002:	480f      	ldr	r0, [pc, #60]	; (10005040 <stdio_usb_out_chars+0xf8>)
10005004:	1812      	adds	r2, r2, r0
10005006:	414b      	adcs	r3, r1
10005008:	429f      	cmp	r7, r3
1000500a:	d802      	bhi.n	10005012 <stdio_usb_out_chars+0xca>
1000500c:	d1d3      	bne.n	10004fb6 <stdio_usb_out_chars+0x6e>
1000500e:	4594      	cmp	ip, r2
10005010:	d9d1      	bls.n	10004fb6 <stdio_usb_out_chars+0x6e>
10005012:	4650      	mov	r0, sl
10005014:	f002 f840 	bl	10007098 <__mutex_exit_veneer>
10005018:	e7ab      	b.n	10004f72 <stdio_usb_out_chars+0x2a>
1000501a:	2201      	movs	r2, #1
1000501c:	4b09      	ldr	r3, [pc, #36]	; (10005044 <stdio_usb_out_chars+0xfc>)
1000501e:	4252      	negs	r2, r2
10005020:	e7a0      	b.n	10004f64 <stdio_usb_out_chars+0x1c>
10005022:	2000      	movs	r0, #0
10005024:	2100      	movs	r1, #0
10005026:	4b05      	ldr	r3, [pc, #20]	; (1000503c <stdio_usb_out_chars+0xf4>)
10005028:	6018      	str	r0, [r3, #0]
1000502a:	6059      	str	r1, [r3, #4]
1000502c:	4650      	mov	r0, sl
1000502e:	f002 f833 	bl	10007098 <__mutex_exit_veneer>
10005032:	e79e      	b.n	10004f72 <stdio_usb_out_chars+0x2a>
10005034:	000f4240 	.word	0x000f4240
10005038:	20001c84 	.word	0x20001c84
1000503c:	20001020 	.word	0x20001020
10005040:	0007a120 	.word	0x0007a120
10005044:	7fffffff 	.word	0x7fffffff

10005048 <low_priority_worker_irq>:
10005048:	b510      	push	{r4, lr}
1000504a:	4c24      	ldr	r4, [pc, #144]	; (100050dc <low_priority_worker_irq+0x94>)
1000504c:	b084      	sub	sp, #16
1000504e:	2100      	movs	r1, #0
10005050:	0020      	movs	r0, r4
10005052:	f002 f841 	bl	100070d8 <__mutex_try_enter_veneer>
10005056:	2800      	cmp	r0, #0
10005058:	d11c      	bne.n	10005094 <low_priority_worker_irq+0x4c>
1000505a:	4b21      	ldr	r3, [pc, #132]	; (100050e0 <low_priority_worker_irq+0x98>)
1000505c:	681a      	ldr	r2, [r3, #0]
1000505e:	2a00      	cmp	r2, #0
10005060:	d016      	beq.n	10005090 <low_priority_worker_irq+0x48>
10005062:	f3ef 8110 	mrs	r1, PRIMASK
10005066:	b672      	cpsid	i
10005068:	6810      	ldr	r0, [r2, #0]
1000506a:	2800      	cmp	r0, #0
1000506c:	d0fc      	beq.n	10005068 <low_priority_worker_irq+0x20>
1000506e:	f3bf 8f5f 	dmb	sy
10005072:	2401      	movs	r4, #1
10005074:	481b      	ldr	r0, [pc, #108]	; (100050e4 <low_priority_worker_irq+0x9c>)
10005076:	6059      	str	r1, [r3, #4]
10005078:	7802      	ldrb	r2, [r0, #0]
1000507a:	681b      	ldr	r3, [r3, #0]
1000507c:	b2d2      	uxtb	r2, r2
1000507e:	7004      	strb	r4, [r0, #0]
10005080:	f3bf 8f5f 	dmb	sy
10005084:	2000      	movs	r0, #0
10005086:	6018      	str	r0, [r3, #0]
10005088:	f381 8810 	msr	PRIMASK, r1
1000508c:	2a00      	cmp	r2, #0
1000508e:	d00a      	beq.n	100050a6 <low_priority_worker_irq+0x5e>
10005090:	b004      	add	sp, #16
10005092:	bd10      	pop	{r4, pc}
10005094:	2001      	movs	r0, #1
10005096:	2100      	movs	r1, #0
10005098:	4240      	negs	r0, r0
1000509a:	f000 fbff 	bl	1000589c <tud_task_ext>
1000509e:	0020      	movs	r0, r4
100050a0:	f001 fffa 	bl	10007098 <__mutex_exit_veneer>
100050a4:	e7f4      	b.n	10005090 <low_priority_worker_irq+0x48>
100050a6:	f7fc f96f 	bl	10001388 <alarm_pool_get_default>
100050aa:	0004      	movs	r4, r0
100050ac:	f7fc fb7e 	bl	100017ac <time_us_64>
100050b0:	22fa      	movs	r2, #250	; 0xfa
100050b2:	2300      	movs	r3, #0
100050b4:	0092      	lsls	r2, r2, #2
100050b6:	1812      	adds	r2, r2, r0
100050b8:	414b      	adcs	r3, r1
100050ba:	2b00      	cmp	r3, #0
100050bc:	db09      	blt.n	100050d2 <low_priority_worker_irq+0x8a>
100050be:	2101      	movs	r1, #1
100050c0:	9102      	str	r1, [sp, #8]
100050c2:	2100      	movs	r1, #0
100050c4:	9101      	str	r1, [sp, #4]
100050c6:	4908      	ldr	r1, [pc, #32]	; (100050e8 <low_priority_worker_irq+0xa0>)
100050c8:	0020      	movs	r0, r4
100050ca:	9100      	str	r1, [sp, #0]
100050cc:	f7fc f960 	bl	10001390 <alarm_pool_add_alarm_at>
100050d0:	e7de      	b.n	10005090 <low_priority_worker_irq+0x48>
100050d2:	2201      	movs	r2, #1
100050d4:	4b05      	ldr	r3, [pc, #20]	; (100050ec <low_priority_worker_irq+0xa4>)
100050d6:	4252      	negs	r2, r2
100050d8:	e7f1      	b.n	100050be <low_priority_worker_irq+0x76>
100050da:	46c0      	nop			; (mov r8, r8)
100050dc:	20001c84 	.word	0x20001c84
100050e0:	20001c4c 	.word	0x20001c4c
100050e4:	20001cbb 	.word	0x20001cbb
100050e8:	10004e65 	.word	0x10004e65
100050ec:	7fffffff 	.word	0x7fffffff

100050f0 <tud_cdc_rx_cb>:
100050f0:	4b05      	ldr	r3, [pc, #20]	; (10005108 <tud_cdc_rx_cb+0x18>)
100050f2:	b510      	push	{r4, lr}
100050f4:	6818      	ldr	r0, [r3, #0]
100050f6:	2800      	cmp	r0, #0
100050f8:	d004      	beq.n	10005104 <tud_cdc_rx_cb+0x14>
100050fa:	4b04      	ldr	r3, [pc, #16]	; (1000510c <tud_cdc_rx_cb+0x1c>)
100050fc:	2200      	movs	r2, #0
100050fe:	6819      	ldr	r1, [r3, #0]
10005100:	f001 f844 	bl	1000618c <usbd_defer_func>
10005104:	bd10      	pop	{r4, pc}
10005106:	46c0      	nop			; (mov r8, r8)
10005108:	20001798 	.word	0x20001798
1000510c:	2000179c 	.word	0x2000179c

10005110 <stdio_usb_init>:
10005110:	23d0      	movs	r3, #208	; 0xd0
10005112:	b510      	push	{r4, lr}
10005114:	061b      	lsls	r3, r3, #24
10005116:	b084      	sub	sp, #16
10005118:	681c      	ldr	r4, [r3, #0]
1000511a:	f7fc f935 	bl	10001388 <alarm_pool_get_default>
1000511e:	f7fc f9f3 	bl	10001508 <alarm_pool_core_num>
10005122:	42a0      	cmp	r0, r4
10005124:	d002      	beq.n	1000512c <stdio_usb_init+0x1c>
10005126:	2000      	movs	r0, #0
10005128:	b004      	add	sp, #16
1000512a:	bd10      	pop	{r4, pc}
1000512c:	4b26      	ldr	r3, [pc, #152]	; (100051c8 <stdio_usb_init+0xb8>)
1000512e:	781b      	ldrb	r3, [r3, #0]
10005130:	f001 fc66 	bl	10006a00 <tusb_init>
10005134:	4825      	ldr	r0, [pc, #148]	; (100051cc <stdio_usb_init+0xbc>)
10005136:	f7fb ff2b 	bl	10000f90 <mutex_init>
1000513a:	2001      	movs	r0, #1
1000513c:	f7fb ff0c 	bl	10000f58 <user_irq_claim_unused>
10005140:	23ff      	movs	r3, #255	; 0xff
10005142:	4c23      	ldr	r4, [pc, #140]	; (100051d0 <stdio_usb_init+0xc0>)
10005144:	4923      	ldr	r1, [pc, #140]	; (100051d4 <stdio_usb_init+0xc4>)
10005146:	7020      	strb	r0, [r4, #0]
10005148:	4018      	ands	r0, r3
1000514a:	f7fb fca3 	bl	10000a94 <irq_set_exclusive_handler>
1000514e:	7820      	ldrb	r0, [r4, #0]
10005150:	2101      	movs	r1, #1
10005152:	f7fb fc67 	bl	10000a24 <irq_set_enabled>
10005156:	2005      	movs	r0, #5
10005158:	f7fb fc7e 	bl	10000a58 <irq_has_shared_handler>
1000515c:	2800      	cmp	r0, #0
1000515e:	d122      	bne.n	100051a6 <stdio_usb_init+0x96>
10005160:	f7fc f912 	bl	10001388 <alarm_pool_get_default>
10005164:	0004      	movs	r4, r0
10005166:	f7fc fb21 	bl	100017ac <time_us_64>
1000516a:	22fa      	movs	r2, #250	; 0xfa
1000516c:	2300      	movs	r3, #0
1000516e:	0092      	lsls	r2, r2, #2
10005170:	1812      	adds	r2, r2, r0
10005172:	414b      	adcs	r3, r1
10005174:	2b00      	cmp	r3, #0
10005176:	db22      	blt.n	100051be <stdio_usb_init+0xae>
10005178:	2101      	movs	r1, #1
1000517a:	9102      	str	r1, [sp, #8]
1000517c:	2100      	movs	r1, #0
1000517e:	9101      	str	r1, [sp, #4]
10005180:	4915      	ldr	r1, [pc, #84]	; (100051d8 <stdio_usb_init+0xc8>)
10005182:	0020      	movs	r0, r4
10005184:	9100      	str	r1, [sp, #0]
10005186:	f7fc f903 	bl	10001390 <alarm_pool_add_alarm_at>
1000518a:	2208      	movs	r2, #8
1000518c:	0004      	movs	r4, r0
1000518e:	2100      	movs	r1, #0
10005190:	4812      	ldr	r0, [pc, #72]	; (100051dc <stdio_usb_init+0xcc>)
10005192:	f7ff fbc9 	bl	10004928 <__wrap_memset>
10005196:	2c00      	cmp	r4, #0
10005198:	dbc5      	blt.n	10005126 <stdio_usb_init+0x16>
1000519a:	4811      	ldr	r0, [pc, #68]	; (100051e0 <stdio_usb_init+0xd0>)
1000519c:	2101      	movs	r1, #1
1000519e:	f7ff fd4b 	bl	10004c38 <stdio_set_driver_enabled>
100051a2:	2001      	movs	r0, #1
100051a4:	e7c0      	b.n	10005128 <stdio_usb_init+0x18>
100051a6:	2200      	movs	r2, #0
100051a8:	490e      	ldr	r1, [pc, #56]	; (100051e4 <stdio_usb_init+0xd4>)
100051aa:	2005      	movs	r0, #5
100051ac:	f7fb fc9c 	bl	10000ae8 <irq_add_shared_handler>
100051b0:	f7fb fc1c 	bl	100009ec <next_striped_spin_lock_num>
100051b4:	0001      	movs	r1, r0
100051b6:	4809      	ldr	r0, [pc, #36]	; (100051dc <stdio_usb_init+0xcc>)
100051b8:	f7fb ff16 	bl	10000fe8 <critical_section_init_with_lock_num>
100051bc:	e7ed      	b.n	1000519a <stdio_usb_init+0x8a>
100051be:	2201      	movs	r2, #1
100051c0:	4b09      	ldr	r3, [pc, #36]	; (100051e8 <stdio_usb_init+0xd8>)
100051c2:	4252      	negs	r2, r2
100051c4:	e7d8      	b.n	10005178 <stdio_usb_init+0x68>
100051c6:	46c0      	nop			; (mov r8, r8)
100051c8:	100076e4 	.word	0x100076e4
100051cc:	20001c84 	.word	0x20001c84
100051d0:	20001cba 	.word	0x20001cba
100051d4:	10005049 	.word	0x10005049
100051d8:	10004e65 	.word	0x10004e65
100051dc:	20001c4c 	.word	0x20001c4c
100051e0:	20000ec0 	.word	0x20000ec0
100051e4:	10004e55 	.word	0x10004e55
100051e8:	7fffffff 	.word	0x7fffffff

100051ec <tud_descriptor_device_cb>:
100051ec:	4800      	ldr	r0, [pc, #0]	; (100051f0 <tud_descriptor_device_cb+0x4>)
100051ee:	4770      	bx	lr
100051f0:	10007590 	.word	0x10007590

100051f4 <tud_descriptor_configuration_cb>:
100051f4:	4800      	ldr	r0, [pc, #0]	; (100051f8 <tud_descriptor_configuration_cb+0x4>)
100051f6:	4770      	bx	lr
100051f8:	1000753c 	.word	0x1000753c

100051fc <tud_descriptor_string_cb>:
100051fc:	b570      	push	{r4, r5, r6, lr}
100051fe:	0004      	movs	r4, r0
10005200:	4817      	ldr	r0, [pc, #92]	; (10005260 <tud_descriptor_string_cb+0x64>)
10005202:	7803      	ldrb	r3, [r0, #0]
10005204:	2b00      	cmp	r3, #0
10005206:	d021      	beq.n	1000524c <tud_descriptor_string_cb+0x50>
10005208:	2c00      	cmp	r4, #0
1000520a:	d106      	bne.n	1000521a <tud_descriptor_string_cb+0x1e>
1000520c:	24c1      	movs	r4, #193	; 0xc1
1000520e:	4815      	ldr	r0, [pc, #84]	; (10005264 <tud_descriptor_string_cb+0x68>)
10005210:	4b15      	ldr	r3, [pc, #84]	; (10005268 <tud_descriptor_string_cb+0x6c>)
10005212:	00a4      	lsls	r4, r4, #2
10005214:	8043      	strh	r3, [r0, #2]
10005216:	8004      	strh	r4, [r0, #0]
10005218:	bd70      	pop	{r4, r5, r6, pc}
1000521a:	2c05      	cmp	r4, #5
1000521c:	d81d      	bhi.n	1000525a <tud_descriptor_string_cb+0x5e>
1000521e:	4b13      	ldr	r3, [pc, #76]	; (1000526c <tud_descriptor_string_cb+0x70>)
10005220:	4810      	ldr	r0, [pc, #64]	; (10005264 <tud_descriptor_string_cb+0x68>)
10005222:	00a4      	lsls	r4, r4, #2
10005224:	58e5      	ldr	r5, [r4, r3]
10005226:	1c81      	adds	r1, r0, #2
10005228:	2300      	movs	r3, #0
1000522a:	e004      	b.n	10005236 <tud_descriptor_string_cb+0x3a>
1000522c:	3301      	adds	r3, #1
1000522e:	800a      	strh	r2, [r1, #0]
10005230:	3102      	adds	r1, #2
10005232:	2b13      	cmp	r3, #19
10005234:	d00e      	beq.n	10005254 <tud_descriptor_string_cb+0x58>
10005236:	5cea      	ldrb	r2, [r5, r3]
10005238:	b2dc      	uxtb	r4, r3
1000523a:	2a00      	cmp	r2, #0
1000523c:	d1f6      	bne.n	1000522c <tud_descriptor_string_cb+0x30>
1000523e:	23c0      	movs	r3, #192	; 0xc0
10005240:	3401      	adds	r4, #1
10005242:	b2e4      	uxtb	r4, r4
10005244:	0064      	lsls	r4, r4, #1
10005246:	009b      	lsls	r3, r3, #2
10005248:	431c      	orrs	r4, r3
1000524a:	e7e4      	b.n	10005216 <tud_descriptor_string_cb+0x1a>
1000524c:	2111      	movs	r1, #17
1000524e:	f000 f817 	bl	10005280 <pico_get_unique_board_id_string>
10005252:	e7d9      	b.n	10005208 <tud_descriptor_string_cb+0xc>
10005254:	24ca      	movs	r4, #202	; 0xca
10005256:	00a4      	lsls	r4, r4, #2
10005258:	e7dd      	b.n	10005216 <tud_descriptor_string_cb+0x1a>
1000525a:	2000      	movs	r0, #0
1000525c:	e7dc      	b.n	10005218 <tud_descriptor_string_cb+0x1c>
1000525e:	46c0      	nop			; (mov r8, r8)
10005260:	20001ca0 	.word	0x20001ca0
10005264:	2000180c 	.word	0x2000180c
10005268:	00000409 	.word	0x00000409
1000526c:	100075a4 	.word	0x100075a4

10005270 <_retrieve_unique_id_on_boot>:
10005270:	b510      	push	{r4, lr}
10005272:	4802      	ldr	r0, [pc, #8]	; (1000527c <_retrieve_unique_id_on_boot+0xc>)
10005274:	f000 f8d8 	bl	10005428 <flash_get_unique_id>
10005278:	bd10      	pop	{r4, pc}
1000527a:	46c0      	nop			; (mov r8, r8)
1000527c:	20001c64 	.word	0x20001c64

10005280 <pico_get_unique_board_id_string>:
10005280:	b530      	push	{r4, r5, lr}
10005282:	1e4b      	subs	r3, r1, #1
10005284:	2901      	cmp	r1, #1
10005286:	d100      	bne.n	1000528a <pico_get_unique_board_id_string+0xa>
10005288:	e0a7      	b.n	100053da <pico_get_unique_board_id_string+0x15a>
1000528a:	4a66      	ldr	r2, [pc, #408]	; (10005424 <pico_get_unique_board_id_string+0x1a4>)
1000528c:	7811      	ldrb	r1, [r2, #0]
1000528e:	110d      	asrs	r5, r1, #4
10005290:	002c      	movs	r4, r5
10005292:	3430      	adds	r4, #48	; 0x30
10005294:	299f      	cmp	r1, #159	; 0x9f
10005296:	d900      	bls.n	1000529a <pico_get_unique_board_id_string+0x1a>
10005298:	e0a2      	b.n	100053e0 <pico_get_unique_board_id_string+0x160>
1000529a:	7004      	strb	r4, [r0, #0]
1000529c:	2b01      	cmp	r3, #1
1000529e:	d100      	bne.n	100052a2 <pico_get_unique_board_id_string+0x22>
100052a0:	e0be      	b.n	10005420 <pico_get_unique_board_id_string+0x1a0>
100052a2:	210f      	movs	r1, #15
100052a4:	7814      	ldrb	r4, [r2, #0]
100052a6:	4021      	ands	r1, r4
100052a8:	000c      	movs	r4, r1
100052aa:	3430      	adds	r4, #48	; 0x30
100052ac:	2909      	cmp	r1, #9
100052ae:	dd00      	ble.n	100052b2 <pico_get_unique_board_id_string+0x32>
100052b0:	e098      	b.n	100053e4 <pico_get_unique_board_id_string+0x164>
100052b2:	7044      	strb	r4, [r0, #1]
100052b4:	2b02      	cmp	r3, #2
100052b6:	d100      	bne.n	100052ba <pico_get_unique_board_id_string+0x3a>
100052b8:	e0b2      	b.n	10005420 <pico_get_unique_board_id_string+0x1a0>
100052ba:	7854      	ldrb	r4, [r2, #1]
100052bc:	1125      	asrs	r5, r4, #4
100052be:	0029      	movs	r1, r5
100052c0:	3130      	adds	r1, #48	; 0x30
100052c2:	2c9f      	cmp	r4, #159	; 0x9f
100052c4:	d900      	bls.n	100052c8 <pico_get_unique_board_id_string+0x48>
100052c6:	e090      	b.n	100053ea <pico_get_unique_board_id_string+0x16a>
100052c8:	7081      	strb	r1, [r0, #2]
100052ca:	2b03      	cmp	r3, #3
100052cc:	d100      	bne.n	100052d0 <pico_get_unique_board_id_string+0x50>
100052ce:	e0a7      	b.n	10005420 <pico_get_unique_board_id_string+0x1a0>
100052d0:	210f      	movs	r1, #15
100052d2:	4021      	ands	r1, r4
100052d4:	000c      	movs	r4, r1
100052d6:	3430      	adds	r4, #48	; 0x30
100052d8:	2909      	cmp	r1, #9
100052da:	dd00      	ble.n	100052de <pico_get_unique_board_id_string+0x5e>
100052dc:	e087      	b.n	100053ee <pico_get_unique_board_id_string+0x16e>
100052de:	70c4      	strb	r4, [r0, #3]
100052e0:	2b04      	cmp	r3, #4
100052e2:	d100      	bne.n	100052e6 <pico_get_unique_board_id_string+0x66>
100052e4:	e09c      	b.n	10005420 <pico_get_unique_board_id_string+0x1a0>
100052e6:	7894      	ldrb	r4, [r2, #2]
100052e8:	1125      	asrs	r5, r4, #4
100052ea:	0029      	movs	r1, r5
100052ec:	3130      	adds	r1, #48	; 0x30
100052ee:	2c9f      	cmp	r4, #159	; 0x9f
100052f0:	d900      	bls.n	100052f4 <pico_get_unique_board_id_string+0x74>
100052f2:	e07f      	b.n	100053f4 <pico_get_unique_board_id_string+0x174>
100052f4:	7101      	strb	r1, [r0, #4]
100052f6:	2b05      	cmp	r3, #5
100052f8:	d100      	bne.n	100052fc <pico_get_unique_board_id_string+0x7c>
100052fa:	e091      	b.n	10005420 <pico_get_unique_board_id_string+0x1a0>
100052fc:	210f      	movs	r1, #15
100052fe:	4021      	ands	r1, r4
10005300:	000c      	movs	r4, r1
10005302:	3430      	adds	r4, #48	; 0x30
10005304:	2909      	cmp	r1, #9
10005306:	dd00      	ble.n	1000530a <pico_get_unique_board_id_string+0x8a>
10005308:	e076      	b.n	100053f8 <pico_get_unique_board_id_string+0x178>
1000530a:	7144      	strb	r4, [r0, #5]
1000530c:	2b06      	cmp	r3, #6
1000530e:	d100      	bne.n	10005312 <pico_get_unique_board_id_string+0x92>
10005310:	e086      	b.n	10005420 <pico_get_unique_board_id_string+0x1a0>
10005312:	78d4      	ldrb	r4, [r2, #3]
10005314:	1125      	asrs	r5, r4, #4
10005316:	0029      	movs	r1, r5
10005318:	3130      	adds	r1, #48	; 0x30
1000531a:	2c9f      	cmp	r4, #159	; 0x9f
1000531c:	d900      	bls.n	10005320 <pico_get_unique_board_id_string+0xa0>
1000531e:	e06e      	b.n	100053fe <pico_get_unique_board_id_string+0x17e>
10005320:	7181      	strb	r1, [r0, #6]
10005322:	2b07      	cmp	r3, #7
10005324:	d100      	bne.n	10005328 <pico_get_unique_board_id_string+0xa8>
10005326:	e07b      	b.n	10005420 <pico_get_unique_board_id_string+0x1a0>
10005328:	210f      	movs	r1, #15
1000532a:	4021      	ands	r1, r4
1000532c:	000c      	movs	r4, r1
1000532e:	3430      	adds	r4, #48	; 0x30
10005330:	2909      	cmp	r1, #9
10005332:	dc66      	bgt.n	10005402 <pico_get_unique_board_id_string+0x182>
10005334:	71c4      	strb	r4, [r0, #7]
10005336:	2b08      	cmp	r3, #8
10005338:	d100      	bne.n	1000533c <pico_get_unique_board_id_string+0xbc>
1000533a:	e071      	b.n	10005420 <pico_get_unique_board_id_string+0x1a0>
1000533c:	7914      	ldrb	r4, [r2, #4]
1000533e:	1125      	asrs	r5, r4, #4
10005340:	0029      	movs	r1, r5
10005342:	3130      	adds	r1, #48	; 0x30
10005344:	2c9f      	cmp	r4, #159	; 0x9f
10005346:	d85f      	bhi.n	10005408 <pico_get_unique_board_id_string+0x188>
10005348:	7201      	strb	r1, [r0, #8]
1000534a:	2b09      	cmp	r3, #9
1000534c:	d068      	beq.n	10005420 <pico_get_unique_board_id_string+0x1a0>
1000534e:	210f      	movs	r1, #15
10005350:	4021      	ands	r1, r4
10005352:	000c      	movs	r4, r1
10005354:	3430      	adds	r4, #48	; 0x30
10005356:	2909      	cmp	r1, #9
10005358:	dc58      	bgt.n	1000540c <pico_get_unique_board_id_string+0x18c>
1000535a:	7244      	strb	r4, [r0, #9]
1000535c:	2b0a      	cmp	r3, #10
1000535e:	d05f      	beq.n	10005420 <pico_get_unique_board_id_string+0x1a0>
10005360:	7954      	ldrb	r4, [r2, #5]
10005362:	1125      	asrs	r5, r4, #4
10005364:	0029      	movs	r1, r5
10005366:	3130      	adds	r1, #48	; 0x30
10005368:	2c9f      	cmp	r4, #159	; 0x9f
1000536a:	d852      	bhi.n	10005412 <pico_get_unique_board_id_string+0x192>
1000536c:	7281      	strb	r1, [r0, #10]
1000536e:	2b0b      	cmp	r3, #11
10005370:	d056      	beq.n	10005420 <pico_get_unique_board_id_string+0x1a0>
10005372:	210f      	movs	r1, #15
10005374:	4021      	ands	r1, r4
10005376:	000c      	movs	r4, r1
10005378:	3430      	adds	r4, #48	; 0x30
1000537a:	2909      	cmp	r1, #9
1000537c:	dc4b      	bgt.n	10005416 <pico_get_unique_board_id_string+0x196>
1000537e:	72c4      	strb	r4, [r0, #11]
10005380:	2b0c      	cmp	r3, #12
10005382:	d04d      	beq.n	10005420 <pico_get_unique_board_id_string+0x1a0>
10005384:	7994      	ldrb	r4, [r2, #6]
10005386:	1125      	asrs	r5, r4, #4
10005388:	0029      	movs	r1, r5
1000538a:	3130      	adds	r1, #48	; 0x30
1000538c:	2c9f      	cmp	r4, #159	; 0x9f
1000538e:	d900      	bls.n	10005392 <pico_get_unique_board_id_string+0x112>
10005390:	3107      	adds	r1, #7
10005392:	7301      	strb	r1, [r0, #12]
10005394:	2b0d      	cmp	r3, #13
10005396:	d043      	beq.n	10005420 <pico_get_unique_board_id_string+0x1a0>
10005398:	210f      	movs	r1, #15
1000539a:	4021      	ands	r1, r4
1000539c:	000c      	movs	r4, r1
1000539e:	3430      	adds	r4, #48	; 0x30
100053a0:	2909      	cmp	r1, #9
100053a2:	dd01      	ble.n	100053a8 <pico_get_unique_board_id_string+0x128>
100053a4:	3137      	adds	r1, #55	; 0x37
100053a6:	000c      	movs	r4, r1
100053a8:	7344      	strb	r4, [r0, #13]
100053aa:	2b0e      	cmp	r3, #14
100053ac:	d038      	beq.n	10005420 <pico_get_unique_board_id_string+0x1a0>
100053ae:	79d1      	ldrb	r1, [r2, #7]
100053b0:	110c      	asrs	r4, r1, #4
100053b2:	0022      	movs	r2, r4
100053b4:	3230      	adds	r2, #48	; 0x30
100053b6:	299f      	cmp	r1, #159	; 0x9f
100053b8:	d900      	bls.n	100053bc <pico_get_unique_board_id_string+0x13c>
100053ba:	3207      	adds	r2, #7
100053bc:	7382      	strb	r2, [r0, #14]
100053be:	2b0f      	cmp	r3, #15
100053c0:	d02e      	beq.n	10005420 <pico_get_unique_board_id_string+0x1a0>
100053c2:	220f      	movs	r2, #15
100053c4:	400a      	ands	r2, r1
100053c6:	0011      	movs	r1, r2
100053c8:	3137      	adds	r1, #55	; 0x37
100053ca:	2a09      	cmp	r2, #9
100053cc:	dc01      	bgt.n	100053d2 <pico_get_unique_board_id_string+0x152>
100053ce:	3230      	adds	r2, #48	; 0x30
100053d0:	0011      	movs	r1, r2
100053d2:	73c1      	strb	r1, [r0, #15]
100053d4:	2b10      	cmp	r3, #16
100053d6:	d023      	beq.n	10005420 <pico_get_unique_board_id_string+0x1a0>
100053d8:	3010      	adds	r0, #16
100053da:	2300      	movs	r3, #0
100053dc:	7003      	strb	r3, [r0, #0]
100053de:	bd30      	pop	{r4, r5, pc}
100053e0:	3407      	adds	r4, #7
100053e2:	e75a      	b.n	1000529a <pico_get_unique_board_id_string+0x1a>
100053e4:	3137      	adds	r1, #55	; 0x37
100053e6:	000c      	movs	r4, r1
100053e8:	e763      	b.n	100052b2 <pico_get_unique_board_id_string+0x32>
100053ea:	3107      	adds	r1, #7
100053ec:	e76c      	b.n	100052c8 <pico_get_unique_board_id_string+0x48>
100053ee:	3137      	adds	r1, #55	; 0x37
100053f0:	000c      	movs	r4, r1
100053f2:	e774      	b.n	100052de <pico_get_unique_board_id_string+0x5e>
100053f4:	3107      	adds	r1, #7
100053f6:	e77d      	b.n	100052f4 <pico_get_unique_board_id_string+0x74>
100053f8:	3137      	adds	r1, #55	; 0x37
100053fa:	000c      	movs	r4, r1
100053fc:	e785      	b.n	1000530a <pico_get_unique_board_id_string+0x8a>
100053fe:	3107      	adds	r1, #7
10005400:	e78e      	b.n	10005320 <pico_get_unique_board_id_string+0xa0>
10005402:	3137      	adds	r1, #55	; 0x37
10005404:	000c      	movs	r4, r1
10005406:	e795      	b.n	10005334 <pico_get_unique_board_id_string+0xb4>
10005408:	3107      	adds	r1, #7
1000540a:	e79d      	b.n	10005348 <pico_get_unique_board_id_string+0xc8>
1000540c:	3137      	adds	r1, #55	; 0x37
1000540e:	000c      	movs	r4, r1
10005410:	e7a3      	b.n	1000535a <pico_get_unique_board_id_string+0xda>
10005412:	3107      	adds	r1, #7
10005414:	e7aa      	b.n	1000536c <pico_get_unique_board_id_string+0xec>
10005416:	3137      	adds	r1, #55	; 0x37
10005418:	000c      	movs	r4, r1
1000541a:	72c4      	strb	r4, [r0, #11]
1000541c:	2b0c      	cmp	r3, #12
1000541e:	d1b1      	bne.n	10005384 <pico_get_unique_board_id_string+0x104>
10005420:	18c0      	adds	r0, r0, r3
10005422:	e7da      	b.n	100053da <pico_get_unique_board_id_string+0x15a>
10005424:	20001c64 	.word	0x20001c64

10005428 <flash_get_unique_id>:
10005428:	b530      	push	{r4, r5, lr}
1000542a:	2500      	movs	r5, #0
1000542c:	b089      	sub	sp, #36	; 0x24
1000542e:	0004      	movs	r4, r0
10005430:	2209      	movs	r2, #9
10005432:	2100      	movs	r1, #0
10005434:	a801      	add	r0, sp, #4
10005436:	9500      	str	r5, [sp, #0]
10005438:	f7ff fa76 	bl	10004928 <__wrap_memset>
1000543c:	2209      	movs	r2, #9
1000543e:	2100      	movs	r1, #0
10005440:	a805      	add	r0, sp, #20
10005442:	9504      	str	r5, [sp, #16]
10005444:	f7ff fa70 	bl	10004928 <__wrap_memset>
10005448:	234b      	movs	r3, #75	; 0x4b
1000544a:	466a      	mov	r2, sp
1000544c:	4668      	mov	r0, sp
1000544e:	7013      	strb	r3, [r2, #0]
10005450:	a904      	add	r1, sp, #16
10005452:	220d      	movs	r2, #13
10005454:	f001 fe18 	bl	10007088 <__flash_do_cmd_veneer>
10005458:	2115      	movs	r1, #21
1000545a:	2208      	movs	r2, #8
1000545c:	0020      	movs	r0, r4
1000545e:	4469      	add	r1, sp
10005460:	f7ff fa68 	bl	10004934 <__wrap___aeabi_memcpy>
10005464:	b009      	add	sp, #36	; 0x24
10005466:	bd30      	pop	{r4, r5, pc}

10005468 <dcd_int_enable>:
10005468:	b510      	push	{r4, lr}
1000546a:	2101      	movs	r1, #1
1000546c:	2005      	movs	r0, #5
1000546e:	f7fb fad9 	bl	10000a24 <irq_set_enabled>
10005472:	bd10      	pop	{r4, pc}

10005474 <dcd_set_address>:
10005474:	b510      	push	{r4, lr}
10005476:	2200      	movs	r2, #0
10005478:	2100      	movs	r1, #0
1000547a:	4802      	ldr	r0, [pc, #8]	; (10005484 <dcd_set_address+0x10>)
1000547c:	f000 f95a 	bl	10005734 <hw_endpoint_xfer_start>
10005480:	bd10      	pop	{r4, pc}
10005482:	46c0      	nop			; (mov r8, r8)
10005484:	20001860 	.word	0x20001860

10005488 <dcd_connect>:
10005488:	2280      	movs	r2, #128	; 0x80
1000548a:	4b02      	ldr	r3, [pc, #8]	; (10005494 <dcd_connect+0xc>)
1000548c:	0252      	lsls	r2, r2, #9
1000548e:	64da      	str	r2, [r3, #76]	; 0x4c
10005490:	4770      	bx	lr
10005492:	46c0      	nop			; (mov r8, r8)
10005494:	50112000 	.word	0x50112000

10005498 <dcd_init>:
10005498:	b5f0      	push	{r4, r5, r6, r7, lr}
1000549a:	46c6      	mov	lr, r8
1000549c:	b500      	push	{lr}
1000549e:	0006      	movs	r6, r0
100054a0:	f000 f922 	bl	100056e8 <rp2040_usb_init>
100054a4:	230c      	movs	r3, #12
100054a6:	4d1b      	ldr	r5, [pc, #108]	; (10005514 <dcd_init+0x7c>)
100054a8:	22ff      	movs	r2, #255	; 0xff
100054aa:	67ab      	str	r3, [r5, #120]	; 0x78
100054ac:	2005      	movs	r0, #5
100054ae:	491a      	ldr	r1, [pc, #104]	; (10005518 <dcd_init+0x80>)
100054b0:	f7fb fb1a 	bl	10000ae8 <irq_add_shared_handler>
100054b4:	2340      	movs	r3, #64	; 0x40
100054b6:	4698      	mov	r8, r3
100054b8:	4c18      	ldr	r4, [pc, #96]	; (1000551c <dcd_init+0x84>)
100054ba:	2240      	movs	r2, #64	; 0x40
100054bc:	2100      	movs	r1, #0
100054be:	0020      	movs	r0, r4
100054c0:	f7ff fa32 	bl	10004928 <__wrap_memset>
100054c4:	4643      	mov	r3, r8
100054c6:	2701      	movs	r7, #1
100054c8:	8323      	strh	r3, [r4, #24]
100054ca:	2121      	movs	r1, #33	; 0x21
100054cc:	2300      	movs	r3, #0
100054ce:	4a14      	ldr	r2, [pc, #80]	; (10005520 <dcd_init+0x88>)
100054d0:	7067      	strb	r7, [r4, #1]
100054d2:	60a2      	str	r2, [r4, #8]
100054d4:	6013      	str	r3, [r2, #0]
100054d6:	5463      	strb	r3, [r4, r1]
100054d8:	315f      	adds	r1, #95	; 0x5f
100054da:	8461      	strh	r1, [r4, #34]	; 0x22
100054dc:	4641      	mov	r1, r8
100054de:	8721      	strh	r1, [r4, #56]	; 0x38
100054e0:	3905      	subs	r1, #5
100054e2:	5463      	strb	r3, [r4, r1]
100054e4:	4a0f      	ldr	r2, [pc, #60]	; (10005524 <dcd_init+0x8c>)
100054e6:	4910      	ldr	r1, [pc, #64]	; (10005528 <dcd_init+0x90>)
100054e8:	6063      	str	r3, [r4, #4]
100054ea:	60e2      	str	r2, [r4, #12]
100054ec:	62a1      	str	r1, [r4, #40]	; 0x28
100054ee:	600b      	str	r3, [r1, #0]
100054f0:	6263      	str	r3, [r4, #36]	; 0x24
100054f2:	62e2      	str	r2, [r4, #44]	; 0x2c
100054f4:	f001 fe20 	bl	10007138 <__reset_non_control_endpoints_veneer>
100054f8:	2380      	movs	r3, #128	; 0x80
100054fa:	059b      	lsls	r3, r3, #22
100054fc:	642f      	str	r7, [r5, #64]	; 0x40
100054fe:	64eb      	str	r3, [r5, #76]	; 0x4c
10005500:	2390      	movs	r3, #144	; 0x90
10005502:	4a0a      	ldr	r2, [pc, #40]	; (1000552c <dcd_init+0x94>)
10005504:	0030      	movs	r0, r6
10005506:	50ea      	str	r2, [r5, r3]
10005508:	f7ff ffbe 	bl	10005488 <dcd_connect>
1000550c:	bc80      	pop	{r7}
1000550e:	46b8      	mov	r8, r7
10005510:	bdf0      	pop	{r4, r5, r6, r7, pc}
10005512:	46c0      	nop			; (mov r8, r8)
10005514:	50110000 	.word	0x50110000
10005518:	200004f9 	.word	0x200004f9
1000551c:	20001840 	.word	0x20001840
10005520:	50100084 	.word	0x50100084
10005524:	50100100 	.word	0x50100100
10005528:	50100080 	.word	0x50100080
1000552c:	0001d010 	.word	0x0001d010

10005530 <dcd_edpt0_status_complete>:
10005530:	780b      	ldrb	r3, [r1, #0]
10005532:	065b      	lsls	r3, r3, #25
10005534:	d102      	bne.n	1000553c <dcd_edpt0_status_complete+0xc>
10005536:	784b      	ldrb	r3, [r1, #1]
10005538:	2b05      	cmp	r3, #5
1000553a:	d000      	beq.n	1000553e <dcd_edpt0_status_complete+0xe>
1000553c:	4770      	bx	lr
1000553e:	788a      	ldrb	r2, [r1, #2]
10005540:	4b01      	ldr	r3, [pc, #4]	; (10005548 <dcd_edpt0_status_complete+0x18>)
10005542:	601a      	str	r2, [r3, #0]
10005544:	e7fa      	b.n	1000553c <dcd_edpt0_status_complete+0xc>
10005546:	46c0      	nop			; (mov r8, r8)
10005548:	50110000 	.word	0x50110000

1000554c <dcd_edpt_open>:
1000554c:	b5f0      	push	{r4, r5, r6, r7, lr}
1000554e:	46c6      	mov	lr, r8
10005550:	b500      	push	{lr}
10005552:	794b      	ldrb	r3, [r1, #5]
10005554:	790c      	ldrb	r4, [r1, #4]
10005556:	021b      	lsls	r3, r3, #8
10005558:	7888      	ldrb	r0, [r1, #2]
1000555a:	4323      	orrs	r3, r4
1000555c:	78cc      	ldrb	r4, [r1, #3]
1000555e:	217f      	movs	r1, #127	; 0x7f
10005560:	07a4      	lsls	r4, r4, #30
10005562:	4001      	ands	r1, r0
10005564:	09c5      	lsrs	r5, r0, #7
10005566:	0fa2      	lsrs	r2, r4, #30
10005568:	004f      	lsls	r7, r1, #1
1000556a:	0014      	movs	r4, r2
1000556c:	4e32      	ldr	r6, [pc, #200]	; (10005638 <dcd_edpt_open+0xec>)
1000556e:	197a      	adds	r2, r7, r5
10005570:	0152      	lsls	r2, r2, #5
10005572:	18b2      	adds	r2, r6, r2
10005574:	7090      	strb	r0, [r2, #2]
10005576:	2001      	movs	r0, #1
10005578:	4068      	eors	r0, r5
1000557a:	7050      	strb	r0, [r2, #1]
1000557c:	2000      	movs	r0, #0
1000557e:	055b      	lsls	r3, r3, #21
10005580:	0d5b      	lsrs	r3, r3, #21
10005582:	70d0      	strb	r0, [r2, #3]
10005584:	8313      	strh	r3, [r2, #24]
10005586:	76d4      	strb	r4, [r2, #27]
10005588:	4680      	mov	r8, r0
1000558a:	00ca      	lsls	r2, r1, #3
1000558c:	2d01      	cmp	r5, #1
1000558e:	d033      	beq.n	100055f8 <dcd_edpt_open+0xac>
10005590:	482a      	ldr	r0, [pc, #168]	; (1000563c <dcd_edpt_open+0xf0>)
10005592:	4684      	mov	ip, r0
10005594:	0188      	lsls	r0, r1, #6
10005596:	4462      	add	r2, ip
10005598:	4684      	mov	ip, r0
1000559a:	44b4      	add	ip, r6
1000559c:	4660      	mov	r0, ip
1000559e:	6082      	str	r2, [r0, #8]
100055a0:	4640      	mov	r0, r8
100055a2:	6010      	str	r0, [r2, #0]
100055a4:	2900      	cmp	r1, #0
100055a6:	d033      	beq.n	10005610 <dcd_edpt_open+0xc4>
100055a8:	4a25      	ldr	r2, [pc, #148]	; (10005640 <dcd_edpt_open+0xf4>)
100055aa:	00c9      	lsls	r1, r1, #3
100055ac:	4690      	mov	r8, r2
100055ae:	4662      	mov	r2, ip
100055b0:	4441      	add	r1, r8
100055b2:	6051      	str	r1, [r2, #4]
100055b4:	223f      	movs	r2, #63	; 0x3f
100055b6:	333f      	adds	r3, #63	; 0x3f
100055b8:	4393      	bics	r3, r2
100055ba:	2c02      	cmp	r4, #2
100055bc:	d100      	bne.n	100055c0 <dcd_edpt_open+0x74>
100055be:	005b      	lsls	r3, r3, #1
100055c0:	4820      	ldr	r0, [pc, #128]	; (10005644 <dcd_edpt_open+0xf8>)
100055c2:	197a      	adds	r2, r7, r5
100055c4:	6801      	ldr	r1, [r0, #0]
100055c6:	0152      	lsls	r2, r2, #5
100055c8:	18b2      	adds	r2, r6, r2
100055ca:	60d1      	str	r1, [r2, #12]
100055cc:	4a1e      	ldr	r2, [pc, #120]	; (10005648 <dcd_edpt_open+0xfc>)
100055ce:	18cb      	adds	r3, r1, r3
100055d0:	6003      	str	r3, [r0, #0]
100055d2:	4051      	eors	r1, r2
100055d4:	4053      	eors	r3, r2
100055d6:	2280      	movs	r2, #128	; 0x80
100055d8:	4688      	mov	r8, r1
100055da:	0152      	lsls	r2, r2, #5
100055dc:	4293      	cmp	r3, r2
100055de:	d828      	bhi.n	10005632 <dcd_edpt_open+0xe6>
100055e0:	4643      	mov	r3, r8
100055e2:	06a4      	lsls	r4, r4, #26
100055e4:	431c      	orrs	r4, r3
100055e6:	2380      	movs	r3, #128	; 0x80
100055e8:	197f      	adds	r7, r7, r5
100055ea:	017f      	lsls	r7, r7, #5
100055ec:	061b      	lsls	r3, r3, #24
100055ee:	19f6      	adds	r6, r6, r7
100055f0:	431c      	orrs	r4, r3
100055f2:	6873      	ldr	r3, [r6, #4]
100055f4:	601c      	str	r4, [r3, #0]
100055f6:	e011      	b.n	1000561c <dcd_edpt_open+0xd0>
100055f8:	4814      	ldr	r0, [pc, #80]	; (1000564c <dcd_edpt_open+0x100>)
100055fa:	4684      	mov	ip, r0
100055fc:	0188      	lsls	r0, r1, #6
100055fe:	4462      	add	r2, ip
10005600:	4684      	mov	ip, r0
10005602:	44b4      	add	ip, r6
10005604:	4660      	mov	r0, ip
10005606:	6282      	str	r2, [r0, #40]	; 0x28
10005608:	4640      	mov	r0, r8
1000560a:	6010      	str	r0, [r2, #0]
1000560c:	2900      	cmp	r1, #0
1000560e:	d109      	bne.n	10005624 <dcd_edpt_open+0xd8>
10005610:	2300      	movs	r3, #0
10005612:	016d      	lsls	r5, r5, #5
10005614:	1976      	adds	r6, r6, r5
10005616:	6073      	str	r3, [r6, #4]
10005618:	4b0d      	ldr	r3, [pc, #52]	; (10005650 <dcd_edpt_open+0x104>)
1000561a:	60f3      	str	r3, [r6, #12]
1000561c:	2001      	movs	r0, #1
1000561e:	bc80      	pop	{r7}
10005620:	46b8      	mov	r8, r7
10005622:	bdf0      	pop	{r4, r5, r6, r7, pc}
10005624:	4a08      	ldr	r2, [pc, #32]	; (10005648 <dcd_edpt_open+0xfc>)
10005626:	00c9      	lsls	r1, r1, #3
10005628:	4690      	mov	r8, r2
1000562a:	4662      	mov	r2, ip
1000562c:	4441      	add	r1, r8
1000562e:	6251      	str	r1, [r2, #36]	; 0x24
10005630:	e7c0      	b.n	100055b4 <dcd_edpt_open+0x68>
10005632:	f7fc ff27 	bl	10002484 <hard_assertion_failure>
10005636:	e7d3      	b.n	100055e0 <dcd_edpt_open+0x94>
10005638:	20001840 	.word	0x20001840
1000563c:	50100084 	.word	0x50100084
10005640:	50100004 	.word	0x50100004
10005644:	20001c48 	.word	0x20001c48
10005648:	50100000 	.word	0x50100000
1000564c:	50100080 	.word	0x50100080
10005650:	50100100 	.word	0x50100100

10005654 <dcd_edpt_close_all>:
10005654:	b510      	push	{r4, lr}
10005656:	f001 fd6f 	bl	10007138 <__reset_non_control_endpoints_veneer>
1000565a:	bd10      	pop	{r4, pc}

1000565c <dcd_edpt_xfer>:
1000565c:	b510      	push	{r4, lr}
1000565e:	207f      	movs	r0, #127	; 0x7f
10005660:	000c      	movs	r4, r1
10005662:	4020      	ands	r0, r4
10005664:	0040      	lsls	r0, r0, #1
10005666:	09e4      	lsrs	r4, r4, #7
10005668:	0011      	movs	r1, r2
1000566a:	1900      	adds	r0, r0, r4
1000566c:	001a      	movs	r2, r3
1000566e:	4b03      	ldr	r3, [pc, #12]	; (1000567c <dcd_edpt_xfer+0x20>)
10005670:	0140      	lsls	r0, r0, #5
10005672:	18c0      	adds	r0, r0, r3
10005674:	f000 f85e 	bl	10005734 <hw_endpoint_xfer_start>
10005678:	2001      	movs	r0, #1
1000567a:	bd10      	pop	{r4, pc}
1000567c:	20001840 	.word	0x20001840

10005680 <dcd_edpt_stall>:
10005680:	227f      	movs	r2, #127	; 0x7f
10005682:	0013      	movs	r3, r2
10005684:	b510      	push	{r4, lr}
10005686:	400b      	ands	r3, r1
10005688:	420a      	tst	r2, r1
1000568a:	d00b      	beq.n	100056a4 <dcd_edpt_stall+0x24>
1000568c:	09c9      	lsrs	r1, r1, #7
1000568e:	2280      	movs	r2, #128	; 0x80
10005690:	0058      	lsls	r0, r3, #1
10005692:	1840      	adds	r0, r0, r1
10005694:	4906      	ldr	r1, [pc, #24]	; (100056b0 <dcd_edpt_stall+0x30>)
10005696:	0140      	lsls	r0, r0, #5
10005698:	1840      	adds	r0, r0, r1
1000569a:	0112      	lsls	r2, r2, #4
1000569c:	2100      	movs	r1, #0
1000569e:	f001 fd43 	bl	10007128 <___hw_endpoint_buffer_control_update32_veneer>
100056a2:	bd10      	pop	{r4, pc}
100056a4:	2202      	movs	r2, #2
100056a6:	4803      	ldr	r0, [pc, #12]	; (100056b4 <dcd_edpt_stall+0x34>)
100056a8:	09c9      	lsrs	r1, r1, #7
100056aa:	1a52      	subs	r2, r2, r1
100056ac:	6682      	str	r2, [r0, #104]	; 0x68
100056ae:	e7ee      	b.n	1000568e <dcd_edpt_stall+0xe>
100056b0:	20001840 	.word	0x20001840
100056b4:	50112000 	.word	0x50112000

100056b8 <dcd_edpt_clear_stall>:
100056b8:	227f      	movs	r2, #127	; 0x7f
100056ba:	0010      	movs	r0, r2
100056bc:	b510      	push	{r4, lr}
100056be:	4008      	ands	r0, r1
100056c0:	420a      	tst	r2, r1
100056c2:	d100      	bne.n	100056c6 <dcd_edpt_clear_stall+0xe>
100056c4:	bd10      	pop	{r4, pc}
100056c6:	2300      	movs	r3, #0
100056c8:	09c9      	lsrs	r1, r1, #7
100056ca:	0040      	lsls	r0, r0, #1
100056cc:	1840      	adds	r0, r0, r1
100056ce:	4904      	ldr	r1, [pc, #16]	; (100056e0 <dcd_edpt_clear_stall+0x28>)
100056d0:	0140      	lsls	r0, r0, #5
100056d2:	1808      	adds	r0, r1, r0
100056d4:	2200      	movs	r2, #0
100056d6:	4903      	ldr	r1, [pc, #12]	; (100056e4 <dcd_edpt_clear_stall+0x2c>)
100056d8:	70c3      	strb	r3, [r0, #3]
100056da:	f001 fd25 	bl	10007128 <___hw_endpoint_buffer_control_update32_veneer>
100056de:	e7f1      	b.n	100056c4 <dcd_edpt_clear_stall+0xc>
100056e0:	20001840 	.word	0x20001840
100056e4:	fffff7ff 	.word	0xfffff7ff

100056e8 <rp2040_usb_init>:
100056e8:	2280      	movs	r2, #128	; 0x80
100056ea:	4b0d      	ldr	r3, [pc, #52]	; (10005720 <rp2040_usb_init+0x38>)
100056ec:	0452      	lsls	r2, r2, #17
100056ee:	b510      	push	{r4, lr}
100056f0:	601a      	str	r2, [r3, #0]
100056f2:	4b0c      	ldr	r3, [pc, #48]	; (10005724 <rp2040_usb_init+0x3c>)
100056f4:	490c      	ldr	r1, [pc, #48]	; (10005728 <rp2040_usb_init+0x40>)
100056f6:	601a      	str	r2, [r3, #0]
100056f8:	0010      	movs	r0, r2
100056fa:	688b      	ldr	r3, [r1, #8]
100056fc:	4398      	bics	r0, r3
100056fe:	d1fb      	bne.n	100056f8 <rp2040_usb_init+0x10>
10005700:	4c0a      	ldr	r4, [pc, #40]	; (1000572c <rp2040_usb_init+0x44>)
10005702:	229c      	movs	r2, #156	; 0x9c
10005704:	2100      	movs	r1, #0
10005706:	0020      	movs	r0, r4
10005708:	f7ff f90e 	bl	10004928 <__wrap_memset>
1000570c:	2280      	movs	r2, #128	; 0x80
1000570e:	2100      	movs	r1, #0
10005710:	0152      	lsls	r2, r2, #5
10005712:	4807      	ldr	r0, [pc, #28]	; (10005730 <rp2040_usb_init+0x48>)
10005714:	f7ff f908 	bl	10004928 <__wrap_memset>
10005718:	2309      	movs	r3, #9
1000571a:	6763      	str	r3, [r4, #116]	; 0x74
1000571c:	bd10      	pop	{r4, pc}
1000571e:	46c0      	nop			; (mov r8, r8)
10005720:	4000e000 	.word	0x4000e000
10005724:	4000f000 	.word	0x4000f000
10005728:	4000c000 	.word	0x4000c000
1000572c:	50110000 	.word	0x50110000
10005730:	50100000 	.word	0x50100000

10005734 <hw_endpoint_xfer_start>:
10005734:	b570      	push	{r4, r5, r6, lr}
10005736:	7e83      	ldrb	r3, [r0, #26]
10005738:	0004      	movs	r4, r0
1000573a:	000d      	movs	r5, r1
1000573c:	0016      	movs	r6, r2
1000573e:	2b00      	cmp	r3, #0
10005740:	d117      	bne.n	10005772 <hw_endpoint_xfer_start+0x3e>
10005742:	2300      	movs	r3, #0
10005744:	82e3      	strh	r3, [r4, #22]
10005746:	3301      	adds	r3, #1
10005748:	0020      	movs	r0, r4
1000574a:	82a6      	strh	r6, [r4, #20]
1000574c:	76a3      	strb	r3, [r4, #26]
1000574e:	6125      	str	r5, [r4, #16]
10005750:	f001 fcb2 	bl	100070b8 <__e15_is_bulkin_ep_veneer>
10005754:	2800      	cmp	r0, #0
10005756:	d004      	beq.n	10005762 <hw_endpoint_xfer_start+0x2e>
10005758:	2180      	movs	r1, #128	; 0x80
1000575a:	2390      	movs	r3, #144	; 0x90
1000575c:	4a08      	ldr	r2, [pc, #32]	; (10005780 <hw_endpoint_xfer_start+0x4c>)
1000575e:	0289      	lsls	r1, r1, #10
10005760:	50d1      	str	r1, [r2, r3]
10005762:	0020      	movs	r0, r4
10005764:	f001 fcf0 	bl	10007148 <__e15_is_critical_frame_period_veneer>
10005768:	2800      	cmp	r0, #0
1000576a:	d005      	beq.n	10005778 <hw_endpoint_xfer_start+0x44>
1000576c:	2301      	movs	r3, #1
1000576e:	7723      	strb	r3, [r4, #28]
10005770:	bd70      	pop	{r4, r5, r6, pc}
10005772:	f001 fcd1 	bl	10007118 <__hw_endpoint_reset_transfer_veneer>
10005776:	e7e4      	b.n	10005742 <hw_endpoint_xfer_start+0xe>
10005778:	0020      	movs	r0, r4
1000577a:	f001 fcc5 	bl	10007108 <__hw_endpoint_start_next_buffer_veneer>
1000577e:	e7f7      	b.n	10005770 <hw_endpoint_xfer_start+0x3c>
10005780:	50112000 	.word	0x50112000

10005784 <tud_mounted>:
10005784:	4b02      	ldr	r3, [pc, #8]	; (10005790 <tud_mounted+0xc>)
10005786:	7858      	ldrb	r0, [r3, #1]
10005788:	1e43      	subs	r3, r0, #1
1000578a:	4198      	sbcs	r0, r3
1000578c:	b2c0      	uxtb	r0, r0
1000578e:	4770      	bx	lr
10005790:	2000156c 	.word	0x2000156c

10005794 <tud_suspended>:
10005794:	4b02      	ldr	r3, [pc, #8]	; (100057a0 <tud_suspended+0xc>)
10005796:	7818      	ldrb	r0, [r3, #0]
10005798:	0740      	lsls	r0, r0, #29
1000579a:	0fc0      	lsrs	r0, r0, #31
1000579c:	4770      	bx	lr
1000579e:	46c0      	nop			; (mov r8, r8)
100057a0:	2000156c 	.word	0x2000156c

100057a4 <tud_inited>:
100057a4:	4b03      	ldr	r3, [pc, #12]	; (100057b4 <tud_inited+0x10>)
100057a6:	7818      	ldrb	r0, [r3, #0]
100057a8:	38ff      	subs	r0, #255	; 0xff
100057aa:	1e43      	subs	r3, r0, #1
100057ac:	4198      	sbcs	r0, r3
100057ae:	b2c0      	uxtb	r0, r0
100057b0:	4770      	bx	lr
100057b2:	46c0      	nop			; (mov r8, r8)
100057b4:	20000efc 	.word	0x20000efc

100057b8 <tud_init>:
100057b8:	b5f8      	push	{r3, r4, r5, r6, r7, lr}
100057ba:	46ce      	mov	lr, r9
100057bc:	4647      	mov	r7, r8
100057be:	b580      	push	{r7, lr}
100057c0:	4e2c      	ldr	r6, [pc, #176]	; (10005874 <tud_init+0xbc>)
100057c2:	0005      	movs	r5, r0
100057c4:	7833      	ldrb	r3, [r6, #0]
100057c6:	2001      	movs	r0, #1
100057c8:	2bff      	cmp	r3, #255	; 0xff
100057ca:	d003      	beq.n	100057d4 <tud_init+0x1c>
100057cc:	bcc0      	pop	{r6, r7}
100057ce:	46b9      	mov	r9, r7
100057d0:	46b0      	mov	r8, r6
100057d2:	bdf8      	pop	{r3, r4, r5, r6, r7, pc}
100057d4:	2253      	movs	r2, #83	; 0x53
100057d6:	2100      	movs	r1, #0
100057d8:	4827      	ldr	r0, [pc, #156]	; (10005878 <tud_init+0xc0>)
100057da:	f7ff f8a5 	bl	10004928 <__wrap_memset>
100057de:	4c27      	ldr	r4, [pc, #156]	; (1000587c <tud_init+0xc4>)
100057e0:	0020      	movs	r0, r4
100057e2:	f7fb fbd5 	bl	10000f90 <mutex_init>
100057e6:	4b26      	ldr	r3, [pc, #152]	; (10005880 <tud_init+0xc8>)
100057e8:	601c      	str	r4, [r3, #0]
100057ea:	4c26      	ldr	r4, [pc, #152]	; (10005884 <tud_init+0xcc>)
100057ec:	0020      	movs	r0, r4
100057ee:	3014      	adds	r0, #20
100057f0:	f7fb fbea 	bl	10000fc8 <critical_section_init>
100057f4:	0020      	movs	r0, r4
100057f6:	f001 fbd1 	bl	10006f9c <tu_fifo_clear>
100057fa:	4b23      	ldr	r3, [pc, #140]	; (10005888 <tud_init+0xd0>)
100057fc:	4f23      	ldr	r7, [pc, #140]	; (1000588c <tud_init+0xd4>)
100057fe:	601c      	str	r4, [r3, #0]
10005800:	4b23      	ldr	r3, [pc, #140]	; (10005890 <tud_init+0xd8>)
10005802:	4698      	mov	r8, r3
10005804:	2b00      	cmp	r3, #0
10005806:	d004      	beq.n	10005812 <tud_init+0x5a>
10005808:	0038      	movs	r0, r7
1000580a:	f7ff faf9 	bl	10004e00 <usbd_app_driver_get_cb>
1000580e:	4b21      	ldr	r3, [pc, #132]	; (10005894 <tud_init+0xdc>)
10005810:	6018      	str	r0, [r3, #0]
10005812:	4642      	mov	r2, r8
10005814:	2400      	movs	r4, #0
10005816:	783b      	ldrb	r3, [r7, #0]
10005818:	2a00      	cmp	r2, #0
1000581a:	d023      	beq.n	10005864 <tud_init+0xac>
1000581c:	4a1e      	ldr	r2, [pc, #120]	; (10005898 <tud_init+0xe0>)
1000581e:	4690      	mov	r8, r2
10005820:	4a1c      	ldr	r2, [pc, #112]	; (10005894 <tud_init+0xdc>)
10005822:	4691      	mov	r9, r2
10005824:	42a3      	cmp	r3, r4
10005826:	d812      	bhi.n	1000584e <tud_init+0x96>
10005828:	d10f      	bne.n	1000584a <tud_init+0x92>
1000582a:	4643      	mov	r3, r8
1000582c:	4798      	blx	r3
1000582e:	3401      	adds	r4, #1
10005830:	783b      	ldrb	r3, [r7, #0]
10005832:	b2e4      	uxtb	r4, r4
10005834:	42a3      	cmp	r3, r4
10005836:	d2f5      	bcs.n	10005824 <tud_init+0x6c>
10005838:	0028      	movs	r0, r5
1000583a:	7035      	strb	r5, [r6, #0]
1000583c:	f7ff fe2c 	bl	10005498 <dcd_init>
10005840:	0028      	movs	r0, r5
10005842:	f7ff fe11 	bl	10005468 <dcd_int_enable>
10005846:	2001      	movs	r0, #1
10005848:	e7c0      	b.n	100057cc <tud_init+0x14>
1000584a:	2000      	movs	r0, #0
1000584c:	e7be      	b.n	100057cc <tud_init+0x14>
1000584e:	464a      	mov	r2, r9
10005850:	6812      	ldr	r2, [r2, #0]
10005852:	0063      	lsls	r3, r4, #1
10005854:	4694      	mov	ip, r2
10005856:	191b      	adds	r3, r3, r4
10005858:	00db      	lsls	r3, r3, #3
1000585a:	4463      	add	r3, ip
1000585c:	2b00      	cmp	r3, #0
1000585e:	d0f4      	beq.n	1000584a <tud_init+0x92>
10005860:	681b      	ldr	r3, [r3, #0]
10005862:	e7e3      	b.n	1000582c <tud_init+0x74>
10005864:	f000 feee 	bl	10006644 <cdcd_init>
10005868:	783b      	ldrb	r3, [r7, #0]
1000586a:	2000      	movs	r0, #0
1000586c:	2b00      	cmp	r3, #0
1000586e:	d1ad      	bne.n	100057cc <tud_init+0x14>
10005870:	e7e2      	b.n	10005838 <tud_init+0x80>
10005872:	46c0      	nop			; (mov r8, r8)
10005874:	20000efc 	.word	0x20000efc
10005878:	2000156c 	.word	0x2000156c
1000587c:	20001524 	.word	0x20001524
10005880:	200015c0 	.word	0x200015c0
10005884:	20000ee0 	.word	0x20000ee0
10005888:	200015c4 	.word	0x200015c4
1000588c:	20001cb4 	.word	0x20001cb4
10005890:	10004e01 	.word	0x10004e01
10005894:	20001244 	.word	0x20001244
10005898:	10006645 	.word	0x10006645

1000589c <tud_task_ext>:
1000589c:	b5f0      	push	{r4, r5, r6, r7, lr}
1000589e:	46de      	mov	lr, fp
100058a0:	4657      	mov	r7, sl
100058a2:	464e      	mov	r6, r9
100058a4:	4645      	mov	r5, r8
100058a6:	b5e0      	push	{r5, r6, r7, lr}
100058a8:	b08b      	sub	sp, #44	; 0x2c
100058aa:	f001 f8af 	bl	10006a0c <tusb_inited>
100058ae:	2800      	cmp	r0, #0
100058b0:	d100      	bne.n	100058b4 <tud_task_ext+0x18>
100058b2:	e10f      	b.n	10005ad4 <tud_task_ext+0x238>
100058b4:	4bc7      	ldr	r3, [pc, #796]	; (10005bd4 <tud_task_ext+0x338>)
100058b6:	4dc8      	ldr	r5, [pc, #800]	; (10005bd8 <tud_task_ext+0x33c>)
100058b8:	4699      	mov	r9, r3
100058ba:	4bc8      	ldr	r3, [pc, #800]	; (10005bdc <tud_task_ext+0x340>)
100058bc:	ac07      	add	r4, sp, #28
100058be:	469b      	mov	fp, r3
100058c0:	682e      	ldr	r6, [r5, #0]
100058c2:	6972      	ldr	r2, [r6, #20]
100058c4:	f3ef 8110 	mrs	r1, PRIMASK
100058c8:	b672      	cpsid	i
100058ca:	6813      	ldr	r3, [r2, #0]
100058cc:	2b00      	cmp	r3, #0
100058ce:	d0fc      	beq.n	100058ca <tud_task_ext+0x2e>
100058d0:	f3bf 8f5f 	dmb	sy
100058d4:	61b1      	str	r1, [r6, #24]
100058d6:	0030      	movs	r0, r6
100058d8:	0021      	movs	r1, r4
100058da:	f001 f9a1 	bl	10006c20 <tu_fifo_read>
100058de:	6972      	ldr	r2, [r6, #20]
100058e0:	69b3      	ldr	r3, [r6, #24]
100058e2:	f3bf 8f5f 	dmb	sy
100058e6:	2100      	movs	r1, #0
100058e8:	6011      	str	r1, [r2, #0]
100058ea:	f383 8810 	msr	PRIMASK, r3
100058ee:	2800      	cmp	r0, #0
100058f0:	d100      	bne.n	100058f4 <tud_task_ext+0x58>
100058f2:	e0ef      	b.n	10005ad4 <tud_task_ext+0x238>
100058f4:	7863      	ldrb	r3, [r4, #1]
100058f6:	2b08      	cmp	r3, #8
100058f8:	d8e2      	bhi.n	100058c0 <tud_task_ext+0x24>
100058fa:	464a      	mov	r2, r9
100058fc:	009b      	lsls	r3, r3, #2
100058fe:	58d3      	ldr	r3, [r2, r3]
10005900:	469f      	mov	pc, r3
10005902:	6863      	ldr	r3, [r4, #4]
10005904:	2b00      	cmp	r3, #0
10005906:	d0db      	beq.n	100058c0 <tud_task_ext+0x24>
10005908:	68a0      	ldr	r0, [r4, #8]
1000590a:	4798      	blx	r3
1000590c:	e7d8      	b.n	100058c0 <tud_task_ext+0x24>
1000590e:	227f      	movs	r2, #127	; 0x7f
10005910:	7921      	ldrb	r1, [r4, #4]
10005912:	4eb2      	ldr	r6, [pc, #712]	; (10005bdc <tud_task_ext+0x340>)
10005914:	400a      	ands	r2, r1
10005916:	0050      	lsls	r0, r2, #1
10005918:	09cb      	lsrs	r3, r1, #7
1000591a:	1836      	adds	r6, r6, r0
1000591c:	18f6      	adds	r6, r6, r3
1000591e:	0030      	movs	r0, r6
10005920:	2701      	movs	r7, #1
10005922:	3030      	adds	r0, #48	; 0x30
10005924:	78c3      	ldrb	r3, [r0, #3]
10005926:	43bb      	bics	r3, r7
10005928:	70c3      	strb	r3, [r0, #3]
1000592a:	78c3      	ldrb	r3, [r0, #3]
1000592c:	3703      	adds	r7, #3
1000592e:	43bb      	bics	r3, r7
10005930:	70c3      	strb	r3, [r0, #3]
10005932:	2a00      	cmp	r2, #0
10005934:	d100      	bne.n	10005938 <tud_task_ext+0x9c>
10005936:	e0f2      	b.n	10005b1e <tud_task_ext+0x282>
10005938:	4aa9      	ldr	r2, [pc, #676]	; (10005be0 <tud_task_ext+0x344>)
1000593a:	7cf3      	ldrb	r3, [r6, #19]
1000593c:	2a00      	cmp	r2, #0
1000593e:	d006      	beq.n	1000594e <tud_task_ext+0xb2>
10005940:	4aa8      	ldr	r2, [pc, #672]	; (10005be4 <tud_task_ext+0x348>)
10005942:	7812      	ldrb	r2, [r2, #0]
10005944:	4293      	cmp	r3, r2
10005946:	d200      	bcs.n	1000594a <tud_task_ext+0xae>
10005948:	e160      	b.n	10005c0c <tud_task_ext+0x370>
1000594a:	1a9b      	subs	r3, r3, r2
1000594c:	b2db      	uxtb	r3, r3
1000594e:	2b00      	cmp	r3, #0
10005950:	d000      	beq.n	10005954 <tud_task_ext+0xb8>
10005952:	e0bf      	b.n	10005ad4 <tud_task_ext+0x238>
10005954:	4ea4      	ldr	r6, [pc, #656]	; (10005be8 <tud_task_ext+0x34c>)
10005956:	7962      	ldrb	r2, [r4, #5]
10005958:	7820      	ldrb	r0, [r4, #0]
1000595a:	68a3      	ldr	r3, [r4, #8]
1000595c:	47b0      	blx	r6
1000595e:	e7af      	b.n	100058c0 <tud_task_ext+0x24>
10005960:	465b      	mov	r3, fp
10005962:	2201      	movs	r2, #1
10005964:	781b      	ldrb	r3, [r3, #0]
10005966:	2101      	movs	r1, #1
10005968:	4313      	orrs	r3, r2
1000596a:	465a      	mov	r2, fp
1000596c:	7013      	strb	r3, [r2, #0]
1000596e:	2333      	movs	r3, #51	; 0x33
10005970:	4658      	mov	r0, fp
10005972:	5cd2      	ldrb	r2, [r2, r3]
10005974:	465e      	mov	r6, fp
10005976:	438a      	bics	r2, r1
10005978:	54c2      	strb	r2, [r0, r3]
1000597a:	5cc2      	ldrb	r2, [r0, r3]
1000597c:	2004      	movs	r0, #4
1000597e:	4382      	bics	r2, r0
10005980:	54f2      	strb	r2, [r6, r3]
10005982:	3301      	adds	r3, #1
10005984:	5cf2      	ldrb	r2, [r6, r3]
10005986:	438a      	bics	r2, r1
10005988:	54f2      	strb	r2, [r6, r3]
1000598a:	5cf2      	ldrb	r2, [r6, r3]
1000598c:	4382      	bics	r2, r0
1000598e:	54f2      	strb	r2, [r6, r3]
10005990:	7823      	ldrb	r3, [r4, #0]
10005992:	2000      	movs	r0, #0
10005994:	469a      	mov	sl, r3
10005996:	f000 fd05 	bl	100063a4 <usbd_control_set_complete_callback>
1000599a:	2260      	movs	r2, #96	; 0x60
1000599c:	7923      	ldrb	r3, [r4, #4]
1000599e:	401a      	ands	r2, r3
100059a0:	2a60      	cmp	r2, #96	; 0x60
100059a2:	d00d      	beq.n	100059c0 <tud_task_ext+0x124>
100059a4:	2a40      	cmp	r2, #64	; 0x40
100059a6:	d100      	bne.n	100059aa <tud_task_ext+0x10e>
100059a8:	e0bf      	b.n	10005b2a <tud_task_ext+0x28e>
100059aa:	06db      	lsls	r3, r3, #27
100059ac:	0edb      	lsrs	r3, r3, #27
100059ae:	2b01      	cmp	r3, #1
100059b0:	d100      	bne.n	100059b4 <tud_task_ext+0x118>
100059b2:	e136      	b.n	10005c22 <tud_task_ext+0x386>
100059b4:	2b02      	cmp	r3, #2
100059b6:	d100      	bne.n	100059ba <tud_task_ext+0x11e>
100059b8:	e0d4      	b.n	10005b64 <tud_task_ext+0x2c8>
100059ba:	2b00      	cmp	r3, #0
100059bc:	d100      	bne.n	100059c0 <tud_task_ext+0x124>
100059be:	e0c3      	b.n	10005b48 <tud_task_ext+0x2ac>
100059c0:	7820      	ldrb	r0, [r4, #0]
100059c2:	2100      	movs	r1, #0
100059c4:	f7ff fe5c 	bl	10005680 <dcd_edpt_stall>
100059c8:	2180      	movs	r1, #128	; 0x80
100059ca:	7820      	ldrb	r0, [r4, #0]
100059cc:	f7ff fe58 	bl	10005680 <dcd_edpt_stall>
100059d0:	e776      	b.n	100058c0 <tud_task_ext+0x24>
100059d2:	4e82      	ldr	r6, [pc, #520]	; (10005bdc <tud_task_ext+0x340>)
100059d4:	7833      	ldrb	r3, [r6, #0]
100059d6:	07db      	lsls	r3, r3, #31
100059d8:	d400      	bmi.n	100059dc <tud_task_ext+0x140>
100059da:	e771      	b.n	100058c0 <tud_task_ext+0x24>
100059dc:	4b83      	ldr	r3, [pc, #524]	; (10005bec <tud_task_ext+0x350>)
100059de:	2b00      	cmp	r3, #0
100059e0:	d100      	bne.n	100059e4 <tud_task_ext+0x148>
100059e2:	e76d      	b.n	100058c0 <tud_task_ext+0x24>
100059e4:	e000      	b.n	100059e8 <tud_task_ext+0x14c>
100059e6:	bf00      	nop
100059e8:	e76a      	b.n	100058c0 <tud_task_ext+0x24>
100059ea:	4e7c      	ldr	r6, [pc, #496]	; (10005bdc <tud_task_ext+0x340>)
100059ec:	7833      	ldrb	r3, [r6, #0]
100059ee:	07db      	lsls	r3, r3, #31
100059f0:	d400      	bmi.n	100059f4 <tud_task_ext+0x158>
100059f2:	e765      	b.n	100058c0 <tud_task_ext+0x24>
100059f4:	4b7e      	ldr	r3, [pc, #504]	; (10005bf0 <tud_task_ext+0x354>)
100059f6:	2b00      	cmp	r3, #0
100059f8:	d100      	bne.n	100059fc <tud_task_ext+0x160>
100059fa:	e761      	b.n	100058c0 <tud_task_ext+0x24>
100059fc:	7830      	ldrb	r0, [r6, #0]
100059fe:	0700      	lsls	r0, r0, #28
10005a00:	0fc0      	lsrs	r0, r0, #31
10005a02:	e000      	b.n	10005a06 <tud_task_ext+0x16a>
10005a04:	bf00      	nop
10005a06:	e75b      	b.n	100058c0 <tud_task_ext+0x24>
10005a08:	4b76      	ldr	r3, [pc, #472]	; (10005be4 <tud_task_ext+0x348>)
10005a0a:	4a75      	ldr	r2, [pc, #468]	; (10005be0 <tud_task_ext+0x344>)
10005a0c:	4698      	mov	r8, r3
10005a0e:	2600      	movs	r6, #0
10005a10:	7827      	ldrb	r7, [r4, #0]
10005a12:	781b      	ldrb	r3, [r3, #0]
10005a14:	2a00      	cmp	r2, #0
10005a16:	d100      	bne.n	10005a1a <tud_task_ext+0x17e>
10005a18:	e079      	b.n	10005b0e <tud_task_ext+0x272>
10005a1a:	4a76      	ldr	r2, [pc, #472]	; (10005bf4 <tud_task_ext+0x358>)
10005a1c:	4692      	mov	sl, r2
10005a1e:	429e      	cmp	r6, r3
10005a20:	d35f      	bcc.n	10005ae2 <tud_task_ext+0x246>
10005a22:	d119      	bne.n	10005a58 <tud_task_ext+0x1bc>
10005a24:	4b74      	ldr	r3, [pc, #464]	; (10005bf8 <tud_task_ext+0x35c>)
10005a26:	0038      	movs	r0, r7
10005a28:	4798      	blx	r3
10005a2a:	4643      	mov	r3, r8
10005a2c:	3601      	adds	r6, #1
10005a2e:	781b      	ldrb	r3, [r3, #0]
10005a30:	b2f6      	uxtb	r6, r6
10005a32:	42b3      	cmp	r3, r6
10005a34:	d2f3      	bcs.n	10005a1e <tud_task_ext+0x182>
10005a36:	4e69      	ldr	r6, [pc, #420]	; (10005bdc <tud_task_ext+0x340>)
10005a38:	2253      	movs	r2, #83	; 0x53
10005a3a:	2100      	movs	r1, #0
10005a3c:	0030      	movs	r0, r6
10005a3e:	f7fe ff73 	bl	10004928 <__wrap_memset>
10005a42:	2210      	movs	r2, #16
10005a44:	21ff      	movs	r1, #255	; 0xff
10005a46:	1cf0      	adds	r0, r6, #3
10005a48:	f7fe ff6e 	bl	10004928 <__wrap_memset>
10005a4c:	0030      	movs	r0, r6
10005a4e:	2220      	movs	r2, #32
10005a50:	21ff      	movs	r1, #255	; 0xff
10005a52:	3013      	adds	r0, #19
10005a54:	f7fe ff68 	bl	10004928 <__wrap_memset>
10005a58:	f000 fc9a 	bl	10006390 <usbd_control_reset>
10005a5c:	4b67      	ldr	r3, [pc, #412]	; (10005bfc <tud_task_ext+0x360>)
10005a5e:	2b00      	cmp	r3, #0
10005a60:	d100      	bne.n	10005a64 <tud_task_ext+0x1c8>
10005a62:	e72d      	b.n	100058c0 <tud_task_ext+0x24>
10005a64:	e000      	b.n	10005a68 <tud_task_ext+0x1cc>
10005a66:	bf00      	nop
10005a68:	e72a      	b.n	100058c0 <tud_task_ext+0x24>
10005a6a:	4b5e      	ldr	r3, [pc, #376]	; (10005be4 <tud_task_ext+0x348>)
10005a6c:	4a5c      	ldr	r2, [pc, #368]	; (10005be0 <tud_task_ext+0x344>)
10005a6e:	4698      	mov	r8, r3
10005a70:	2600      	movs	r6, #0
10005a72:	7827      	ldrb	r7, [r4, #0]
10005a74:	781b      	ldrb	r3, [r3, #0]
10005a76:	2a00      	cmp	r2, #0
10005a78:	d01f      	beq.n	10005aba <tud_task_ext+0x21e>
10005a7a:	4a5e      	ldr	r2, [pc, #376]	; (10005bf4 <tud_task_ext+0x358>)
10005a7c:	4692      	mov	sl, r2
10005a7e:	429e      	cmp	r6, r3
10005a80:	d33a      	bcc.n	10005af8 <tud_task_ext+0x25c>
10005a82:	d121      	bne.n	10005ac8 <tud_task_ext+0x22c>
10005a84:	4b5c      	ldr	r3, [pc, #368]	; (10005bf8 <tud_task_ext+0x35c>)
10005a86:	0038      	movs	r0, r7
10005a88:	4798      	blx	r3
10005a8a:	4643      	mov	r3, r8
10005a8c:	3601      	adds	r6, #1
10005a8e:	781b      	ldrb	r3, [r3, #0]
10005a90:	b2f6      	uxtb	r6, r6
10005a92:	42b3      	cmp	r3, r6
10005a94:	d2f3      	bcs.n	10005a7e <tud_task_ext+0x1e2>
10005a96:	4e51      	ldr	r6, [pc, #324]	; (10005bdc <tud_task_ext+0x340>)
10005a98:	2253      	movs	r2, #83	; 0x53
10005a9a:	2100      	movs	r1, #0
10005a9c:	0030      	movs	r0, r6
10005a9e:	f7fe ff43 	bl	10004928 <__wrap_memset>
10005aa2:	2210      	movs	r2, #16
10005aa4:	21ff      	movs	r1, #255	; 0xff
10005aa6:	1cf0      	adds	r0, r6, #3
10005aa8:	f7fe ff3e 	bl	10004928 <__wrap_memset>
10005aac:	0030      	movs	r0, r6
10005aae:	2220      	movs	r2, #32
10005ab0:	21ff      	movs	r1, #255	; 0xff
10005ab2:	3013      	adds	r0, #19
10005ab4:	f7fe ff38 	bl	10004928 <__wrap_memset>
10005ab8:	e007      	b.n	10005aca <tud_task_ext+0x22e>
10005aba:	0038      	movs	r0, r7
10005abc:	f000 fe00 	bl	100066c0 <cdcd_reset>
10005ac0:	4643      	mov	r3, r8
10005ac2:	781b      	ldrb	r3, [r3, #0]
10005ac4:	2b00      	cmp	r3, #0
10005ac6:	d0e6      	beq.n	10005a96 <tud_task_ext+0x1fa>
10005ac8:	4e44      	ldr	r6, [pc, #272]	; (10005bdc <tud_task_ext+0x340>)
10005aca:	f000 fc61 	bl	10006390 <usbd_control_reset>
10005ace:	7923      	ldrb	r3, [r4, #4]
10005ad0:	70b3      	strb	r3, [r6, #2]
10005ad2:	e6f5      	b.n	100058c0 <tud_task_ext+0x24>
10005ad4:	b00b      	add	sp, #44	; 0x2c
10005ad6:	bcf0      	pop	{r4, r5, r6, r7}
10005ad8:	46bb      	mov	fp, r7
10005ada:	46b2      	mov	sl, r6
10005adc:	46a9      	mov	r9, r5
10005ade:	46a0      	mov	r8, r4
10005ae0:	bdf0      	pop	{r4, r5, r6, r7, pc}
10005ae2:	4652      	mov	r2, sl
10005ae4:	6812      	ldr	r2, [r2, #0]
10005ae6:	0073      	lsls	r3, r6, #1
10005ae8:	4694      	mov	ip, r2
10005aea:	199b      	adds	r3, r3, r6
10005aec:	00db      	lsls	r3, r3, #3
10005aee:	4463      	add	r3, ip
10005af0:	2b00      	cmp	r3, #0
10005af2:	d0b1      	beq.n	10005a58 <tud_task_ext+0x1bc>
10005af4:	685b      	ldr	r3, [r3, #4]
10005af6:	e796      	b.n	10005a26 <tud_task_ext+0x18a>
10005af8:	4652      	mov	r2, sl
10005afa:	6812      	ldr	r2, [r2, #0]
10005afc:	0073      	lsls	r3, r6, #1
10005afe:	4694      	mov	ip, r2
10005b00:	199b      	adds	r3, r3, r6
10005b02:	00db      	lsls	r3, r3, #3
10005b04:	4463      	add	r3, ip
10005b06:	2b00      	cmp	r3, #0
10005b08:	d0de      	beq.n	10005ac8 <tud_task_ext+0x22c>
10005b0a:	685b      	ldr	r3, [r3, #4]
10005b0c:	e7bb      	b.n	10005a86 <tud_task_ext+0x1ea>
10005b0e:	0038      	movs	r0, r7
10005b10:	f000 fdd6 	bl	100066c0 <cdcd_reset>
10005b14:	4643      	mov	r3, r8
10005b16:	781b      	ldrb	r3, [r3, #0]
10005b18:	2b00      	cmp	r3, #0
10005b1a:	d19d      	bne.n	10005a58 <tud_task_ext+0x1bc>
10005b1c:	e78b      	b.n	10005a36 <tud_task_ext+0x19a>
10005b1e:	7962      	ldrb	r2, [r4, #5]
10005b20:	7820      	ldrb	r0, [r4, #0]
10005b22:	68a3      	ldr	r3, [r4, #8]
10005b24:	f000 fc52 	bl	100063cc <usbd_control_xfer_cb>
10005b28:	e6ca      	b.n	100058c0 <tud_task_ext+0x24>
10005b2a:	4835      	ldr	r0, [pc, #212]	; (10005c00 <tud_task_ext+0x364>)
10005b2c:	2800      	cmp	r0, #0
10005b2e:	d100      	bne.n	10005b32 <tud_task_ext+0x296>
10005b30:	e746      	b.n	100059c0 <tud_task_ext+0x124>
10005b32:	f000 fc37 	bl	100063a4 <usbd_control_set_complete_callback>
10005b36:	2101      	movs	r1, #1
10005b38:	4650      	mov	r0, sl
10005b3a:	aa08      	add	r2, sp, #32
10005b3c:	e000      	b.n	10005b40 <tud_task_ext+0x2a4>
10005b3e:	bf00      	nop
10005b40:	2800      	cmp	r0, #0
10005b42:	d000      	beq.n	10005b46 <tud_task_ext+0x2aa>
10005b44:	e6bc      	b.n	100058c0 <tud_task_ext+0x24>
10005b46:	e73b      	b.n	100059c0 <tud_task_ext+0x124>
10005b48:	2a20      	cmp	r2, #32
10005b4a:	d100      	bne.n	10005b4e <tud_task_ext+0x2b2>
10005b4c:	e09e      	b.n	10005c8c <tud_task_ext+0x3f0>
10005b4e:	2a00      	cmp	r2, #0
10005b50:	d000      	beq.n	10005b54 <tud_task_ext+0x2b8>
10005b52:	e735      	b.n	100059c0 <tud_task_ext+0x124>
10005b54:	7963      	ldrb	r3, [r4, #5]
10005b56:	2b09      	cmp	r3, #9
10005b58:	d900      	bls.n	10005b5c <tud_task_ext+0x2c0>
10005b5a:	e731      	b.n	100059c0 <tud_task_ext+0x124>
10005b5c:	4a29      	ldr	r2, [pc, #164]	; (10005c04 <tud_task_ext+0x368>)
10005b5e:	009b      	lsls	r3, r3, #2
10005b60:	58d3      	ldr	r3, [r2, r3]
10005b62:	469f      	mov	pc, r3
10005b64:	2370      	movs	r3, #112	; 0x70
10005b66:	7a21      	ldrb	r1, [r4, #8]
10005b68:	420b      	tst	r3, r1
10005b6a:	d000      	beq.n	10005b6e <tud_task_ext+0x2d2>
10005b6c:	e728      	b.n	100059c0 <tud_task_ext+0x124>
10005b6e:	4658      	mov	r0, fp
10005b70:	330f      	adds	r3, #15
10005b72:	400b      	ands	r3, r1
10005b74:	005b      	lsls	r3, r3, #1
10005b76:	09ce      	lsrs	r6, r1, #7
10005b78:	18c0      	adds	r0, r0, r3
10005b7a:	4f19      	ldr	r7, [pc, #100]	; (10005be0 <tud_task_ext+0x344>)
10005b7c:	1980      	adds	r0, r0, r6
10005b7e:	7cc0      	ldrb	r0, [r0, #19]
10005b80:	2f00      	cmp	r7, #0
10005b82:	d006      	beq.n	10005b92 <tud_task_ext+0x2f6>
10005b84:	4f17      	ldr	r7, [pc, #92]	; (10005be4 <tud_task_ext+0x348>)
10005b86:	783f      	ldrb	r7, [r7, #0]
10005b88:	42b8      	cmp	r0, r7
10005b8a:	d200      	bcs.n	10005b8e <tud_task_ext+0x2f2>
10005b8c:	e0a0      	b.n	10005cd0 <tud_task_ext+0x434>
10005b8e:	1bc0      	subs	r0, r0, r7
10005b90:	b2c0      	uxtb	r0, r0
10005b92:	2800      	cmp	r0, #0
10005b94:	d000      	beq.n	10005b98 <tud_task_ext+0x2fc>
10005b96:	e096      	b.n	10005cc6 <tud_task_ext+0x42a>
10005b98:	2a00      	cmp	r2, #0
10005b9a:	d000      	beq.n	10005b9e <tud_task_ext+0x302>
10005b9c:	e147      	b.n	10005e2e <tud_task_ext+0x592>
10005b9e:	4f1a      	ldr	r7, [pc, #104]	; (10005c08 <tud_task_ext+0x36c>)
10005ba0:	2002      	movs	r0, #2
10005ba2:	7962      	ldrb	r2, [r4, #5]
10005ba4:	4690      	mov	r8, r2
10005ba6:	4382      	bics	r2, r0
10005ba8:	2a01      	cmp	r2, #1
10005baa:	d100      	bne.n	10005bae <tud_task_ext+0x312>
10005bac:	e142      	b.n	10005e34 <tud_task_ext+0x598>
10005bae:	4642      	mov	r2, r8
10005bb0:	2a00      	cmp	r2, #0
10005bb2:	d000      	beq.n	10005bb6 <tud_task_ext+0x31a>
10005bb4:	e704      	b.n	100059c0 <tud_task_ext+0x124>
10005bb6:	445b      	add	r3, fp
10005bb8:	199e      	adds	r6, r3, r6
10005bba:	3630      	adds	r6, #48	; 0x30
10005bbc:	78f3      	ldrb	r3, [r6, #3]
10005bbe:	aa06      	add	r2, sp, #24
10005bc0:	079b      	lsls	r3, r3, #30
10005bc2:	0fdb      	lsrs	r3, r3, #31
10005bc4:	3202      	adds	r2, #2
10005bc6:	8013      	strh	r3, [r2, #0]
10005bc8:	4650      	mov	r0, sl
10005bca:	2302      	movs	r3, #2
10005bcc:	a908      	add	r1, sp, #32
10005bce:	f000 fb81 	bl	100062d4 <tud_control_xfer>
10005bd2:	e675      	b.n	100058c0 <tud_task_ext+0x24>
10005bd4:	10007624 	.word	0x10007624
10005bd8:	200015c4 	.word	0x200015c4
10005bdc:	2000156c 	.word	0x2000156c
10005be0:	10004e01 	.word	0x10004e01
10005be4:	20001cb4 	.word	0x20001cb4
10005be8:	100068b9 	.word	0x100068b9
	...
10005bf4:	20001244 	.word	0x20001244
10005bf8:	100066c1 	.word	0x100066c1
	...
10005c04:	10007648 	.word	0x10007648
10005c08:	100076b0 	.word	0x100076b0
10005c0c:	005a      	lsls	r2, r3, #1
10005c0e:	18d3      	adds	r3, r2, r3
10005c10:	4ab1      	ldr	r2, [pc, #708]	; (10005ed8 <tud_task_ext+0x63c>)
10005c12:	00db      	lsls	r3, r3, #3
10005c14:	6812      	ldr	r2, [r2, #0]
10005c16:	18d3      	adds	r3, r2, r3
10005c18:	2b00      	cmp	r3, #0
10005c1a:	d100      	bne.n	10005c1e <tud_task_ext+0x382>
10005c1c:	e75a      	b.n	10005ad4 <tud_task_ext+0x238>
10005c1e:	691e      	ldr	r6, [r3, #16]
10005c20:	e699      	b.n	10005956 <tud_task_ext+0xba>
10005c22:	7a23      	ldrb	r3, [r4, #8]
10005c24:	2b0f      	cmp	r3, #15
10005c26:	d900      	bls.n	10005c2a <tud_task_ext+0x38e>
10005c28:	e6ca      	b.n	100059c0 <tud_task_ext+0x124>
10005c2a:	4aac      	ldr	r2, [pc, #688]	; (10005edc <tud_task_ext+0x640>)
10005c2c:	445b      	add	r3, fp
10005c2e:	78db      	ldrb	r3, [r3, #3]
10005c30:	2a00      	cmp	r2, #0
10005c32:	d005      	beq.n	10005c40 <tud_task_ext+0x3a4>
10005c34:	4aaa      	ldr	r2, [pc, #680]	; (10005ee0 <tud_task_ext+0x644>)
10005c36:	7812      	ldrb	r2, [r2, #0]
10005c38:	4293      	cmp	r3, r2
10005c3a:	d35e      	bcc.n	10005cfa <tud_task_ext+0x45e>
10005c3c:	1a9b      	subs	r3, r3, r2
10005c3e:	b2db      	uxtb	r3, r3
10005c40:	2b00      	cmp	r3, #0
10005c42:	d000      	beq.n	10005c46 <tud_task_ext+0x3aa>
10005c44:	e6bc      	b.n	100059c0 <tud_task_ext+0x124>
10005c46:	48a7      	ldr	r0, [pc, #668]	; (10005ee4 <tud_task_ext+0x648>)
10005c48:	4ea7      	ldr	r6, [pc, #668]	; (10005ee8 <tud_task_ext+0x64c>)
10005c4a:	f000 fbab 	bl	100063a4 <usbd_control_set_complete_callback>
10005c4e:	2101      	movs	r1, #1
10005c50:	4650      	mov	r0, sl
10005c52:	68f3      	ldr	r3, [r6, #12]
10005c54:	aa08      	add	r2, sp, #32
10005c56:	4798      	blx	r3
10005c58:	2800      	cmp	r0, #0
10005c5a:	d000      	beq.n	10005c5e <tud_task_ext+0x3c2>
10005c5c:	e630      	b.n	100058c0 <tud_task_ext+0x24>
10005c5e:	2260      	movs	r2, #96	; 0x60
10005c60:	0016      	movs	r6, r2
10005c62:	7923      	ldrb	r3, [r4, #4]
10005c64:	401e      	ands	r6, r3
10005c66:	421a      	tst	r2, r3
10005c68:	d000      	beq.n	10005c6c <tud_task_ext+0x3d0>
10005c6a:	e6a9      	b.n	100059c0 <tud_task_ext+0x124>
10005c6c:	7963      	ldrb	r3, [r4, #5]
10005c6e:	3b0a      	subs	r3, #10
10005c70:	2b01      	cmp	r3, #1
10005c72:	d900      	bls.n	10005c76 <tud_task_ext+0x3da>
10005c74:	e6a4      	b.n	100059c0 <tud_task_ext+0x124>
10005c76:	f000 fb95 	bl	100063a4 <usbd_control_set_complete_callback>
10005c7a:	7963      	ldrb	r3, [r4, #5]
10005c7c:	2b0a      	cmp	r3, #10
10005c7e:	d100      	bne.n	10005c82 <tud_task_ext+0x3e6>
10005c80:	e120      	b.n	10005ec4 <tud_task_ext+0x628>
10005c82:	4650      	mov	r0, sl
10005c84:	a908      	add	r1, sp, #32
10005c86:	f000 fb0d 	bl	100062a4 <tud_control_status>
10005c8a:	e619      	b.n	100058c0 <tud_task_ext+0x24>
10005c8c:	7a23      	ldrb	r3, [r4, #8]
10005c8e:	2b0f      	cmp	r3, #15
10005c90:	d900      	bls.n	10005c94 <tud_task_ext+0x3f8>
10005c92:	e695      	b.n	100059c0 <tud_task_ext+0x124>
10005c94:	4a91      	ldr	r2, [pc, #580]	; (10005edc <tud_task_ext+0x640>)
10005c96:	445b      	add	r3, fp
10005c98:	78db      	ldrb	r3, [r3, #3]
10005c9a:	2a00      	cmp	r2, #0
10005c9c:	d006      	beq.n	10005cac <tud_task_ext+0x410>
10005c9e:	4a90      	ldr	r2, [pc, #576]	; (10005ee0 <tud_task_ext+0x644>)
10005ca0:	7812      	ldrb	r2, [r2, #0]
10005ca2:	4293      	cmp	r3, r2
10005ca4:	d200      	bcs.n	10005ca8 <tud_task_ext+0x40c>
10005ca6:	e0e6      	b.n	10005e76 <tud_task_ext+0x5da>
10005ca8:	1a9b      	subs	r3, r3, r2
10005caa:	b2db      	uxtb	r3, r3
10005cac:	2b00      	cmp	r3, #0
10005cae:	d000      	beq.n	10005cb2 <tud_task_ext+0x416>
10005cb0:	e686      	b.n	100059c0 <tud_task_ext+0x124>
10005cb2:	488c      	ldr	r0, [pc, #560]	; (10005ee4 <tud_task_ext+0x648>)
10005cb4:	4e8c      	ldr	r6, [pc, #560]	; (10005ee8 <tud_task_ext+0x64c>)
10005cb6:	f000 fb75 	bl	100063a4 <usbd_control_set_complete_callback>
10005cba:	2101      	movs	r1, #1
10005cbc:	4650      	mov	r0, sl
10005cbe:	68f3      	ldr	r3, [r6, #12]
10005cc0:	aa08      	add	r2, sp, #32
10005cc2:	4798      	blx	r3
10005cc4:	e73c      	b.n	10005b40 <tud_task_ext+0x2a4>
10005cc6:	2700      	movs	r7, #0
10005cc8:	2a00      	cmp	r2, #0
10005cca:	d100      	bne.n	10005cce <tud_task_ext+0x432>
10005ccc:	e768      	b.n	10005ba0 <tud_task_ext+0x304>
10005cce:	e677      	b.n	100059c0 <tud_task_ext+0x124>
10005cd0:	0047      	lsls	r7, r0, #1
10005cd2:	1838      	adds	r0, r7, r0
10005cd4:	4f80      	ldr	r7, [pc, #512]	; (10005ed8 <tud_task_ext+0x63c>)
10005cd6:	00c0      	lsls	r0, r0, #3
10005cd8:	683f      	ldr	r7, [r7, #0]
10005cda:	183f      	adds	r7, r7, r0
10005cdc:	2a00      	cmp	r2, #0
10005cde:	d100      	bne.n	10005ce2 <tud_task_ext+0x446>
10005ce0:	e75e      	b.n	10005ba0 <tud_task_ext+0x304>
10005ce2:	2f00      	cmp	r7, #0
10005ce4:	d100      	bne.n	10005ce8 <tud_task_ext+0x44c>
10005ce6:	e66b      	b.n	100059c0 <tud_task_ext+0x124>
10005ce8:	68f8      	ldr	r0, [r7, #12]
10005cea:	f000 fb5b 	bl	100063a4 <usbd_control_set_complete_callback>
10005cee:	2101      	movs	r1, #1
10005cf0:	4650      	mov	r0, sl
10005cf2:	68fb      	ldr	r3, [r7, #12]
10005cf4:	aa08      	add	r2, sp, #32
10005cf6:	4798      	blx	r3
10005cf8:	e722      	b.n	10005b40 <tud_task_ext+0x2a4>
10005cfa:	4a77      	ldr	r2, [pc, #476]	; (10005ed8 <tud_task_ext+0x63c>)
10005cfc:	005e      	lsls	r6, r3, #1
10005cfe:	18f3      	adds	r3, r6, r3
10005d00:	6816      	ldr	r6, [r2, #0]
10005d02:	00db      	lsls	r3, r3, #3
10005d04:	18f6      	adds	r6, r6, r3
10005d06:	2e00      	cmp	r6, #0
10005d08:	d100      	bne.n	10005d0c <tud_task_ext+0x470>
10005d0a:	e659      	b.n	100059c0 <tud_task_ext+0x124>
10005d0c:	68f0      	ldr	r0, [r6, #12]
10005d0e:	e79c      	b.n	10005c4a <tud_task_ext+0x3ae>
10005d10:	79a2      	ldrb	r2, [r4, #6]
10005d12:	9201      	str	r2, [sp, #4]
10005d14:	7873      	ldrb	r3, [r6, #1]
10005d16:	429a      	cmp	r2, r3
10005d18:	d007      	beq.n	10005d2a <tud_task_ext+0x48e>
10005d1a:	7873      	ldrb	r3, [r6, #1]
10005d1c:	2b00      	cmp	r3, #0
10005d1e:	d000      	beq.n	10005d22 <tud_task_ext+0x486>
10005d20:	e146      	b.n	10005fb0 <tud_task_ext+0x714>
10005d22:	9b01      	ldr	r3, [sp, #4]
10005d24:	2b00      	cmp	r3, #0
10005d26:	d000      	beq.n	10005d2a <tud_task_ext+0x48e>
10005d28:	e0ea      	b.n	10005f00 <tud_task_ext+0x664>
10005d2a:	465b      	mov	r3, fp
10005d2c:	9a01      	ldr	r2, [sp, #4]
10005d2e:	4650      	mov	r0, sl
10005d30:	a908      	add	r1, sp, #32
10005d32:	705a      	strb	r2, [r3, #1]
10005d34:	f000 fab6 	bl	100062a4 <tud_control_status>
10005d38:	e5c2      	b.n	100058c0 <tud_task_ext+0x24>
10005d3a:	7873      	ldrb	r3, [r6, #1]
10005d3c:	aa06      	add	r2, sp, #24
10005d3e:	3202      	adds	r2, #2
10005d40:	7013      	strb	r3, [r2, #0]
10005d42:	4650      	mov	r0, sl
10005d44:	2301      	movs	r3, #1
10005d46:	a908      	add	r1, sp, #32
10005d48:	f000 fac4 	bl	100062d4 <tud_control_xfer>
10005d4c:	e5b8      	b.n	100058c0 <tud_task_ext+0x24>
10005d4e:	88e0      	ldrh	r0, [r4, #6]
10005d50:	0a03      	lsrs	r3, r0, #8
10005d52:	b2c0      	uxtb	r0, r0
10005d54:	2b0f      	cmp	r3, #15
10005d56:	d900      	bls.n	10005d5a <tud_task_ext+0x4be>
10005d58:	e632      	b.n	100059c0 <tud_task_ext+0x124>
10005d5a:	4964      	ldr	r1, [pc, #400]	; (10005eec <tud_task_ext+0x650>)
10005d5c:	009a      	lsls	r2, r3, #2
10005d5e:	588a      	ldr	r2, [r1, r2]
10005d60:	4697      	mov	pc, r2
10005d62:	a808      	add	r0, sp, #32
10005d64:	f000 fb24 	bl	100063b0 <usbd_control_set_request>
10005d68:	4650      	mov	r0, sl
10005d6a:	79a1      	ldrb	r1, [r4, #6]
10005d6c:	f7ff fb82 	bl	10005474 <dcd_set_address>
10005d70:	2202      	movs	r2, #2
10005d72:	7833      	ldrb	r3, [r6, #0]
10005d74:	4313      	orrs	r3, r2
10005d76:	7033      	strb	r3, [r6, #0]
10005d78:	e5a2      	b.n	100058c0 <tud_task_ext+0x24>
10005d7a:	88e3      	ldrh	r3, [r4, #6]
10005d7c:	2b01      	cmp	r3, #1
10005d7e:	d000      	beq.n	10005d82 <tud_task_ext+0x4e6>
10005d80:	e61e      	b.n	100059c0 <tud_task_ext+0x124>
10005d82:	2208      	movs	r2, #8
10005d84:	7833      	ldrb	r3, [r6, #0]
10005d86:	4393      	bics	r3, r2
10005d88:	465a      	mov	r2, fp
10005d8a:	7013      	strb	r3, [r2, #0]
10005d8c:	e779      	b.n	10005c82 <tud_task_ext+0x3e6>
10005d8e:	2002      	movs	r0, #2
10005d90:	7831      	ldrb	r1, [r6, #0]
10005d92:	ab06      	add	r3, sp, #24
10005d94:	1c9a      	adds	r2, r3, #2
10005d96:	068b      	lsls	r3, r1, #26
10005d98:	0889      	lsrs	r1, r1, #2
10005d9a:	0fdb      	lsrs	r3, r3, #31
10005d9c:	4001      	ands	r1, r0
10005d9e:	430b      	orrs	r3, r1
10005da0:	e711      	b.n	10005bc6 <tud_task_ext+0x32a>
10005da2:	88e3      	ldrh	r3, [r4, #6]
10005da4:	2b01      	cmp	r3, #1
10005da6:	d000      	beq.n	10005daa <tud_task_ext+0x50e>
10005da8:	e60a      	b.n	100059c0 <tud_task_ext+0x124>
10005daa:	2208      	movs	r2, #8
10005dac:	7833      	ldrb	r3, [r6, #0]
10005dae:	4313      	orrs	r3, r2
10005db0:	e7ea      	b.n	10005d88 <tud_task_ext+0x4ec>
10005db2:	4b4f      	ldr	r3, [pc, #316]	; (10005ef0 <tud_task_ext+0x654>)
10005db4:	2b00      	cmp	r3, #0
10005db6:	d100      	bne.n	10005dba <tud_task_ext+0x51e>
10005db8:	e602      	b.n	100059c0 <tud_task_ext+0x124>
10005dba:	e000      	b.n	10005dbe <tud_task_ext+0x522>
10005dbc:	bf00      	nop
10005dbe:	1e02      	subs	r2, r0, #0
10005dc0:	d100      	bne.n	10005dc4 <tud_task_ext+0x528>
10005dc2:	e5fd      	b.n	100059c0 <tud_task_ext+0x124>
10005dc4:	78d3      	ldrb	r3, [r2, #3]
10005dc6:	7891      	ldrb	r1, [r2, #2]
10005dc8:	021b      	lsls	r3, r3, #8
10005dca:	430b      	orrs	r3, r1
10005dcc:	4650      	mov	r0, sl
10005dce:	a908      	add	r1, sp, #32
10005dd0:	f000 fa80 	bl	100062d4 <tud_control_xfer>
10005dd4:	e6b4      	b.n	10005b40 <tud_task_ext+0x2a4>
10005dd6:	4b47      	ldr	r3, [pc, #284]	; (10005ef4 <tud_task_ext+0x658>)
10005dd8:	2b00      	cmp	r3, #0
10005dda:	d100      	bne.n	10005dde <tud_task_ext+0x542>
10005ddc:	e5f0      	b.n	100059c0 <tud_task_ext+0x124>
10005dde:	e000      	b.n	10005de2 <tud_task_ext+0x546>
10005de0:	bf00      	nop
10005de2:	1e02      	subs	r2, r0, #0
10005de4:	d100      	bne.n	10005de8 <tud_task_ext+0x54c>
10005de6:	e5eb      	b.n	100059c0 <tud_task_ext+0x124>
10005de8:	4650      	mov	r0, sl
10005dea:	7813      	ldrb	r3, [r2, #0]
10005dec:	a908      	add	r1, sp, #32
10005dee:	f000 fa71 	bl	100062d4 <tud_control_xfer>
10005df2:	e6a5      	b.n	10005b40 <tud_task_ext+0x2a4>
10005df4:	8921      	ldrh	r1, [r4, #8]
10005df6:	f7ff fa01 	bl	100051fc <tud_descriptor_string_cb>
10005dfa:	1e02      	subs	r2, r0, #0
10005dfc:	d1f4      	bne.n	10005de8 <tud_task_ext+0x54c>
10005dfe:	e5df      	b.n	100059c0 <tud_task_ext+0x124>
10005e00:	2b02      	cmp	r3, #2
10005e02:	d100      	bne.n	10005e06 <tud_task_ext+0x56a>
10005e04:	e112      	b.n	1000602c <tud_task_ext+0x790>
10005e06:	4b3c      	ldr	r3, [pc, #240]	; (10005ef8 <tud_task_ext+0x65c>)
10005e08:	2b00      	cmp	r3, #0
10005e0a:	d100      	bne.n	10005e0e <tud_task_ext+0x572>
10005e0c:	e5d8      	b.n	100059c0 <tud_task_ext+0x124>
10005e0e:	e000      	b.n	10005e12 <tud_task_ext+0x576>
10005e10:	bf00      	nop
10005e12:	0002      	movs	r2, r0
10005e14:	2a00      	cmp	r2, #0
10005e16:	d100      	bne.n	10005e1a <tud_task_ext+0x57e>
10005e18:	e5d2      	b.n	100059c0 <tud_task_ext+0x124>
10005e1a:	e7d3      	b.n	10005dc4 <tud_task_ext+0x528>
10005e1c:	f7ff f9e6 	bl	100051ec <tud_descriptor_device_cb>
10005e20:	2312      	movs	r3, #18
10005e22:	0002      	movs	r2, r0
10005e24:	a908      	add	r1, sp, #32
10005e26:	4650      	mov	r0, sl
10005e28:	f000 fa54 	bl	100062d4 <tud_control_xfer>
10005e2c:	e688      	b.n	10005b40 <tud_task_ext+0x2a4>
10005e2e:	482d      	ldr	r0, [pc, #180]	; (10005ee4 <tud_task_ext+0x648>)
10005e30:	4f2d      	ldr	r7, [pc, #180]	; (10005ee8 <tud_task_ext+0x64c>)
10005e32:	e75a      	b.n	10005cea <tud_task_ext+0x44e>
10005e34:	88e2      	ldrh	r2, [r4, #6]
10005e36:	2a00      	cmp	r2, #0
10005e38:	d108      	bne.n	10005e4c <tud_task_ext+0x5b0>
10005e3a:	4642      	mov	r2, r8
10005e3c:	445b      	add	r3, fp
10005e3e:	199e      	adds	r6, r3, r6
10005e40:	3630      	adds	r6, #48	; 0x30
10005e42:	78f3      	ldrb	r3, [r6, #3]
10005e44:	2a01      	cmp	r2, #1
10005e46:	d021      	beq.n	10005e8c <tud_task_ext+0x5f0>
10005e48:	079b      	lsls	r3, r3, #30
10005e4a:	d52e      	bpl.n	10005eaa <tud_task_ext+0x60e>
10005e4c:	2f00      	cmp	r7, #0
10005e4e:	d100      	bne.n	10005e52 <tud_task_ext+0x5b6>
10005e50:	e536      	b.n	100058c0 <tud_task_ext+0x24>
10005e52:	68f8      	ldr	r0, [r7, #12]
10005e54:	f000 faa6 	bl	100063a4 <usbd_control_set_complete_callback>
10005e58:	68fb      	ldr	r3, [r7, #12]
10005e5a:	aa08      	add	r2, sp, #32
10005e5c:	2101      	movs	r1, #1
10005e5e:	4650      	mov	r0, sl
10005e60:	4798      	blx	r3
10005e62:	2000      	movs	r0, #0
10005e64:	f000 fa9e 	bl	100063a4 <usbd_control_set_complete_callback>
10005e68:	2334      	movs	r3, #52	; 0x34
10005e6a:	465a      	mov	r2, fp
10005e6c:	5cd3      	ldrb	r3, [r2, r3]
10005e6e:	07db      	lsls	r3, r3, #31
10005e70:	d500      	bpl.n	10005e74 <tud_task_ext+0x5d8>
10005e72:	e525      	b.n	100058c0 <tud_task_ext+0x24>
10005e74:	e705      	b.n	10005c82 <tud_task_ext+0x3e6>
10005e76:	4a18      	ldr	r2, [pc, #96]	; (10005ed8 <tud_task_ext+0x63c>)
10005e78:	005e      	lsls	r6, r3, #1
10005e7a:	18f3      	adds	r3, r6, r3
10005e7c:	6816      	ldr	r6, [r2, #0]
10005e7e:	00db      	lsls	r3, r3, #3
10005e80:	18f6      	adds	r6, r6, r3
10005e82:	2e00      	cmp	r6, #0
10005e84:	d100      	bne.n	10005e88 <tud_task_ext+0x5ec>
10005e86:	e59b      	b.n	100059c0 <tud_task_ext+0x124>
10005e88:	68f0      	ldr	r0, [r6, #12]
10005e8a:	e714      	b.n	10005cb6 <tud_task_ext+0x41a>
10005e8c:	079b      	lsls	r3, r3, #30
10005e8e:	d5dd      	bpl.n	10005e4c <tud_task_ext+0x5b0>
10005e90:	4b1a      	ldr	r3, [pc, #104]	; (10005efc <tud_task_ext+0x660>)
10005e92:	7818      	ldrb	r0, [r3, #0]
10005e94:	f7ff fc10 	bl	100056b8 <dcd_edpt_clear_stall>
10005e98:	2202      	movs	r2, #2
10005e9a:	78f3      	ldrb	r3, [r6, #3]
10005e9c:	4393      	bics	r3, r2
10005e9e:	4642      	mov	r2, r8
10005ea0:	70f3      	strb	r3, [r6, #3]
10005ea2:	78f3      	ldrb	r3, [r6, #3]
10005ea4:	4393      	bics	r3, r2
10005ea6:	70f3      	strb	r3, [r6, #3]
10005ea8:	e7d0      	b.n	10005e4c <tud_task_ext+0x5b0>
10005eaa:	4b14      	ldr	r3, [pc, #80]	; (10005efc <tud_task_ext+0x660>)
10005eac:	7818      	ldrb	r0, [r3, #0]
10005eae:	f7ff fbe7 	bl	10005680 <dcd_edpt_stall>
10005eb2:	2202      	movs	r2, #2
10005eb4:	78f3      	ldrb	r3, [r6, #3]
10005eb6:	4313      	orrs	r3, r2
10005eb8:	2201      	movs	r2, #1
10005eba:	70f3      	strb	r3, [r6, #3]
10005ebc:	78f3      	ldrb	r3, [r6, #3]
10005ebe:	4313      	orrs	r3, r2
10005ec0:	70f3      	strb	r3, [r6, #3]
10005ec2:	e7c3      	b.n	10005e4c <tud_task_ext+0x5b0>
10005ec4:	ab06      	add	r3, sp, #24
10005ec6:	1c9a      	adds	r2, r3, #2
10005ec8:	4650      	mov	r0, sl
10005eca:	2301      	movs	r3, #1
10005ecc:	a908      	add	r1, sp, #32
10005ece:	7016      	strb	r6, [r2, #0]
10005ed0:	f000 fa00 	bl	100062d4 <tud_control_xfer>
10005ed4:	e4f4      	b.n	100058c0 <tud_task_ext+0x24>
10005ed6:	46c0      	nop			; (mov r8, r8)
10005ed8:	20001244 	.word	0x20001244
10005edc:	10004e01 	.word	0x10004e01
10005ee0:	20001cb4 	.word	0x20001cb4
10005ee4:	100067d5 	.word	0x100067d5
10005ee8:	100076b0 	.word	0x100076b0
10005eec:	10007670 	.word	0x10007670
	...
10005efc:	20000efc 	.word	0x20000efc
10005f00:	1e58      	subs	r0, r3, #1
10005f02:	b2c0      	uxtb	r0, r0
10005f04:	f7ff f976 	bl	100051f4 <tud_descriptor_configuration_cb>
10005f08:	2800      	cmp	r0, #0
10005f0a:	d100      	bne.n	10005f0e <tud_task_ext+0x672>
10005f0c:	e558      	b.n	100059c0 <tud_task_ext+0x124>
10005f0e:	7843      	ldrb	r3, [r0, #1]
10005f10:	9305      	str	r3, [sp, #20]
10005f12:	2b02      	cmp	r3, #2
10005f14:	d000      	beq.n	10005f18 <tud_task_ext+0x67c>
10005f16:	e553      	b.n	100059c0 <tud_task_ext+0x124>
10005f18:	2101      	movs	r1, #1
10005f1a:	79c2      	ldrb	r2, [r0, #7]
10005f1c:	0007      	movs	r7, r0
10005f1e:	1193      	asrs	r3, r2, #6
10005f20:	1152      	asrs	r2, r2, #5
10005f22:	400b      	ands	r3, r1
10005f24:	400a      	ands	r2, r1
10005f26:	0112      	lsls	r2, r2, #4
10005f28:	015b      	lsls	r3, r3, #5
10005f2a:	4313      	orrs	r3, r2
10005f2c:	465a      	mov	r2, fp
10005f2e:	7812      	ldrb	r2, [r2, #0]
10005f30:	312f      	adds	r1, #47	; 0x2f
10005f32:	438a      	bics	r2, r1
10005f34:	4313      	orrs	r3, r2
10005f36:	465a      	mov	r2, fp
10005f38:	7013      	strb	r3, [r2, #0]
10005f3a:	78c3      	ldrb	r3, [r0, #3]
10005f3c:	7882      	ldrb	r2, [r0, #2]
10005f3e:	021b      	lsls	r3, r3, #8
10005f40:	4313      	orrs	r3, r2
10005f42:	18c3      	adds	r3, r0, r3
10005f44:	3709      	adds	r7, #9
10005f46:	9303      	str	r3, [sp, #12]
10005f48:	9b03      	ldr	r3, [sp, #12]
10005f4a:	42bb      	cmp	r3, r7
10005f4c:	d800      	bhi.n	10005f50 <tud_task_ext+0x6b4>
10005f4e:	e0ac      	b.n	100060aa <tud_task_ext+0x80e>
10005f50:	2201      	movs	r2, #1
10005f52:	787b      	ldrb	r3, [r7, #1]
10005f54:	9200      	str	r2, [sp, #0]
10005f56:	2b0b      	cmp	r3, #11
10005f58:	d103      	bne.n	10005f62 <tud_task_ext+0x6c6>
10005f5a:	78fb      	ldrb	r3, [r7, #3]
10005f5c:	9300      	str	r3, [sp, #0]
10005f5e:	783b      	ldrb	r3, [r7, #0]
10005f60:	18ff      	adds	r7, r7, r3
10005f62:	787b      	ldrb	r3, [r7, #1]
10005f64:	2b04      	cmp	r3, #4
10005f66:	d000      	beq.n	10005f6a <tud_task_ext+0x6ce>
10005f68:	e52a      	b.n	100059c0 <tud_task_ext+0x124>
10005f6a:	2600      	movs	r6, #0
10005f6c:	9b03      	ldr	r3, [sp, #12]
10005f6e:	4a58      	ldr	r2, [pc, #352]	; (100060d0 <tud_task_ext+0x834>)
10005f70:	1bdb      	subs	r3, r3, r7
10005f72:	b29b      	uxth	r3, r3
10005f74:	9302      	str	r3, [sp, #8]
10005f76:	4b57      	ldr	r3, [pc, #348]	; (100060d4 <tud_task_ext+0x838>)
10005f78:	9304      	str	r3, [sp, #16]
10005f7a:	781b      	ldrb	r3, [r3, #0]
10005f7c:	42b2      	cmp	r2, r6
10005f7e:	d063      	beq.n	10006048 <tud_task_ext+0x7ac>
10005f80:	46b8      	mov	r8, r7
10005f82:	42b3      	cmp	r3, r6
10005f84:	d856      	bhi.n	10006034 <tud_task_ext+0x798>
10005f86:	d000      	beq.n	10005f8a <tud_task_ext+0x6ee>
10005f88:	e51a      	b.n	100059c0 <tud_task_ext+0x124>
10005f8a:	4b53      	ldr	r3, [pc, #332]	; (100060d8 <tud_task_ext+0x83c>)
10005f8c:	4f53      	ldr	r7, [pc, #332]	; (100060dc <tud_task_ext+0x840>)
10005f8e:	4641      	mov	r1, r8
10005f90:	4650      	mov	r0, sl
10005f92:	9a02      	ldr	r2, [sp, #8]
10005f94:	4798      	blx	r3
10005f96:	2808      	cmp	r0, #8
10005f98:	d903      	bls.n	10005fa2 <tud_task_ext+0x706>
10005f9a:	9a02      	ldr	r2, [sp, #8]
10005f9c:	4282      	cmp	r2, r0
10005f9e:	d300      	bcc.n	10005fa2 <tud_task_ext+0x706>
10005fa0:	e08a      	b.n	100060b8 <tud_task_ext+0x81c>
10005fa2:	9b04      	ldr	r3, [sp, #16]
10005fa4:	3601      	adds	r6, #1
10005fa6:	781b      	ldrb	r3, [r3, #0]
10005fa8:	b2f6      	uxtb	r6, r6
10005faa:	42b3      	cmp	r3, r6
10005fac:	d2e9      	bcs.n	10005f82 <tud_task_ext+0x6e6>
10005fae:	e507      	b.n	100059c0 <tud_task_ext+0x124>
10005fb0:	4650      	mov	r0, sl
10005fb2:	f7ff fb4f 	bl	10005654 <dcd_edpt_close_all>
10005fb6:	78b3      	ldrb	r3, [r6, #2]
10005fb8:	4a45      	ldr	r2, [pc, #276]	; (100060d0 <tud_task_ext+0x834>)
10005fba:	9300      	str	r3, [sp, #0]
10005fbc:	4b45      	ldr	r3, [pc, #276]	; (100060d4 <tud_task_ext+0x838>)
10005fbe:	2600      	movs	r6, #0
10005fc0:	4698      	mov	r8, r3
10005fc2:	781b      	ldrb	r3, [r3, #0]
10005fc4:	2a00      	cmp	r2, #0
10005fc6:	d00d      	beq.n	10005fe4 <tud_task_ext+0x748>
10005fc8:	4f45      	ldr	r7, [pc, #276]	; (100060e0 <tud_task_ext+0x844>)
10005fca:	42b3      	cmp	r3, r6
10005fcc:	d825      	bhi.n	1000601a <tud_task_ext+0x77e>
10005fce:	d120      	bne.n	10006012 <tud_task_ext+0x776>
10005fd0:	4b44      	ldr	r3, [pc, #272]	; (100060e4 <tud_task_ext+0x848>)
10005fd2:	4650      	mov	r0, sl
10005fd4:	4798      	blx	r3
10005fd6:	4643      	mov	r3, r8
10005fd8:	3601      	adds	r6, #1
10005fda:	781b      	ldrb	r3, [r3, #0]
10005fdc:	b2f6      	uxtb	r6, r6
10005fde:	42b3      	cmp	r3, r6
10005fe0:	d2f3      	bcs.n	10005fca <tud_task_ext+0x72e>
10005fe2:	e006      	b.n	10005ff2 <tud_task_ext+0x756>
10005fe4:	4650      	mov	r0, sl
10005fe6:	f000 fb6b 	bl	100066c0 <cdcd_reset>
10005fea:	4643      	mov	r3, r8
10005fec:	781b      	ldrb	r3, [r3, #0]
10005fee:	2b00      	cmp	r3, #0
10005ff0:	d10f      	bne.n	10006012 <tud_task_ext+0x776>
10005ff2:	2253      	movs	r2, #83	; 0x53
10005ff4:	2100      	movs	r1, #0
10005ff6:	4658      	mov	r0, fp
10005ff8:	f7fe fc96 	bl	10004928 <__wrap_memset>
10005ffc:	465b      	mov	r3, fp
10005ffe:	2210      	movs	r2, #16
10006000:	21ff      	movs	r1, #255	; 0xff
10006002:	1cd8      	adds	r0, r3, #3
10006004:	f7fe fc90 	bl	10004928 <__wrap_memset>
10006008:	2220      	movs	r2, #32
1000600a:	21ff      	movs	r1, #255	; 0xff
1000600c:	4836      	ldr	r0, [pc, #216]	; (100060e8 <tud_task_ext+0x84c>)
1000600e:	f7fe fc8b 	bl	10004928 <__wrap_memset>
10006012:	465b      	mov	r3, fp
10006014:	9a00      	ldr	r2, [sp, #0]
10006016:	709a      	strb	r2, [r3, #2]
10006018:	e683      	b.n	10005d22 <tud_task_ext+0x486>
1000601a:	2318      	movs	r3, #24
1000601c:	683a      	ldr	r2, [r7, #0]
1000601e:	4373      	muls	r3, r6
10006020:	4694      	mov	ip, r2
10006022:	4463      	add	r3, ip
10006024:	2b00      	cmp	r3, #0
10006026:	d0f4      	beq.n	10006012 <tud_task_ext+0x776>
10006028:	685b      	ldr	r3, [r3, #4]
1000602a:	e7d2      	b.n	10005fd2 <tud_task_ext+0x736>
1000602c:	f7ff f8e2 	bl	100051f4 <tud_descriptor_configuration_cb>
10006030:	0002      	movs	r2, r0
10006032:	e6ef      	b.n	10005e14 <tud_task_ext+0x578>
10006034:	4b2a      	ldr	r3, [pc, #168]	; (100060e0 <tud_task_ext+0x844>)
10006036:	681f      	ldr	r7, [r3, #0]
10006038:	2318      	movs	r3, #24
1000603a:	4373      	muls	r3, r6
1000603c:	18ff      	adds	r7, r7, r3
1000603e:	2f00      	cmp	r7, #0
10006040:	d100      	bne.n	10006044 <tud_task_ext+0x7a8>
10006042:	e4bd      	b.n	100059c0 <tud_task_ext+0x124>
10006044:	68bb      	ldr	r3, [r7, #8]
10006046:	e7a2      	b.n	10005f8e <tud_task_ext+0x6f2>
10006048:	9b02      	ldr	r3, [sp, #8]
1000604a:	0039      	movs	r1, r7
1000604c:	001a      	movs	r2, r3
1000604e:	4650      	mov	r0, sl
10006050:	4698      	mov	r8, r3
10006052:	f000 fb4b 	bl	100066ec <cdcd_open>
10006056:	2808      	cmp	r0, #8
10006058:	d800      	bhi.n	1000605c <tud_task_ext+0x7c0>
1000605a:	e4b1      	b.n	100059c0 <tud_task_ext+0x124>
1000605c:	4642      	mov	r2, r8
1000605e:	4282      	cmp	r2, r0
10006060:	d200      	bcs.n	10006064 <tud_task_ext+0x7c8>
10006062:	e4ad      	b.n	100059c0 <tud_task_ext+0x124>
10006064:	4b1d      	ldr	r3, [pc, #116]	; (100060dc <tud_task_ext+0x840>)
10006066:	4698      	mov	r8, r3
10006068:	9b00      	ldr	r3, [sp, #0]
1000606a:	2b01      	cmp	r3, #1
1000606c:	d028      	beq.n	100060c0 <tud_task_ext+0x824>
1000606e:	2200      	movs	r2, #0
10006070:	e00a      	b.n	10006088 <tud_task_ext+0x7ec>
10006072:	78bb      	ldrb	r3, [r7, #2]
10006074:	18d3      	adds	r3, r2, r3
10006076:	b2db      	uxtb	r3, r3
10006078:	445b      	add	r3, fp
1000607a:	78d9      	ldrb	r1, [r3, #3]
1000607c:	29ff      	cmp	r1, #255	; 0xff
1000607e:	d000      	beq.n	10006082 <tud_task_ext+0x7e6>
10006080:	e49e      	b.n	100059c0 <tud_task_ext+0x124>
10006082:	3201      	adds	r2, #1
10006084:	70de      	strb	r6, [r3, #3]
10006086:	b2d2      	uxtb	r2, r2
10006088:	9b00      	ldr	r3, [sp, #0]
1000608a:	429a      	cmp	r2, r3
1000608c:	d1f1      	bne.n	10006072 <tud_task_ext+0x7d6>
1000608e:	4680      	mov	r8, r0
10006090:	0033      	movs	r3, r6
10006092:	0002      	movs	r2, r0
10006094:	0039      	movs	r1, r7
10006096:	4814      	ldr	r0, [pc, #80]	; (100060e8 <tud_task_ext+0x84c>)
10006098:	f000 fd3c 	bl	10006b14 <tu_edpt_bind_driver>
1000609c:	9b04      	ldr	r3, [sp, #16]
1000609e:	4447      	add	r7, r8
100060a0:	781b      	ldrb	r3, [r3, #0]
100060a2:	42b3      	cmp	r3, r6
100060a4:	d300      	bcc.n	100060a8 <tud_task_ext+0x80c>
100060a6:	e74f      	b.n	10005f48 <tud_task_ext+0x6ac>
100060a8:	e48a      	b.n	100059c0 <tud_task_ext+0x124>
100060aa:	4b10      	ldr	r3, [pc, #64]	; (100060ec <tud_task_ext+0x850>)
100060ac:	2b00      	cmp	r3, #0
100060ae:	d100      	bne.n	100060b2 <tud_task_ext+0x816>
100060b0:	e63b      	b.n	10005d2a <tud_task_ext+0x48e>
100060b2:	e000      	b.n	100060b6 <tud_task_ext+0x81a>
100060b4:	bf00      	nop
100060b6:	e638      	b.n	10005d2a <tud_task_ext+0x48e>
100060b8:	003b      	movs	r3, r7
100060ba:	4647      	mov	r7, r8
100060bc:	4698      	mov	r8, r3
100060be:	e7d3      	b.n	10006068 <tud_task_ext+0x7cc>
100060c0:	4642      	mov	r2, r8
100060c2:	4b05      	ldr	r3, [pc, #20]	; (100060d8 <tud_task_ext+0x83c>)
100060c4:	6892      	ldr	r2, [r2, #8]
100060c6:	429a      	cmp	r2, r3
100060c8:	d1d1      	bne.n	1000606e <tud_task_ext+0x7d2>
100060ca:	9b05      	ldr	r3, [sp, #20]
100060cc:	9300      	str	r3, [sp, #0]
100060ce:	e7ce      	b.n	1000606e <tud_task_ext+0x7d2>
100060d0:	10004e01 	.word	0x10004e01
100060d4:	20001cb4 	.word	0x20001cb4
100060d8:	100066ed 	.word	0x100066ed
100060dc:	100076b0 	.word	0x100076b0
100060e0:	20001244 	.word	0x20001244
100060e4:	100066c1 	.word	0x100066c1
100060e8:	2000157f 	.word	0x2000157f
100060ec:	00000000 	.word	0x00000000

100060f0 <usbd_open_edpt_pair>:
100060f0:	b5f8      	push	{r3, r4, r5, r6, r7, lr}
100060f2:	4657      	mov	r7, sl
100060f4:	464e      	mov	r6, r9
100060f6:	46de      	mov	lr, fp
100060f8:	4645      	mov	r5, r8
100060fa:	000c      	movs	r4, r1
100060fc:	b5e0      	push	{r5, r6, r7, lr}
100060fe:	0016      	movs	r6, r2
10006100:	001f      	movs	r7, r3
10006102:	2a00      	cmp	r2, #0
10006104:	d03c      	beq.n	10006180 <usbd_open_edpt_pair+0x90>
10006106:	2370      	movs	r3, #112	; 0x70
10006108:	4698      	mov	r8, r3
1000610a:	4b1e      	ldr	r3, [pc, #120]	; (10006184 <usbd_open_edpt_pair+0x94>)
1000610c:	2500      	movs	r5, #0
1000610e:	469b      	mov	fp, r3
10006110:	4b1d      	ldr	r3, [pc, #116]	; (10006188 <usbd_open_edpt_pair+0x98>)
10006112:	469a      	mov	sl, r3
10006114:	e01a      	b.n	1000614c <usbd_open_edpt_pair+0x5c>
10006116:	465b      	mov	r3, fp
10006118:	781b      	ldrb	r3, [r3, #0]
1000611a:	0020      	movs	r0, r4
1000611c:	4699      	mov	r9, r3
1000611e:	4653      	mov	r3, sl
10006120:	7899      	ldrb	r1, [r3, #2]
10006122:	f000 fcbb 	bl	10006a9c <tu_edpt_validate>
10006126:	2800      	cmp	r0, #0
10006128:	d01c      	beq.n	10006164 <usbd_open_edpt_pair+0x74>
1000612a:	0021      	movs	r1, r4
1000612c:	4648      	mov	r0, r9
1000612e:	f7ff fa0d 	bl	1000554c <dcd_edpt_open>
10006132:	2800      	cmp	r0, #0
10006134:	d016      	beq.n	10006164 <usbd_open_edpt_pair+0x74>
10006136:	78a3      	ldrb	r3, [r4, #2]
10006138:	09da      	lsrs	r2, r3, #7
1000613a:	2a01      	cmp	r2, #1
1000613c:	d019      	beq.n	10006172 <usbd_open_edpt_pair+0x82>
1000613e:	9a0a      	ldr	r2, [sp, #40]	; 0x28
10006140:	3501      	adds	r5, #1
10006142:	7013      	strb	r3, [r2, #0]
10006144:	7823      	ldrb	r3, [r4, #0]
10006146:	18e4      	adds	r4, r4, r3
10006148:	42b5      	cmp	r5, r6
1000614a:	da19      	bge.n	10006180 <usbd_open_edpt_pair+0x90>
1000614c:	7863      	ldrb	r3, [r4, #1]
1000614e:	2b05      	cmp	r3, #5
10006150:	d108      	bne.n	10006164 <usbd_open_edpt_pair+0x74>
10006152:	78e3      	ldrb	r3, [r4, #3]
10006154:	079b      	lsls	r3, r3, #30
10006156:	0f9b      	lsrs	r3, r3, #30
10006158:	42bb      	cmp	r3, r7
1000615a:	d103      	bne.n	10006164 <usbd_open_edpt_pair+0x74>
1000615c:	4642      	mov	r2, r8
1000615e:	78a3      	ldrb	r3, [r4, #2]
10006160:	421a      	tst	r2, r3
10006162:	d0d8      	beq.n	10006116 <usbd_open_edpt_pair+0x26>
10006164:	2000      	movs	r0, #0
10006166:	bcf0      	pop	{r4, r5, r6, r7}
10006168:	46bb      	mov	fp, r7
1000616a:	46b2      	mov	sl, r6
1000616c:	46a9      	mov	r9, r5
1000616e:	46a0      	mov	r8, r4
10006170:	bdf8      	pop	{r3, r4, r5, r6, r7, pc}
10006172:	9a0b      	ldr	r2, [sp, #44]	; 0x2c
10006174:	3501      	adds	r5, #1
10006176:	7013      	strb	r3, [r2, #0]
10006178:	7823      	ldrb	r3, [r4, #0]
1000617a:	18e4      	adds	r4, r4, r3
1000617c:	42b5      	cmp	r5, r6
1000617e:	dbe5      	blt.n	1000614c <usbd_open_edpt_pair+0x5c>
10006180:	2001      	movs	r0, #1
10006182:	e7f0      	b.n	10006166 <usbd_open_edpt_pair+0x76>
10006184:	20000efc 	.word	0x20000efc
10006188:	2000156c 	.word	0x2000156c

1000618c <usbd_defer_func>:
1000618c:	2380      	movs	r3, #128	; 0x80
1000618e:	b510      	push	{r4, lr}
10006190:	011b      	lsls	r3, r3, #4
10006192:	b084      	sub	sp, #16
10006194:	9301      	str	r3, [sp, #4]
10006196:	4b0e      	ldr	r3, [pc, #56]	; (100061d0 <usbd_defer_func+0x44>)
10006198:	9002      	str	r0, [sp, #8]
1000619a:	681c      	ldr	r4, [r3, #0]
1000619c:	9103      	str	r1, [sp, #12]
1000619e:	6962      	ldr	r2, [r4, #20]
100061a0:	f3ef 8310 	mrs	r3, PRIMASK
100061a4:	b672      	cpsid	i
100061a6:	6811      	ldr	r1, [r2, #0]
100061a8:	2900      	cmp	r1, #0
100061aa:	d0fc      	beq.n	100061a6 <usbd_defer_func+0x1a>
100061ac:	f3bf 8f5f 	dmb	sy
100061b0:	61a3      	str	r3, [r4, #24]
100061b2:	0020      	movs	r0, r4
100061b4:	a901      	add	r1, sp, #4
100061b6:	f000 fdf9 	bl	10006dac <tu_fifo_write>
100061ba:	6962      	ldr	r2, [r4, #20]
100061bc:	69a3      	ldr	r3, [r4, #24]
100061be:	f3bf 8f5f 	dmb	sy
100061c2:	2100      	movs	r1, #0
100061c4:	6011      	str	r1, [r2, #0]
100061c6:	f383 8810 	msr	PRIMASK, r3
100061ca:	b004      	add	sp, #16
100061cc:	bd10      	pop	{r4, pc}
100061ce:	46c0      	nop			; (mov r8, r8)
100061d0:	200015c4 	.word	0x200015c4

100061d4 <usbd_edpt_open>:
100061d4:	2270      	movs	r2, #112	; 0x70
100061d6:	b570      	push	{r4, r5, r6, lr}
100061d8:	788b      	ldrb	r3, [r1, #2]
100061da:	000c      	movs	r4, r1
100061dc:	421a      	tst	r2, r3
100061de:	d001      	beq.n	100061e4 <usbd_edpt_open+0x10>
100061e0:	2000      	movs	r0, #0
100061e2:	bd70      	pop	{r4, r5, r6, pc}
100061e4:	4b06      	ldr	r3, [pc, #24]	; (10006200 <usbd_edpt_open+0x2c>)
100061e6:	0020      	movs	r0, r4
100061e8:	781d      	ldrb	r5, [r3, #0]
100061ea:	4b06      	ldr	r3, [pc, #24]	; (10006204 <usbd_edpt_open+0x30>)
100061ec:	7899      	ldrb	r1, [r3, #2]
100061ee:	f000 fc55 	bl	10006a9c <tu_edpt_validate>
100061f2:	2800      	cmp	r0, #0
100061f4:	d0f4      	beq.n	100061e0 <usbd_edpt_open+0xc>
100061f6:	0021      	movs	r1, r4
100061f8:	0028      	movs	r0, r5
100061fa:	f7ff f9a7 	bl	1000554c <dcd_edpt_open>
100061fe:	e7f0      	b.n	100061e2 <usbd_edpt_open+0xe>
10006200:	20000efc 	.word	0x20000efc
10006204:	2000156c 	.word	0x2000156c

10006208 <usbd_edpt_claim>:
10006208:	4b07      	ldr	r3, [pc, #28]	; (10006228 <usbd_edpt_claim+0x20>)
1000620a:	0008      	movs	r0, r1
1000620c:	6819      	ldr	r1, [r3, #0]
1000620e:	237f      	movs	r3, #127	; 0x7f
10006210:	b510      	push	{r4, lr}
10006212:	4003      	ands	r3, r0
10006214:	09c0      	lsrs	r0, r0, #7
10006216:	005b      	lsls	r3, r3, #1
10006218:	3033      	adds	r0, #51	; 0x33
1000621a:	1818      	adds	r0, r3, r0
1000621c:	4b03      	ldr	r3, [pc, #12]	; (1000622c <usbd_edpt_claim+0x24>)
1000621e:	1818      	adds	r0, r3, r0
10006220:	f000 fbf8 	bl	10006a14 <tu_edpt_claim>
10006224:	bd10      	pop	{r4, pc}
10006226:	46c0      	nop			; (mov r8, r8)
10006228:	200015c0 	.word	0x200015c0
1000622c:	2000156c 	.word	0x2000156c

10006230 <usbd_edpt_release>:
10006230:	4b07      	ldr	r3, [pc, #28]	; (10006250 <usbd_edpt_release+0x20>)
10006232:	0008      	movs	r0, r1
10006234:	6819      	ldr	r1, [r3, #0]
10006236:	237f      	movs	r3, #127	; 0x7f
10006238:	b510      	push	{r4, lr}
1000623a:	4003      	ands	r3, r0
1000623c:	09c0      	lsrs	r0, r0, #7
1000623e:	005b      	lsls	r3, r3, #1
10006240:	3033      	adds	r0, #51	; 0x33
10006242:	1818      	adds	r0, r3, r0
10006244:	4b03      	ldr	r3, [pc, #12]	; (10006254 <usbd_edpt_release+0x24>)
10006246:	1818      	adds	r0, r3, r0
10006248:	f000 fc0c 	bl	10006a64 <tu_edpt_release>
1000624c:	bd10      	pop	{r4, pc}
1000624e:	46c0      	nop			; (mov r8, r8)
10006250:	200015c0 	.word	0x200015c0
10006254:	2000156c 	.word	0x2000156c

10006258 <usbd_edpt_xfer>:
10006258:	207f      	movs	r0, #127	; 0x7f
1000625a:	b570      	push	{r4, r5, r6, lr}
1000625c:	4008      	ands	r0, r1
1000625e:	4c0f      	ldr	r4, [pc, #60]	; (1000629c <usbd_edpt_xfer+0x44>)
10006260:	0040      	lsls	r0, r0, #1
10006262:	09cd      	lsrs	r5, r1, #7
10006264:	1824      	adds	r4, r4, r0
10006266:	1964      	adds	r4, r4, r5
10006268:	3430      	adds	r4, #48	; 0x30
1000626a:	78e5      	ldrb	r5, [r4, #3]
1000626c:	2000      	movs	r0, #0
1000626e:	07ed      	lsls	r5, r5, #31
10006270:	d500      	bpl.n	10006274 <usbd_edpt_xfer+0x1c>
10006272:	bd70      	pop	{r4, r5, r6, pc}
10006274:	2601      	movs	r6, #1
10006276:	78e5      	ldrb	r5, [r4, #3]
10006278:	4809      	ldr	r0, [pc, #36]	; (100062a0 <usbd_edpt_xfer+0x48>)
1000627a:	4335      	orrs	r5, r6
1000627c:	7800      	ldrb	r0, [r0, #0]
1000627e:	70e5      	strb	r5, [r4, #3]
10006280:	f7ff f9ec 	bl	1000565c <dcd_edpt_xfer>
10006284:	2800      	cmp	r0, #0
10006286:	d1f4      	bne.n	10006272 <usbd_edpt_xfer+0x1a>
10006288:	2201      	movs	r2, #1
1000628a:	78e3      	ldrb	r3, [r4, #3]
1000628c:	4393      	bics	r3, r2
1000628e:	70e3      	strb	r3, [r4, #3]
10006290:	78e3      	ldrb	r3, [r4, #3]
10006292:	3203      	adds	r2, #3
10006294:	4393      	bics	r3, r2
10006296:	70e3      	strb	r3, [r4, #3]
10006298:	e7eb      	b.n	10006272 <usbd_edpt_xfer+0x1a>
1000629a:	46c0      	nop			; (mov r8, r8)
1000629c:	2000156c 	.word	0x2000156c
100062a0:	20000efc 	.word	0x20000efc

100062a4 <tud_control_status>:
100062a4:	b570      	push	{r4, r5, r6, lr}
100062a6:	4e0a      	ldr	r6, [pc, #40]	; (100062d0 <tud_control_status+0x2c>)
100062a8:	0005      	movs	r5, r0
100062aa:	0030      	movs	r0, r6
100062ac:	2208      	movs	r2, #8
100062ae:	000c      	movs	r4, r1
100062b0:	f7fe fb40 	bl	10004934 <__wrap___aeabi_memcpy>
100062b4:	2300      	movs	r3, #0
100062b6:	217f      	movs	r1, #127	; 0x7f
100062b8:	60f3      	str	r3, [r6, #12]
100062ba:	7822      	ldrb	r2, [r4, #0]
100062bc:	60b3      	str	r3, [r6, #8]
100062be:	4291      	cmp	r1, r2
100062c0:	415b      	adcs	r3, r3
100062c2:	0028      	movs	r0, r5
100062c4:	01d9      	lsls	r1, r3, #7
100062c6:	2200      	movs	r2, #0
100062c8:	2300      	movs	r3, #0
100062ca:	f7ff ffc5 	bl	10006258 <usbd_edpt_xfer>
100062ce:	bd70      	pop	{r4, r5, r6, pc}
100062d0:	20001510 	.word	0x20001510

100062d4 <tud_control_xfer>:
100062d4:	b5f8      	push	{r3, r4, r5, r6, r7, lr}
100062d6:	46ce      	mov	lr, r9
100062d8:	4647      	mov	r7, r8
100062da:	4691      	mov	r9, r2
100062dc:	4e2a      	ldr	r6, [pc, #168]	; (10006388 <tud_control_xfer+0xb4>)
100062de:	b580      	push	{r7, lr}
100062e0:	2208      	movs	r2, #8
100062e2:	0007      	movs	r7, r0
100062e4:	0030      	movs	r0, r6
100062e6:	000d      	movs	r5, r1
100062e8:	4698      	mov	r8, r3
100062ea:	f7fe fb23 	bl	10004934 <__wrap___aeabi_memcpy>
100062ee:	464b      	mov	r3, r9
100062f0:	60b3      	str	r3, [r6, #8]
100062f2:	2300      	movs	r3, #0
100062f4:	81f3      	strh	r3, [r6, #14]
100062f6:	79ec      	ldrb	r4, [r5, #7]
100062f8:	79a9      	ldrb	r1, [r5, #6]
100062fa:	0224      	lsls	r4, r4, #8
100062fc:	430c      	orrs	r4, r1
100062fe:	1c23      	adds	r3, r4, #0
10006300:	4544      	cmp	r4, r8
10006302:	d900      	bls.n	10006306 <tud_control_xfer+0x32>
10006304:	4643      	mov	r3, r8
10006306:	b29a      	uxth	r2, r3
10006308:	4690      	mov	r8, r2
1000630a:	81b3      	strh	r3, [r6, #12]
1000630c:	2c00      	cmp	r4, #0
1000630e:	d013      	beq.n	10006338 <tud_control_xfer+0x64>
10006310:	2a00      	cmp	r2, #0
10006312:	d01f      	beq.n	10006354 <tud_control_xfer+0x80>
10006314:	464b      	mov	r3, r9
10006316:	2b00      	cmp	r3, #0
10006318:	d034      	beq.n	10006384 <tud_control_xfer+0xb0>
1000631a:	1c13      	adds	r3, r2, #0
1000631c:	2a40      	cmp	r2, #64	; 0x40
1000631e:	d81f      	bhi.n	10006360 <tud_control_xfer+0x8c>
10006320:	b29b      	uxth	r3, r3
10006322:	4698      	mov	r8, r3
10006324:	7833      	ldrb	r3, [r6, #0]
10006326:	2b7f      	cmp	r3, #127	; 0x7f
10006328:	d820      	bhi.n	1000636c <tud_control_xfer+0x98>
1000632a:	2100      	movs	r1, #0
1000632c:	4a17      	ldr	r2, [pc, #92]	; (1000638c <tud_control_xfer+0xb8>)
1000632e:	4643      	mov	r3, r8
10006330:	0038      	movs	r0, r7
10006332:	f7ff ff91 	bl	10006258 <usbd_edpt_xfer>
10006336:	e009      	b.n	1000634c <tud_control_xfer+0x78>
10006338:	227f      	movs	r2, #127	; 0x7f
1000633a:	782b      	ldrb	r3, [r5, #0]
1000633c:	0038      	movs	r0, r7
1000633e:	429a      	cmp	r2, r3
10006340:	4164      	adcs	r4, r4
10006342:	2300      	movs	r3, #0
10006344:	2200      	movs	r2, #0
10006346:	01e1      	lsls	r1, r4, #7
10006348:	f7ff ff86 	bl	10006258 <usbd_edpt_xfer>
1000634c:	bcc0      	pop	{r6, r7}
1000634e:	46b9      	mov	r9, r7
10006350:	46b0      	mov	r8, r6
10006352:	bdf8      	pop	{r3, r4, r5, r6, r7, pc}
10006354:	7833      	ldrb	r3, [r6, #0]
10006356:	2b7f      	cmp	r3, #127	; 0x7f
10006358:	d911      	bls.n	1000637e <tud_control_xfer+0xaa>
1000635a:	2180      	movs	r1, #128	; 0x80
1000635c:	2200      	movs	r2, #0
1000635e:	e7e6      	b.n	1000632e <tud_control_xfer+0x5a>
10006360:	2340      	movs	r3, #64	; 0x40
10006362:	b29b      	uxth	r3, r3
10006364:	4698      	mov	r8, r3
10006366:	7833      	ldrb	r3, [r6, #0]
10006368:	2b7f      	cmp	r3, #127	; 0x7f
1000636a:	d9de      	bls.n	1000632a <tud_control_xfer+0x56>
1000636c:	4c07      	ldr	r4, [pc, #28]	; (1000638c <tud_control_xfer+0xb8>)
1000636e:	4642      	mov	r2, r8
10006370:	4649      	mov	r1, r9
10006372:	0020      	movs	r0, r4
10006374:	f7fe fade 	bl	10004934 <__wrap___aeabi_memcpy>
10006378:	2180      	movs	r1, #128	; 0x80
1000637a:	0022      	movs	r2, r4
1000637c:	e7d7      	b.n	1000632e <tud_control_xfer+0x5a>
1000637e:	2100      	movs	r1, #0
10006380:	2200      	movs	r2, #0
10006382:	e7d4      	b.n	1000632e <tud_control_xfer+0x5a>
10006384:	2000      	movs	r0, #0
10006386:	e7e1      	b.n	1000634c <tud_control_xfer+0x78>
10006388:	20001510 	.word	0x20001510
1000638c:	2000152c 	.word	0x2000152c

10006390 <usbd_control_reset>:
10006390:	b510      	push	{r4, lr}
10006392:	2214      	movs	r2, #20
10006394:	2100      	movs	r1, #0
10006396:	4802      	ldr	r0, [pc, #8]	; (100063a0 <usbd_control_reset+0x10>)
10006398:	f7fe fac6 	bl	10004928 <__wrap_memset>
1000639c:	bd10      	pop	{r4, pc}
1000639e:	46c0      	nop			; (mov r8, r8)
100063a0:	20001510 	.word	0x20001510

100063a4 <usbd_control_set_complete_callback>:
100063a4:	4b01      	ldr	r3, [pc, #4]	; (100063ac <usbd_control_set_complete_callback+0x8>)
100063a6:	6118      	str	r0, [r3, #16]
100063a8:	4770      	bx	lr
100063aa:	46c0      	nop			; (mov r8, r8)
100063ac:	20001510 	.word	0x20001510

100063b0 <usbd_control_set_request>:
100063b0:	b510      	push	{r4, lr}
100063b2:	4c05      	ldr	r4, [pc, #20]	; (100063c8 <usbd_control_set_request+0x18>)
100063b4:	0001      	movs	r1, r0
100063b6:	2208      	movs	r2, #8
100063b8:	0020      	movs	r0, r4
100063ba:	f7fe fabb 	bl	10004934 <__wrap___aeabi_memcpy>
100063be:	2300      	movs	r3, #0
100063c0:	60a3      	str	r3, [r4, #8]
100063c2:	60e3      	str	r3, [r4, #12]
100063c4:	bd10      	pop	{r4, pc}
100063c6:	46c0      	nop			; (mov r8, r8)
100063c8:	20001510 	.word	0x20001510

100063cc <usbd_control_xfer_cb>:
100063cc:	b5f8      	push	{r3, r4, r5, r6, r7, lr}
100063ce:	4c3b      	ldr	r4, [pc, #236]	; (100064bc <usbd_control_xfer_cb+0xf0>)
100063d0:	001d      	movs	r5, r3
100063d2:	7823      	ldrb	r3, [r4, #0]
100063d4:	0006      	movs	r6, r0
100063d6:	09da      	lsrs	r2, r3, #7
100063d8:	09c9      	lsrs	r1, r1, #7
100063da:	428a      	cmp	r2, r1
100063dc:	d013      	beq.n	10006406 <usbd_control_xfer_cb+0x3a>
100063de:	2000      	movs	r0, #0
100063e0:	2d00      	cmp	r5, #0
100063e2:	d000      	beq.n	100063e6 <usbd_control_xfer_cb+0x1a>
100063e4:	bdf8      	pop	{r3, r4, r5, r6, r7, pc}
100063e6:	4b36      	ldr	r3, [pc, #216]	; (100064c0 <usbd_control_xfer_cb+0xf4>)
100063e8:	2b00      	cmp	r3, #0
100063ea:	d003      	beq.n	100063f4 <usbd_control_xfer_cb+0x28>
100063ec:	0021      	movs	r1, r4
100063ee:	0030      	movs	r0, r6
100063f0:	f7ff f89e 	bl	10005530 <dcd_edpt0_status_complete>
100063f4:	6923      	ldr	r3, [r4, #16]
100063f6:	2b00      	cmp	r3, #0
100063f8:	d044      	beq.n	10006484 <usbd_control_xfer_cb+0xb8>
100063fa:	0022      	movs	r2, r4
100063fc:	2103      	movs	r1, #3
100063fe:	0030      	movs	r0, r6
10006400:	4798      	blx	r3
10006402:	2001      	movs	r0, #1
10006404:	e7ee      	b.n	100063e4 <usbd_control_xfer_cb+0x18>
10006406:	2b7f      	cmp	r3, #127	; 0x7f
10006408:	d806      	bhi.n	10006418 <usbd_control_xfer_cb+0x4c>
1000640a:	68a0      	ldr	r0, [r4, #8]
1000640c:	2800      	cmp	r0, #0
1000640e:	d037      	beq.n	10006480 <usbd_control_xfer_cb+0xb4>
10006410:	002a      	movs	r2, r5
10006412:	492c      	ldr	r1, [pc, #176]	; (100064c4 <usbd_control_xfer_cb+0xf8>)
10006414:	f7fe fa8e 	bl	10004934 <__wrap___aeabi_memcpy>
10006418:	68a3      	ldr	r3, [r4, #8]
1000641a:	89e2      	ldrh	r2, [r4, #14]
1000641c:	1959      	adds	r1, r3, r5
1000641e:	1952      	adds	r2, r2, r5
10006420:	88e3      	ldrh	r3, [r4, #6]
10006422:	b292      	uxth	r2, r2
10006424:	81e2      	strh	r2, [r4, #14]
10006426:	60a1      	str	r1, [r4, #8]
10006428:	4293      	cmp	r3, r2
1000642a:	d014      	beq.n	10006456 <usbd_control_xfer_cb+0x8a>
1000642c:	2d3f      	cmp	r5, #63	; 0x3f
1000642e:	d912      	bls.n	10006456 <usbd_control_xfer_cb+0x8a>
10006430:	89a5      	ldrh	r5, [r4, #12]
10006432:	1aa8      	subs	r0, r5, r2
10006434:	1c07      	adds	r7, r0, #0
10006436:	b280      	uxth	r0, r0
10006438:	2840      	cmp	r0, #64	; 0x40
1000643a:	d82f      	bhi.n	1000649c <usbd_control_xfer_cb+0xd0>
1000643c:	7823      	ldrb	r3, [r4, #0]
1000643e:	b2bf      	uxth	r7, r7
10006440:	2b7f      	cmp	r3, #127	; 0x7f
10006442:	d82d      	bhi.n	100064a0 <usbd_control_xfer_cb+0xd4>
10006444:	2100      	movs	r1, #0
10006446:	42aa      	cmp	r2, r5
10006448:	d035      	beq.n	100064b6 <usbd_control_xfer_cb+0xea>
1000644a:	4a1e      	ldr	r2, [pc, #120]	; (100064c4 <usbd_control_xfer_cb+0xf8>)
1000644c:	003b      	movs	r3, r7
1000644e:	0030      	movs	r0, r6
10006450:	f7ff ff02 	bl	10006258 <usbd_edpt_xfer>
10006454:	e7c6      	b.n	100063e4 <usbd_control_xfer_cb+0x18>
10006456:	6923      	ldr	r3, [r4, #16]
10006458:	2b00      	cmp	r3, #0
1000645a:	d005      	beq.n	10006468 <usbd_control_xfer_cb+0x9c>
1000645c:	0022      	movs	r2, r4
1000645e:	2102      	movs	r1, #2
10006460:	0030      	movs	r0, r6
10006462:	4798      	blx	r3
10006464:	2800      	cmp	r0, #0
10006466:	d00f      	beq.n	10006488 <usbd_control_xfer_cb+0xbc>
10006468:	227f      	movs	r2, #127	; 0x7f
1000646a:	2100      	movs	r1, #0
1000646c:	7823      	ldrb	r3, [r4, #0]
1000646e:	0030      	movs	r0, r6
10006470:	429a      	cmp	r2, r3
10006472:	4149      	adcs	r1, r1
10006474:	2300      	movs	r3, #0
10006476:	2200      	movs	r2, #0
10006478:	01c9      	lsls	r1, r1, #7
1000647a:	f7ff feed 	bl	10006258 <usbd_edpt_xfer>
1000647e:	e7b1      	b.n	100063e4 <usbd_control_xfer_cb+0x18>
10006480:	2000      	movs	r0, #0
10006482:	e7af      	b.n	100063e4 <usbd_control_xfer_cb+0x18>
10006484:	2001      	movs	r0, #1
10006486:	e7ad      	b.n	100063e4 <usbd_control_xfer_cb+0x18>
10006488:	2100      	movs	r1, #0
1000648a:	0030      	movs	r0, r6
1000648c:	f7ff f8f8 	bl	10005680 <dcd_edpt_stall>
10006490:	0030      	movs	r0, r6
10006492:	2180      	movs	r1, #128	; 0x80
10006494:	f7ff f8f4 	bl	10005680 <dcd_edpt_stall>
10006498:	2001      	movs	r0, #1
1000649a:	e7a3      	b.n	100063e4 <usbd_control_xfer_cb+0x18>
1000649c:	2740      	movs	r7, #64	; 0x40
1000649e:	e7cd      	b.n	1000643c <usbd_control_xfer_cb+0x70>
100064a0:	42aa      	cmp	r2, r5
100064a2:	d007      	beq.n	100064b4 <usbd_control_xfer_cb+0xe8>
100064a4:	4c07      	ldr	r4, [pc, #28]	; (100064c4 <usbd_control_xfer_cb+0xf8>)
100064a6:	003a      	movs	r2, r7
100064a8:	0020      	movs	r0, r4
100064aa:	f7fe fa43 	bl	10004934 <__wrap___aeabi_memcpy>
100064ae:	2180      	movs	r1, #128	; 0x80
100064b0:	0022      	movs	r2, r4
100064b2:	e7cb      	b.n	1000644c <usbd_control_xfer_cb+0x80>
100064b4:	2180      	movs	r1, #128	; 0x80
100064b6:	2200      	movs	r2, #0
100064b8:	e7c8      	b.n	1000644c <usbd_control_xfer_cb+0x80>
100064ba:	46c0      	nop			; (mov r8, r8)
100064bc:	20001510 	.word	0x20001510
100064c0:	10005531 	.word	0x10005531
100064c4:	2000152c 	.word	0x2000152c

100064c8 <tud_cdc_n_connected>:
100064c8:	b510      	push	{r4, lr}
100064ca:	0004      	movs	r4, r0
100064cc:	f7ff f95a 	bl	10005784 <tud_mounted>
100064d0:	2800      	cmp	r0, #0
100064d2:	d101      	bne.n	100064d8 <tud_cdc_n_connected+0x10>
100064d4:	2000      	movs	r0, #0
100064d6:	bd10      	pop	{r4, pc}
100064d8:	f7ff f95c 	bl	10005794 <tud_suspended>
100064dc:	2800      	cmp	r0, #0
100064de:	d1f9      	bne.n	100064d4 <tud_cdc_n_connected+0xc>
100064e0:	20b2      	movs	r0, #178	; 0xb2
100064e2:	0080      	lsls	r0, r0, #2
100064e4:	4344      	muls	r4, r0
100064e6:	4803      	ldr	r0, [pc, #12]	; (100064f4 <tud_cdc_n_connected+0x2c>)
100064e8:	1900      	adds	r0, r0, r4
100064ea:	7903      	ldrb	r3, [r0, #4]
100064ec:	2001      	movs	r0, #1
100064ee:	4018      	ands	r0, r3
100064f0:	e7f1      	b.n	100064d6 <tud_cdc_n_connected+0xe>
100064f2:	46c0      	nop			; (mov r8, r8)
100064f4:	20001248 	.word	0x20001248

100064f8 <tud_cdc_n_available>:
100064f8:	23b2      	movs	r3, #178	; 0xb2
100064fa:	009b      	lsls	r3, r3, #2
100064fc:	4358      	muls	r0, r3
100064fe:	b510      	push	{r4, lr}
10006500:	4b02      	ldr	r3, [pc, #8]	; (1000650c <tud_cdc_n_available+0x14>)
10006502:	3010      	adds	r0, #16
10006504:	18c0      	adds	r0, r0, r3
10006506:	f000 fb57 	bl	10006bb8 <tu_fifo_count>
1000650a:	bd10      	pop	{r4, pc}
1000650c:	20001248 	.word	0x20001248

10006510 <tud_cdc_n_read>:
10006510:	b5f0      	push	{r4, r5, r6, r7, lr}
10006512:	25b2      	movs	r5, #178	; 0xb2
10006514:	00ad      	lsls	r5, r5, #2
10006516:	4345      	muls	r5, r0
10006518:	002c      	movs	r4, r5
1000651a:	46c6      	mov	lr, r8
1000651c:	4f17      	ldr	r7, [pc, #92]	; (1000657c <tud_cdc_n_read+0x6c>)
1000651e:	3410      	adds	r4, #16
10006520:	19e4      	adds	r4, r4, r7
10006522:	b500      	push	{lr}
10006524:	0020      	movs	r0, r4
10006526:	b292      	uxth	r2, r2
10006528:	f000 fbca 	bl	10006cc0 <tu_fifo_read_n>
1000652c:	0006      	movs	r6, r0
1000652e:	0020      	movs	r0, r4
10006530:	f000 fb60 	bl	10006bf4 <tu_fifo_remaining>
10006534:	283f      	cmp	r0, #63	; 0x3f
10006536:	d803      	bhi.n	10006540 <tud_cdc_n_read+0x30>
10006538:	0030      	movs	r0, r6
1000653a:	bc80      	pop	{r7}
1000653c:	46b8      	mov	r8, r7
1000653e:	bdf0      	pop	{r4, r5, r6, r7, pc}
10006540:	197b      	adds	r3, r7, r5
10006542:	2000      	movs	r0, #0
10006544:	78d9      	ldrb	r1, [r3, #3]
10006546:	4698      	mov	r8, r3
10006548:	f7ff fe5e 	bl	10006208 <usbd_edpt_claim>
1000654c:	2800      	cmp	r0, #0
1000654e:	d0f3      	beq.n	10006538 <tud_cdc_n_read+0x28>
10006550:	0020      	movs	r0, r4
10006552:	f000 fb4f 	bl	10006bf4 <tu_fifo_remaining>
10006556:	283f      	cmp	r0, #63	; 0x3f
10006558:	d90a      	bls.n	10006570 <tud_cdc_n_read+0x60>
1000655a:	2392      	movs	r3, #146	; 0x92
1000655c:	009b      	lsls	r3, r3, #2
1000655e:	18ea      	adds	r2, r5, r3
10006560:	4643      	mov	r3, r8
10006562:	19d2      	adds	r2, r2, r7
10006564:	78d9      	ldrb	r1, [r3, #3]
10006566:	2000      	movs	r0, #0
10006568:	2340      	movs	r3, #64	; 0x40
1000656a:	f7ff fe75 	bl	10006258 <usbd_edpt_xfer>
1000656e:	e7e3      	b.n	10006538 <tud_cdc_n_read+0x28>
10006570:	4643      	mov	r3, r8
10006572:	2000      	movs	r0, #0
10006574:	78d9      	ldrb	r1, [r3, #3]
10006576:	f7ff fe5b 	bl	10006230 <usbd_edpt_release>
1000657a:	e7dd      	b.n	10006538 <tud_cdc_n_read+0x28>
1000657c:	20001248 	.word	0x20001248

10006580 <tud_cdc_n_write_flush>:
10006580:	b5f8      	push	{r3, r4, r5, r6, r7, lr}
10006582:	0004      	movs	r4, r0
10006584:	f7ff f8fe 	bl	10005784 <tud_mounted>
10006588:	2800      	cmp	r0, #0
1000658a:	d101      	bne.n	10006590 <tud_cdc_n_write_flush+0x10>
1000658c:	2000      	movs	r0, #0
1000658e:	bdf8      	pop	{r3, r4, r5, r6, r7, pc}
10006590:	f7ff f900 	bl	10005794 <tud_suspended>
10006594:	2800      	cmp	r0, #0
10006596:	d1f9      	bne.n	1000658c <tud_cdc_n_write_flush+0xc>
10006598:	20b2      	movs	r0, #178	; 0xb2
1000659a:	0080      	lsls	r0, r0, #2
1000659c:	4344      	muls	r4, r0
1000659e:	0025      	movs	r5, r4
100065a0:	4e14      	ldr	r6, [pc, #80]	; (100065f4 <tud_cdc_n_write_flush+0x74>)
100065a2:	3524      	adds	r5, #36	; 0x24
100065a4:	19ad      	adds	r5, r5, r6
100065a6:	0028      	movs	r0, r5
100065a8:	f000 fb06 	bl	10006bb8 <tu_fifo_count>
100065ac:	2800      	cmp	r0, #0
100065ae:	d0ed      	beq.n	1000658c <tud_cdc_n_write_flush+0xc>
100065b0:	1937      	adds	r7, r6, r4
100065b2:	2000      	movs	r0, #0
100065b4:	78b9      	ldrb	r1, [r7, #2]
100065b6:	f7ff fe27 	bl	10006208 <usbd_edpt_claim>
100065ba:	2800      	cmp	r0, #0
100065bc:	d0e6      	beq.n	1000658c <tud_cdc_n_write_flush+0xc>
100065be:	23a2      	movs	r3, #162	; 0xa2
100065c0:	009b      	lsls	r3, r3, #2
100065c2:	469c      	mov	ip, r3
100065c4:	4464      	add	r4, ip
100065c6:	19a4      	adds	r4, r4, r6
100065c8:	0021      	movs	r1, r4
100065ca:	0028      	movs	r0, r5
100065cc:	2240      	movs	r2, #64	; 0x40
100065ce:	f000 fb77 	bl	10006cc0 <tu_fifo_read_n>
100065d2:	78b9      	ldrb	r1, [r7, #2]
100065d4:	1e05      	subs	r5, r0, #0
100065d6:	d008      	beq.n	100065ea <tud_cdc_n_write_flush+0x6a>
100065d8:	0003      	movs	r3, r0
100065da:	0022      	movs	r2, r4
100065dc:	2000      	movs	r0, #0
100065de:	f7ff fe3b 	bl	10006258 <usbd_edpt_xfer>
100065e2:	2800      	cmp	r0, #0
100065e4:	d0d2      	beq.n	1000658c <tud_cdc_n_write_flush+0xc>
100065e6:	0028      	movs	r0, r5
100065e8:	e7d1      	b.n	1000658e <tud_cdc_n_write_flush+0xe>
100065ea:	2000      	movs	r0, #0
100065ec:	f7ff fe20 	bl	10006230 <usbd_edpt_release>
100065f0:	e7cc      	b.n	1000658c <tud_cdc_n_write_flush+0xc>
100065f2:	46c0      	nop			; (mov r8, r8)
100065f4:	20001248 	.word	0x20001248

100065f8 <tud_cdc_n_write>:
100065f8:	b570      	push	{r4, r5, r6, lr}
100065fa:	24b2      	movs	r4, #178	; 0xb2
100065fc:	00a4      	lsls	r4, r4, #2
100065fe:	4344      	muls	r4, r0
10006600:	4b09      	ldr	r3, [pc, #36]	; (10006628 <tud_cdc_n_write+0x30>)
10006602:	3424      	adds	r4, #36	; 0x24
10006604:	18e4      	adds	r4, r4, r3
10006606:	0005      	movs	r5, r0
10006608:	b292      	uxth	r2, r2
1000660a:	0020      	movs	r0, r4
1000660c:	f000 fc12 	bl	10006e34 <tu_fifo_write_n>
10006610:	0006      	movs	r6, r0
10006612:	0020      	movs	r0, r4
10006614:	f000 fad0 	bl	10006bb8 <tu_fifo_count>
10006618:	283f      	cmp	r0, #63	; 0x3f
1000661a:	d801      	bhi.n	10006620 <tud_cdc_n_write+0x28>
1000661c:	0030      	movs	r0, r6
1000661e:	bd70      	pop	{r4, r5, r6, pc}
10006620:	0028      	movs	r0, r5
10006622:	f7ff ffad 	bl	10006580 <tud_cdc_n_write_flush>
10006626:	e7f9      	b.n	1000661c <tud_cdc_n_write+0x24>
10006628:	20001248 	.word	0x20001248

1000662c <tud_cdc_n_write_available>:
1000662c:	23b2      	movs	r3, #178	; 0xb2
1000662e:	009b      	lsls	r3, r3, #2
10006630:	4358      	muls	r0, r3
10006632:	b510      	push	{r4, lr}
10006634:	4b02      	ldr	r3, [pc, #8]	; (10006640 <tud_cdc_n_write_available+0x14>)
10006636:	3024      	adds	r0, #36	; 0x24
10006638:	18c0      	adds	r0, r0, r3
1000663a:	f000 fadb 	bl	10006bf4 <tu_fifo_remaining>
1000663e:	bd10      	pop	{r4, pc}
10006640:	20001248 	.word	0x20001248

10006644 <cdcd_init>:
10006644:	22b2      	movs	r2, #178	; 0xb2
10006646:	b5f0      	push	{r4, r5, r6, r7, lr}
10006648:	4c1b      	ldr	r4, [pc, #108]	; (100066b8 <cdcd_init+0x74>)
1000664a:	b083      	sub	sp, #12
1000664c:	2100      	movs	r1, #0
1000664e:	0020      	movs	r0, r4
10006650:	0092      	lsls	r2, r2, #2
10006652:	f7fe f969 	bl	10004928 <__wrap_memset>
10006656:	23ff      	movs	r3, #255	; 0xff
10006658:	7163      	strb	r3, [r4, #5]
1000665a:	4b18      	ldr	r3, [pc, #96]	; (100066bc <cdcd_init+0x78>)
1000665c:	2680      	movs	r6, #128	; 0x80
1000665e:	2500      	movs	r5, #0
10006660:	80e3      	strh	r3, [r4, #6]
10006662:	2701      	movs	r7, #1
10006664:	2308      	movs	r3, #8
10006666:	0021      	movs	r1, r4
10006668:	0020      	movs	r0, r4
1000666a:	0076      	lsls	r6, r6, #1
1000666c:	7323      	strb	r3, [r4, #12]
1000666e:	0032      	movs	r2, r6
10006670:	8127      	strh	r7, [r4, #8]
10006672:	3138      	adds	r1, #56	; 0x38
10006674:	9500      	str	r5, [sp, #0]
10006676:	3b07      	subs	r3, #7
10006678:	3010      	adds	r0, #16
1000667a:	f000 fa65 	bl	10006b48 <tu_fifo_config>
1000667e:	0021      	movs	r1, r4
10006680:	0020      	movs	r0, r4
10006682:	3139      	adds	r1, #57	; 0x39
10006684:	0032      	movs	r2, r6
10006686:	31ff      	adds	r1, #255	; 0xff
10006688:	2301      	movs	r3, #1
1000668a:	9700      	str	r7, [sp, #0]
1000668c:	3024      	adds	r0, #36	; 0x24
1000668e:	f000 fa5b 	bl	10006b48 <tu_fifo_config>
10006692:	238e      	movs	r3, #142	; 0x8e
10006694:	009b      	lsls	r3, r3, #2
10006696:	18e6      	adds	r6, r4, r3
10006698:	0030      	movs	r0, r6
1000669a:	f7fa fc79 	bl	10000f90 <mutex_init>
1000669e:	2390      	movs	r3, #144	; 0x90
100066a0:	009b      	lsls	r3, r3, #2
100066a2:	6226      	str	r6, [r4, #32]
100066a4:	18e6      	adds	r6, r4, r3
100066a6:	0030      	movs	r0, r6
100066a8:	61e5      	str	r5, [r4, #28]
100066aa:	f7fa fc71 	bl	10000f90 <mutex_init>
100066ae:	6326      	str	r6, [r4, #48]	; 0x30
100066b0:	6365      	str	r5, [r4, #52]	; 0x34
100066b2:	b003      	add	sp, #12
100066b4:	bdf0      	pop	{r4, r5, r6, r7, pc}
100066b6:	46c0      	nop			; (mov r8, r8)
100066b8:	20001248 	.word	0x20001248
100066bc:	ffffc200 	.word	0xffffc200

100066c0 <cdcd_reset>:
100066c0:	b510      	push	{r4, lr}
100066c2:	4c09      	ldr	r4, [pc, #36]	; (100066e8 <cdcd_reset+0x28>)
100066c4:	2205      	movs	r2, #5
100066c6:	2100      	movs	r1, #0
100066c8:	0020      	movs	r0, r4
100066ca:	f7fe f92d 	bl	10004928 <__wrap_memset>
100066ce:	0020      	movs	r0, r4
100066d0:	3424      	adds	r4, #36	; 0x24
100066d2:	3010      	adds	r0, #16
100066d4:	f000 fc62 	bl	10006f9c <tu_fifo_clear>
100066d8:	0020      	movs	r0, r4
100066da:	f000 fc5f 	bl	10006f9c <tu_fifo_clear>
100066de:	2101      	movs	r1, #1
100066e0:	0020      	movs	r0, r4
100066e2:	f000 fc7b 	bl	10006fdc <tu_fifo_set_overwritable>
100066e6:	bd10      	pop	{r4, pc}
100066e8:	20001248 	.word	0x20001248

100066ec <cdcd_open>:
100066ec:	b5f0      	push	{r4, r5, r6, r7, lr}
100066ee:	794b      	ldrb	r3, [r1, #5]
100066f0:	0006      	movs	r6, r0
100066f2:	b083      	sub	sp, #12
100066f4:	2b02      	cmp	r3, #2
100066f6:	d102      	bne.n	100066fe <cdcd_open+0x12>
100066f8:	798b      	ldrb	r3, [r1, #6]
100066fa:	2b02      	cmp	r3, #2
100066fc:	d003      	beq.n	10006706 <cdcd_open+0x1a>
100066fe:	2500      	movs	r5, #0
10006700:	0028      	movs	r0, r5
10006702:	b003      	add	sp, #12
10006704:	bdf0      	pop	{r4, r5, r6, r7, pc}
10006706:	4f30      	ldr	r7, [pc, #192]	; (100067c8 <cdcd_open+0xdc>)
10006708:	78bb      	ldrb	r3, [r7, #2]
1000670a:	2b00      	cmp	r3, #0
1000670c:	d1f7      	bne.n	100066fe <cdcd_open+0x12>
1000670e:	788b      	ldrb	r3, [r1, #2]
10006710:	2509      	movs	r5, #9
10006712:	703b      	strb	r3, [r7, #0]
10006714:	780c      	ldrb	r4, [r1, #0]
10006716:	190c      	adds	r4, r1, r4
10006718:	7863      	ldrb	r3, [r4, #1]
1000671a:	2b24      	cmp	r3, #36	; 0x24
1000671c:	d10b      	bne.n	10006736 <cdcd_open+0x4a>
1000671e:	2a08      	cmp	r2, #8
10006720:	d802      	bhi.n	10006728 <cdcd_open+0x3c>
10006722:	e00f      	b.n	10006744 <cdcd_open+0x58>
10006724:	42aa      	cmp	r2, r5
10006726:	d30d      	bcc.n	10006744 <cdcd_open+0x58>
10006728:	7823      	ldrb	r3, [r4, #0]
1000672a:	18e4      	adds	r4, r4, r3
1000672c:	18ed      	adds	r5, r5, r3
1000672e:	7863      	ldrb	r3, [r4, #1]
10006730:	b2ad      	uxth	r5, r5
10006732:	2b24      	cmp	r3, #36	; 0x24
10006734:	d0f6      	beq.n	10006724 <cdcd_open+0x38>
10006736:	2b05      	cmp	r3, #5
10006738:	d021      	beq.n	1000677e <cdcd_open+0x92>
1000673a:	2b04      	cmp	r3, #4
1000673c:	d102      	bne.n	10006744 <cdcd_open+0x58>
1000673e:	7963      	ldrb	r3, [r4, #5]
10006740:	2b0a      	cmp	r3, #10
10006742:	d02f      	beq.n	100067a4 <cdcd_open+0xb8>
10006744:	4c21      	ldr	r4, [pc, #132]	; (100067cc <cdcd_open+0xe0>)
10006746:	0020      	movs	r0, r4
10006748:	f000 fa54 	bl	10006bf4 <tu_fifo_remaining>
1000674c:	283f      	cmp	r0, #63	; 0x3f
1000674e:	d9d7      	bls.n	10006700 <cdcd_open+0x14>
10006750:	0026      	movs	r6, r4
10006752:	3e10      	subs	r6, #16
10006754:	2000      	movs	r0, #0
10006756:	78f1      	ldrb	r1, [r6, #3]
10006758:	f7ff fd56 	bl	10006208 <usbd_edpt_claim>
1000675c:	2800      	cmp	r0, #0
1000675e:	d0cf      	beq.n	10006700 <cdcd_open+0x14>
10006760:	0020      	movs	r0, r4
10006762:	f000 fa47 	bl	10006bf4 <tu_fifo_remaining>
10006766:	283f      	cmp	r0, #63	; 0x3f
10006768:	d917      	bls.n	1000679a <cdcd_open+0xae>
1000676a:	238e      	movs	r3, #142	; 0x8e
1000676c:	009b      	lsls	r3, r3, #2
1000676e:	18e2      	adds	r2, r4, r3
10006770:	3bf9      	subs	r3, #249	; 0xf9
10006772:	78f1      	ldrb	r1, [r6, #3]
10006774:	3bff      	subs	r3, #255	; 0xff
10006776:	2000      	movs	r0, #0
10006778:	f7ff fd6e 	bl	10006258 <usbd_edpt_xfer>
1000677c:	e7c0      	b.n	10006700 <cdcd_open+0x14>
1000677e:	0021      	movs	r1, r4
10006780:	0030      	movs	r0, r6
10006782:	f7ff fd27 	bl	100061d4 <usbd_edpt_open>
10006786:	2800      	cmp	r0, #0
10006788:	d0b9      	beq.n	100066fe <cdcd_open+0x12>
1000678a:	78a3      	ldrb	r3, [r4, #2]
1000678c:	707b      	strb	r3, [r7, #1]
1000678e:	7823      	ldrb	r3, [r4, #0]
10006790:	18ed      	adds	r5, r5, r3
10006792:	18e4      	adds	r4, r4, r3
10006794:	7863      	ldrb	r3, [r4, #1]
10006796:	b2ad      	uxth	r5, r5
10006798:	e7cf      	b.n	1000673a <cdcd_open+0x4e>
1000679a:	78f1      	ldrb	r1, [r6, #3]
1000679c:	2000      	movs	r0, #0
1000679e:	f7ff fd47 	bl	10006230 <usbd_edpt_release>
100067a2:	e7ad      	b.n	10006700 <cdcd_open+0x14>
100067a4:	4b0a      	ldr	r3, [pc, #40]	; (100067d0 <cdcd_open+0xe4>)
100067a6:	7827      	ldrb	r7, [r4, #0]
100067a8:	9301      	str	r3, [sp, #4]
100067aa:	3301      	adds	r3, #1
100067ac:	9300      	str	r3, [sp, #0]
100067ae:	2202      	movs	r2, #2
100067b0:	2302      	movs	r3, #2
100067b2:	0030      	movs	r0, r6
100067b4:	19e1      	adds	r1, r4, r7
100067b6:	f7ff fc9b 	bl	100060f0 <usbd_open_edpt_pair>
100067ba:	2800      	cmp	r0, #0
100067bc:	d09f      	beq.n	100066fe <cdcd_open+0x12>
100067be:	350e      	adds	r5, #14
100067c0:	19ed      	adds	r5, r5, r7
100067c2:	b2ad      	uxth	r5, r5
100067c4:	e7be      	b.n	10006744 <cdcd_open+0x58>
100067c6:	46c0      	nop			; (mov r8, r8)
100067c8:	20001248 	.word	0x20001248
100067cc:	20001258 	.word	0x20001258
100067d0:	2000124a 	.word	0x2000124a

100067d4 <cdcd_control_xfer_cb>:
100067d4:	b5f8      	push	{r3, r4, r5, r6, r7, lr}
100067d6:	2360      	movs	r3, #96	; 0x60
100067d8:	0014      	movs	r4, r2
100067da:	7812      	ldrb	r2, [r2, #0]
100067dc:	0005      	movs	r5, r0
100067de:	4013      	ands	r3, r2
100067e0:	2000      	movs	r0, #0
100067e2:	2b20      	cmp	r3, #32
100067e4:	d112      	bne.n	1000680c <cdcd_control_xfer_cb+0x38>
100067e6:	4a2f      	ldr	r2, [pc, #188]	; (100068a4 <cdcd_control_xfer_cb+0xd0>)
100067e8:	7963      	ldrb	r3, [r4, #5]
100067ea:	7927      	ldrb	r7, [r4, #4]
100067ec:	7816      	ldrb	r6, [r2, #0]
100067ee:	021b      	lsls	r3, r3, #8
100067f0:	433b      	orrs	r3, r7
100067f2:	429e      	cmp	r6, r3
100067f4:	d10a      	bne.n	1000680c <cdcd_control_xfer_cb+0x38>
100067f6:	7863      	ldrb	r3, [r4, #1]
100067f8:	2b22      	cmp	r3, #34	; 0x22
100067fa:	d027      	beq.n	1000684c <cdcd_control_xfer_cb+0x78>
100067fc:	d807      	bhi.n	1000680e <cdcd_control_xfer_cb+0x3a>
100067fe:	2b20      	cmp	r3, #32
10006800:	d017      	beq.n	10006832 <cdcd_control_xfer_cb+0x5e>
10006802:	2b21      	cmp	r3, #33	; 0x21
10006804:	d102      	bne.n	1000680c <cdcd_control_xfer_cb+0x38>
10006806:	2901      	cmp	r1, #1
10006808:	d03d      	beq.n	10006886 <cdcd_control_xfer_cb+0xb2>
1000680a:	2001      	movs	r0, #1
1000680c:	bdf8      	pop	{r3, r4, r5, r6, r7, pc}
1000680e:	2b23      	cmp	r3, #35	; 0x23
10006810:	d1fc      	bne.n	1000680c <cdcd_control_xfer_cb+0x38>
10006812:	2901      	cmp	r1, #1
10006814:	d03f      	beq.n	10006896 <cdcd_control_xfer_cb+0xc2>
10006816:	2903      	cmp	r1, #3
10006818:	d1f7      	bne.n	1000680a <cdcd_control_xfer_cb+0x36>
1000681a:	4b23      	ldr	r3, [pc, #140]	; (100068a8 <cdcd_control_xfer_cb+0xd4>)
1000681c:	2b00      	cmp	r3, #0
1000681e:	d0f4      	beq.n	1000680a <cdcd_control_xfer_cb+0x36>
10006820:	78e1      	ldrb	r1, [r4, #3]
10006822:	78a3      	ldrb	r3, [r4, #2]
10006824:	0209      	lsls	r1, r1, #8
10006826:	2000      	movs	r0, #0
10006828:	4319      	orrs	r1, r3
1000682a:	e000      	b.n	1000682e <cdcd_control_xfer_cb+0x5a>
1000682c:	bf00      	nop
1000682e:	2001      	movs	r0, #1
10006830:	e7ec      	b.n	1000680c <cdcd_control_xfer_cb+0x38>
10006832:	2901      	cmp	r1, #1
10006834:	d027      	beq.n	10006886 <cdcd_control_xfer_cb+0xb2>
10006836:	2903      	cmp	r1, #3
10006838:	d1e7      	bne.n	1000680a <cdcd_control_xfer_cb+0x36>
1000683a:	4b1c      	ldr	r3, [pc, #112]	; (100068ac <cdcd_control_xfer_cb+0xd8>)
1000683c:	2b00      	cmp	r3, #0
1000683e:	d0e4      	beq.n	1000680a <cdcd_control_xfer_cb+0x36>
10006840:	2000      	movs	r0, #0
10006842:	1d91      	adds	r1, r2, #6
10006844:	f7fe fae2 	bl	10004e0c <tud_cdc_line_coding_cb>
10006848:	2001      	movs	r0, #1
1000684a:	e7df      	b.n	1000680c <cdcd_control_xfer_cb+0x38>
1000684c:	2901      	cmp	r1, #1
1000684e:	d022      	beq.n	10006896 <cdcd_control_xfer_cb+0xc2>
10006850:	2903      	cmp	r1, #3
10006852:	d1da      	bne.n	1000680a <cdcd_control_xfer_cb+0x36>
10006854:	2501      	movs	r5, #1
10006856:	002e      	movs	r6, r5
10006858:	78a3      	ldrb	r3, [r4, #2]
1000685a:	78e4      	ldrb	r4, [r4, #3]
1000685c:	3902      	subs	r1, #2
1000685e:	0224      	lsls	r4, r4, #8
10006860:	431c      	orrs	r4, r3
10006862:	7114      	strb	r4, [r2, #4]
10006864:	4026      	ands	r6, r4
10006866:	3224      	adds	r2, #36	; 0x24
10006868:	0010      	movs	r0, r2
1000686a:	4071      	eors	r1, r6
1000686c:	f000 fbb6 	bl	10006fdc <tu_fifo_set_overwritable>
10006870:	4b0f      	ldr	r3, [pc, #60]	; (100068b0 <cdcd_control_xfer_cb+0xdc>)
10006872:	2b00      	cmp	r3, #0
10006874:	d0c9      	beq.n	1000680a <cdcd_control_xfer_cb+0x36>
10006876:	0862      	lsrs	r2, r4, #1
10006878:	2000      	movs	r0, #0
1000687a:	0031      	movs	r1, r6
1000687c:	402a      	ands	r2, r5
1000687e:	e000      	b.n	10006882 <cdcd_control_xfer_cb+0xae>
10006880:	bf00      	nop
10006882:	2001      	movs	r0, #1
10006884:	e7c2      	b.n	1000680c <cdcd_control_xfer_cb+0x38>
10006886:	2307      	movs	r3, #7
10006888:	0021      	movs	r1, r4
1000688a:	0028      	movs	r0, r5
1000688c:	4a09      	ldr	r2, [pc, #36]	; (100068b4 <cdcd_control_xfer_cb+0xe0>)
1000688e:	f7ff fd21 	bl	100062d4 <tud_control_xfer>
10006892:	2001      	movs	r0, #1
10006894:	e7ba      	b.n	1000680c <cdcd_control_xfer_cb+0x38>
10006896:	0021      	movs	r1, r4
10006898:	0028      	movs	r0, r5
1000689a:	f7ff fd03 	bl	100062a4 <tud_control_status>
1000689e:	2001      	movs	r0, #1
100068a0:	e7b4      	b.n	1000680c <cdcd_control_xfer_cb+0x38>
100068a2:	46c0      	nop			; (mov r8, r8)
100068a4:	20001248 	.word	0x20001248
100068a8:	00000000 	.word	0x00000000
100068ac:	10004e0d 	.word	0x10004e0d
100068b0:	00000000 	.word	0x00000000
100068b4:	2000124e 	.word	0x2000124e

100068b8 <cdcd_xfer_cb>:
100068b8:	b5f8      	push	{r3, r4, r5, r6, r7, lr}
100068ba:	4657      	mov	r7, sl
100068bc:	464e      	mov	r6, r9
100068be:	4645      	mov	r5, r8
100068c0:	46de      	mov	lr, fp
100068c2:	b5e0      	push	{r5, r6, r7, lr}
100068c4:	4f49      	ldr	r7, [pc, #292]	; (100069ec <cdcd_xfer_cb+0x134>)
100068c6:	4680      	mov	r8, r0
100068c8:	78fa      	ldrb	r2, [r7, #3]
100068ca:	000c      	movs	r4, r1
100068cc:	001e      	movs	r6, r3
100068ce:	428a      	cmp	r2, r1
100068d0:	d164      	bne.n	1000699c <cdcd_xfer_cb+0xe4>
100068d2:	b29a      	uxth	r2, r3
100068d4:	2392      	movs	r3, #146	; 0x92
100068d6:	009b      	lsls	r3, r3, #2
100068d8:	18fd      	adds	r5, r7, r3
100068da:	2310      	movs	r3, #16
100068dc:	469b      	mov	fp, r3
100068de:	44bb      	add	fp, r7
100068e0:	0029      	movs	r1, r5
100068e2:	4658      	mov	r0, fp
100068e4:	f000 faa6 	bl	10006e34 <tu_fifo_write_n>
100068e8:	4b41      	ldr	r3, [pc, #260]	; (100069f0 <cdcd_xfer_cb+0x138>)
100068ea:	46d9      	mov	r9, fp
100068ec:	2b00      	cmp	r3, #0
100068ee:	d018      	beq.n	10006922 <cdcd_xfer_cb+0x6a>
100068f0:	797b      	ldrb	r3, [r7, #5]
100068f2:	46d9      	mov	r9, fp
100068f4:	2bff      	cmp	r3, #255	; 0xff
100068f6:	d014      	beq.n	10006922 <cdcd_xfer_cb+0x6a>
100068f8:	2e00      	cmp	r6, #0
100068fa:	d012      	beq.n	10006922 <cdcd_xfer_cb+0x6a>
100068fc:	19aa      	adds	r2, r5, r6
100068fe:	4692      	mov	sl, r2
10006900:	e003      	b.n	1000690a <cdcd_xfer_cb+0x52>
10006902:	3501      	adds	r5, #1
10006904:	4555      	cmp	r5, sl
10006906:	d00c      	beq.n	10006922 <cdcd_xfer_cb+0x6a>
10006908:	797b      	ldrb	r3, [r7, #5]
1000690a:	782a      	ldrb	r2, [r5, #0]
1000690c:	429a      	cmp	r2, r3
1000690e:	d1f8      	bne.n	10006902 <cdcd_xfer_cb+0x4a>
10006910:	4648      	mov	r0, r9
10006912:	f000 f967 	bl	10006be4 <tu_fifo_empty>
10006916:	2800      	cmp	r0, #0
10006918:	d1f3      	bne.n	10006902 <cdcd_xfer_cb+0x4a>
1000691a:	7979      	ldrb	r1, [r7, #5]
1000691c:	e000      	b.n	10006920 <cdcd_xfer_cb+0x68>
1000691e:	bf00      	nop
10006920:	e7ef      	b.n	10006902 <cdcd_xfer_cb+0x4a>
10006922:	4b34      	ldr	r3, [pc, #208]	; (100069f4 <cdcd_xfer_cb+0x13c>)
10006924:	2b00      	cmp	r3, #0
10006926:	d004      	beq.n	10006932 <cdcd_xfer_cb+0x7a>
10006928:	4648      	mov	r0, r9
1000692a:	f000 f95b 	bl	10006be4 <tu_fifo_empty>
1000692e:	2800      	cmp	r0, #0
10006930:	d052      	beq.n	100069d8 <cdcd_xfer_cb+0x120>
10006932:	4648      	mov	r0, r9
10006934:	f000 f95e 	bl	10006bf4 <tu_fifo_remaining>
10006938:	283f      	cmp	r0, #63	; 0x3f
1000693a:	d834      	bhi.n	100069a6 <cdcd_xfer_cb+0xee>
1000693c:	464a      	mov	r2, r9
1000693e:	3a10      	subs	r2, #16
10006940:	7893      	ldrb	r3, [r2, #2]
10006942:	42a3      	cmp	r3, r4
10006944:	d007      	beq.n	10006956 <cdcd_xfer_cb+0x9e>
10006946:	2401      	movs	r4, #1
10006948:	0020      	movs	r0, r4
1000694a:	bcf0      	pop	{r4, r5, r6, r7}
1000694c:	46bb      	mov	fp, r7
1000694e:	46b2      	mov	sl, r6
10006950:	46a9      	mov	r9, r5
10006952:	46a0      	mov	r8, r4
10006954:	bdf8      	pop	{r3, r4, r5, r6, r7, pc}
10006956:	4b28      	ldr	r3, [pc, #160]	; (100069f8 <cdcd_xfer_cb+0x140>)
10006958:	2b00      	cmp	r3, #0
1000695a:	d002      	beq.n	10006962 <cdcd_xfer_cb+0xaa>
1000695c:	2000      	movs	r0, #0
1000695e:	e000      	b.n	10006962 <cdcd_xfer_cb+0xaa>
10006960:	bf00      	nop
10006962:	2000      	movs	r0, #0
10006964:	f7ff fe0c 	bl	10006580 <tud_cdc_n_write_flush>
10006968:	2800      	cmp	r0, #0
1000696a:	d1ec      	bne.n	10006946 <cdcd_xfer_cb+0x8e>
1000696c:	4d23      	ldr	r5, [pc, #140]	; (100069fc <cdcd_xfer_cb+0x144>)
1000696e:	0028      	movs	r0, r5
10006970:	f000 f922 	bl	10006bb8 <tu_fifo_count>
10006974:	2800      	cmp	r0, #0
10006976:	d1e6      	bne.n	10006946 <cdcd_xfer_cb+0x8e>
10006978:	2e00      	cmp	r6, #0
1000697a:	d0e4      	beq.n	10006946 <cdcd_xfer_cb+0x8e>
1000697c:	06b3      	lsls	r3, r6, #26
1000697e:	d1e2      	bne.n	10006946 <cdcd_xfer_cb+0x8e>
10006980:	3d24      	subs	r5, #36	; 0x24
10006982:	4640      	mov	r0, r8
10006984:	78a9      	ldrb	r1, [r5, #2]
10006986:	f7ff fc3f 	bl	10006208 <usbd_edpt_claim>
1000698a:	1e04      	subs	r4, r0, #0
1000698c:	d0db      	beq.n	10006946 <cdcd_xfer_cb+0x8e>
1000698e:	2300      	movs	r3, #0
10006990:	2200      	movs	r2, #0
10006992:	4640      	mov	r0, r8
10006994:	78a9      	ldrb	r1, [r5, #2]
10006996:	f7ff fc5f 	bl	10006258 <usbd_edpt_xfer>
1000699a:	e7d5      	b.n	10006948 <cdcd_xfer_cb+0x90>
1000699c:	78bb      	ldrb	r3, [r7, #2]
1000699e:	428b      	cmp	r3, r1
100069a0:	d0d9      	beq.n	10006956 <cdcd_xfer_cb+0x9e>
100069a2:	2400      	movs	r4, #0
100069a4:	e7d0      	b.n	10006948 <cdcd_xfer_cb+0x90>
100069a6:	464d      	mov	r5, r9
100069a8:	3d10      	subs	r5, #16
100069aa:	2000      	movs	r0, #0
100069ac:	78e9      	ldrb	r1, [r5, #3]
100069ae:	f7ff fc2b 	bl	10006208 <usbd_edpt_claim>
100069b2:	2800      	cmp	r0, #0
100069b4:	d101      	bne.n	100069ba <cdcd_xfer_cb+0x102>
100069b6:	78ab      	ldrb	r3, [r5, #2]
100069b8:	e7c3      	b.n	10006942 <cdcd_xfer_cb+0x8a>
100069ba:	4648      	mov	r0, r9
100069bc:	f000 f91a 	bl	10006bf4 <tu_fifo_remaining>
100069c0:	283f      	cmp	r0, #63	; 0x3f
100069c2:	d90c      	bls.n	100069de <cdcd_xfer_cb+0x126>
100069c4:	228e      	movs	r2, #142	; 0x8e
100069c6:	0092      	lsls	r2, r2, #2
100069c8:	2340      	movs	r3, #64	; 0x40
100069ca:	2000      	movs	r0, #0
100069cc:	78e9      	ldrb	r1, [r5, #3]
100069ce:	444a      	add	r2, r9
100069d0:	f7ff fc42 	bl	10006258 <usbd_edpt_xfer>
100069d4:	78ab      	ldrb	r3, [r5, #2]
100069d6:	e7b4      	b.n	10006942 <cdcd_xfer_cb+0x8a>
100069d8:	f7fe fb8a 	bl	100050f0 <tud_cdc_rx_cb>
100069dc:	e7a9      	b.n	10006932 <cdcd_xfer_cb+0x7a>
100069de:	2000      	movs	r0, #0
100069e0:	78e9      	ldrb	r1, [r5, #3]
100069e2:	f7ff fc25 	bl	10006230 <usbd_edpt_release>
100069e6:	78ab      	ldrb	r3, [r5, #2]
100069e8:	e7ab      	b.n	10006942 <cdcd_xfer_cb+0x8a>
100069ea:	46c0      	nop			; (mov r8, r8)
100069ec:	20001248 	.word	0x20001248
100069f0:	00000000 	.word	0x00000000
100069f4:	100050f1 	.word	0x100050f1
100069f8:	00000000 	.word	0x00000000
100069fc:	2000126c 	.word	0x2000126c

10006a00 <tusb_init>:
10006a00:	b510      	push	{r4, lr}
10006a02:	2000      	movs	r0, #0
10006a04:	f7fe fed8 	bl	100057b8 <tud_init>
10006a08:	bd10      	pop	{r4, pc}
10006a0a:	46c0      	nop			; (mov r8, r8)

10006a0c <tusb_inited>:
10006a0c:	b510      	push	{r4, lr}
10006a0e:	f7fe fec9 	bl	100057a4 <tud_inited>
10006a12:	bd10      	pop	{r4, pc}

10006a14 <tu_edpt_claim>:
10006a14:	7803      	ldrb	r3, [r0, #0]
10006a16:	b570      	push	{r4, r5, r6, lr}
10006a18:	07db      	lsls	r3, r3, #31
10006a1a:	0004      	movs	r4, r0
10006a1c:	000e      	movs	r6, r1
10006a1e:	0fdd      	lsrs	r5, r3, #31
10006a20:	2b00      	cmp	r3, #0
10006a22:	d117      	bne.n	10006a54 <tu_edpt_claim+0x40>
10006a24:	7803      	ldrb	r3, [r0, #0]
10006a26:	075b      	lsls	r3, r3, #29
10006a28:	d501      	bpl.n	10006a2e <tu_edpt_claim+0x1a>
10006a2a:	0028      	movs	r0, r5
10006a2c:	bd70      	pop	{r4, r5, r6, pc}
10006a2e:	2101      	movs	r1, #1
10006a30:	0030      	movs	r0, r6
10006a32:	4249      	negs	r1, r1
10006a34:	f000 fb58 	bl	100070e8 <__mutex_enter_timeout_ms_veneer>
10006a38:	7823      	ldrb	r3, [r4, #0]
10006a3a:	07db      	lsls	r3, r3, #31
10006a3c:	0fdd      	lsrs	r5, r3, #31
10006a3e:	2b00      	cmp	r3, #0
10006a40:	d10a      	bne.n	10006a58 <tu_edpt_claim+0x44>
10006a42:	7823      	ldrb	r3, [r4, #0]
10006a44:	075b      	lsls	r3, r3, #29
10006a46:	d408      	bmi.n	10006a5a <tu_edpt_claim+0x46>
10006a48:	2204      	movs	r2, #4
10006a4a:	7823      	ldrb	r3, [r4, #0]
10006a4c:	2501      	movs	r5, #1
10006a4e:	4313      	orrs	r3, r2
10006a50:	7023      	strb	r3, [r4, #0]
10006a52:	e002      	b.n	10006a5a <tu_edpt_claim+0x46>
10006a54:	2500      	movs	r5, #0
10006a56:	e7e8      	b.n	10006a2a <tu_edpt_claim+0x16>
10006a58:	2500      	movs	r5, #0
10006a5a:	0030      	movs	r0, r6
10006a5c:	f000 fb1c 	bl	10007098 <__mutex_exit_veneer>
10006a60:	e7e3      	b.n	10006a2a <tu_edpt_claim+0x16>
10006a62:	46c0      	nop			; (mov r8, r8)

10006a64 <tu_edpt_release>:
10006a64:	b570      	push	{r4, r5, r6, lr}
10006a66:	000d      	movs	r5, r1
10006a68:	2101      	movs	r1, #1
10006a6a:	0004      	movs	r4, r0
10006a6c:	4249      	negs	r1, r1
10006a6e:	0028      	movs	r0, r5
10006a70:	f000 fb3a 	bl	100070e8 <__mutex_enter_timeout_ms_veneer>
10006a74:	7823      	ldrb	r3, [r4, #0]
10006a76:	075b      	lsls	r3, r3, #29
10006a78:	0fde      	lsrs	r6, r3, #31
10006a7a:	2b00      	cmp	r3, #0
10006a7c:	db04      	blt.n	10006a88 <tu_edpt_release+0x24>
10006a7e:	0028      	movs	r0, r5
10006a80:	f000 fb0a 	bl	10007098 <__mutex_exit_veneer>
10006a84:	0030      	movs	r0, r6
10006a86:	bd70      	pop	{r4, r5, r6, pc}
10006a88:	7823      	ldrb	r3, [r4, #0]
10006a8a:	07db      	lsls	r3, r3, #31
10006a8c:	d404      	bmi.n	10006a98 <tu_edpt_release+0x34>
10006a8e:	2204      	movs	r2, #4
10006a90:	7823      	ldrb	r3, [r4, #0]
10006a92:	4393      	bics	r3, r2
10006a94:	7023      	strb	r3, [r4, #0]
10006a96:	e7f2      	b.n	10006a7e <tu_edpt_release+0x1a>
10006a98:	2600      	movs	r6, #0
10006a9a:	e7f0      	b.n	10006a7e <tu_edpt_release+0x1a>

10006a9c <tu_edpt_validate>:
10006a9c:	b510      	push	{r4, lr}
10006a9e:	7943      	ldrb	r3, [r0, #5]
10006aa0:	7904      	ldrb	r4, [r0, #4]
10006aa2:	021b      	lsls	r3, r3, #8
10006aa4:	4323      	orrs	r3, r4
10006aa6:	055b      	lsls	r3, r3, #21
10006aa8:	0d5a      	lsrs	r2, r3, #21
10006aaa:	78c3      	ldrb	r3, [r0, #3]
10006aac:	079b      	lsls	r3, r3, #30
10006aae:	0f9b      	lsrs	r3, r3, #30
10006ab0:	2b02      	cmp	r3, #2
10006ab2:	d005      	beq.n	10006ac0 <tu_edpt_validate+0x24>
10006ab4:	2b03      	cmp	r3, #3
10006ab6:	d015      	beq.n	10006ae4 <tu_edpt_validate+0x48>
10006ab8:	2000      	movs	r0, #0
10006aba:	2b01      	cmp	r3, #1
10006abc:	d008      	beq.n	10006ad0 <tu_edpt_validate+0x34>
10006abe:	bd10      	pop	{r4, pc}
10006ac0:	2902      	cmp	r1, #2
10006ac2:	d01c      	beq.n	10006afe <tu_edpt_validate+0x62>
10006ac4:	2000      	movs	r0, #0
10006ac6:	2340      	movs	r3, #64	; 0x40
10006ac8:	4293      	cmp	r3, r2
10006aca:	4140      	adcs	r0, r0
10006acc:	b2c0      	uxtb	r0, r0
10006ace:	e7f6      	b.n	10006abe <tu_edpt_validate+0x22>
10006ad0:	3902      	subs	r1, #2
10006ad2:	424b      	negs	r3, r1
10006ad4:	4159      	adcs	r1, r3
10006ad6:	4b0d      	ldr	r3, [pc, #52]	; (10006b0c <tu_edpt_validate+0x70>)
10006ad8:	469c      	mov	ip, r3
10006ada:	4461      	add	r1, ip
10006adc:	4291      	cmp	r1, r2
10006ade:	4140      	adcs	r0, r0
10006ae0:	b2c0      	uxtb	r0, r0
10006ae2:	e7ec      	b.n	10006abe <tu_edpt_validate+0x22>
10006ae4:	3902      	subs	r1, #2
10006ae6:	424b      	negs	r3, r1
10006ae8:	4159      	adcs	r1, r3
10006aea:	23f0      	movs	r3, #240	; 0xf0
10006aec:	2000      	movs	r0, #0
10006aee:	4249      	negs	r1, r1
10006af0:	009b      	lsls	r3, r3, #2
10006af2:	4019      	ands	r1, r3
10006af4:	3140      	adds	r1, #64	; 0x40
10006af6:	4291      	cmp	r1, r2
10006af8:	4140      	adcs	r0, r0
10006afa:	b2c0      	uxtb	r0, r0
10006afc:	e7df      	b.n	10006abe <tu_edpt_validate+0x22>
10006afe:	4b04      	ldr	r3, [pc, #16]	; (10006b10 <tu_edpt_validate+0x74>)
10006b00:	18d3      	adds	r3, r2, r3
10006b02:	425a      	negs	r2, r3
10006b04:	4153      	adcs	r3, r2
10006b06:	b2d8      	uxtb	r0, r3
10006b08:	e7d9      	b.n	10006abe <tu_edpt_validate+0x22>
10006b0a:	46c0      	nop			; (mov r8, r8)
10006b0c:	000003ff 	.word	0x000003ff
10006b10:	fffffe00 	.word	0xfffffe00

10006b14 <tu_edpt_bind_driver>:
10006b14:	188a      	adds	r2, r1, r2
10006b16:	b570      	push	{r4, r5, r6, lr}
10006b18:	4291      	cmp	r1, r2
10006b1a:	d207      	bcs.n	10006b2c <tu_edpt_bind_driver+0x18>
10006b1c:	267f      	movs	r6, #127	; 0x7f
10006b1e:	784c      	ldrb	r4, [r1, #1]
10006b20:	2c05      	cmp	r4, #5
10006b22:	d004      	beq.n	10006b2e <tu_edpt_bind_driver+0x1a>
10006b24:	780c      	ldrb	r4, [r1, #0]
10006b26:	1909      	adds	r1, r1, r4
10006b28:	428a      	cmp	r2, r1
10006b2a:	d8f8      	bhi.n	10006b1e <tu_edpt_bind_driver+0xa>
10006b2c:	bd70      	pop	{r4, r5, r6, pc}
10006b2e:	0034      	movs	r4, r6
10006b30:	788d      	ldrb	r5, [r1, #2]
10006b32:	402c      	ands	r4, r5
10006b34:	0064      	lsls	r4, r4, #1
10006b36:	1904      	adds	r4, r0, r4
10006b38:	09ed      	lsrs	r5, r5, #7
10006b3a:	5563      	strb	r3, [r4, r5]
10006b3c:	780c      	ldrb	r4, [r1, #0]
10006b3e:	1909      	adds	r1, r1, r4
10006b40:	428a      	cmp	r2, r1
10006b42:	d8ec      	bhi.n	10006b1e <tu_edpt_bind_driver+0xa>
10006b44:	e7f2      	b.n	10006b2c <tu_edpt_bind_driver+0x18>
10006b46:	46c0      	nop			; (mov r8, r8)

10006b48 <tu_fifo_config>:
10006b48:	b5f0      	push	{r4, r5, r6, r7, lr}
10006b4a:	46c6      	mov	lr, r8
10006b4c:	b500      	push	{lr}
10006b4e:	0004      	movs	r4, r0
10006b50:	a806      	add	r0, sp, #24
10006b52:	7805      	ldrb	r5, [r0, #0]
10006b54:	2080      	movs	r0, #128	; 0x80
10006b56:	4688      	mov	r8, r1
10006b58:	0017      	movs	r7, r2
10006b5a:	001e      	movs	r6, r3
10006b5c:	0200      	lsls	r0, r0, #8
10006b5e:	4282      	cmp	r2, r0
10006b60:	d827      	bhi.n	10006bb2 <tu_fifo_config+0x6a>
10006b62:	68e0      	ldr	r0, [r4, #12]
10006b64:	2800      	cmp	r0, #0
10006b66:	d003      	beq.n	10006b70 <tu_fifo_config+0x28>
10006b68:	2101      	movs	r1, #1
10006b6a:	4249      	negs	r1, r1
10006b6c:	f000 fabc 	bl	100070e8 <__mutex_enter_timeout_ms_veneer>
10006b70:	6920      	ldr	r0, [r4, #16]
10006b72:	2800      	cmp	r0, #0
10006b74:	d003      	beq.n	10006b7e <tu_fifo_config+0x36>
10006b76:	2101      	movs	r1, #1
10006b78:	4249      	negs	r1, r1
10006b7a:	f000 fab5 	bl	100070e8 <__mutex_enter_timeout_ms_veneer>
10006b7e:	4643      	mov	r3, r8
10006b80:	6023      	str	r3, [r4, #0]
10006b82:	0473      	lsls	r3, r6, #17
10006b84:	0c5b      	lsrs	r3, r3, #17
10006b86:	03ed      	lsls	r5, r5, #15
10006b88:	431d      	orrs	r5, r3
10006b8a:	2300      	movs	r3, #0
10006b8c:	68e0      	ldr	r0, [r4, #12]
10006b8e:	8163      	strh	r3, [r4, #10]
10006b90:	80a7      	strh	r7, [r4, #4]
10006b92:	80e5      	strh	r5, [r4, #6]
10006b94:	8123      	strh	r3, [r4, #8]
10006b96:	2800      	cmp	r0, #0
10006b98:	d001      	beq.n	10006b9e <tu_fifo_config+0x56>
10006b9a:	f000 fa7d 	bl	10007098 <__mutex_exit_veneer>
10006b9e:	6920      	ldr	r0, [r4, #16]
10006ba0:	2401      	movs	r4, #1
10006ba2:	2800      	cmp	r0, #0
10006ba4:	d001      	beq.n	10006baa <tu_fifo_config+0x62>
10006ba6:	f000 fa77 	bl	10007098 <__mutex_exit_veneer>
10006baa:	0020      	movs	r0, r4
10006bac:	bc80      	pop	{r7}
10006bae:	46b8      	mov	r8, r7
10006bb0:	bdf0      	pop	{r4, r5, r6, r7, pc}
10006bb2:	2400      	movs	r4, #0
10006bb4:	e7f9      	b.n	10006baa <tu_fifo_config+0x62>
10006bb6:	46c0      	nop			; (mov r8, r8)

10006bb8 <tu_fifo_count>:
10006bb8:	b510      	push	{r4, lr}
10006bba:	8904      	ldrh	r4, [r0, #8]
10006bbc:	8941      	ldrh	r1, [r0, #10]
10006bbe:	8882      	ldrh	r2, [r0, #4]
10006bc0:	b2a3      	uxth	r3, r4
10006bc2:	b288      	uxth	r0, r1
10006bc4:	428c      	cmp	r4, r1
10006bc6:	d307      	bcc.n	10006bd8 <tu_fifo_count+0x20>
10006bc8:	1a1b      	subs	r3, r3, r0
10006bca:	b29b      	uxth	r3, r3
10006bcc:	1c10      	adds	r0, r2, #0
10006bce:	429a      	cmp	r2, r3
10006bd0:	d900      	bls.n	10006bd4 <tu_fifo_count+0x1c>
10006bd2:	1c18      	adds	r0, r3, #0
10006bd4:	b280      	uxth	r0, r0
10006bd6:	bd10      	pop	{r4, pc}
10006bd8:	0051      	lsls	r1, r2, #1
10006bda:	1a09      	subs	r1, r1, r0
10006bdc:	185b      	adds	r3, r3, r1
10006bde:	b29b      	uxth	r3, r3
10006be0:	e7f4      	b.n	10006bcc <tu_fifo_count+0x14>
10006be2:	46c0      	nop			; (mov r8, r8)

10006be4 <tu_fifo_empty>:
10006be4:	0003      	movs	r3, r0
10006be6:	8900      	ldrh	r0, [r0, #8]
10006be8:	895b      	ldrh	r3, [r3, #10]
10006bea:	1ac0      	subs	r0, r0, r3
10006bec:	4243      	negs	r3, r0
10006bee:	4158      	adcs	r0, r3
10006bf0:	b2c0      	uxtb	r0, r0
10006bf2:	4770      	bx	lr

10006bf4 <tu_fifo_remaining>:
10006bf4:	b510      	push	{r4, lr}
10006bf6:	8904      	ldrh	r4, [r0, #8]
10006bf8:	8941      	ldrh	r1, [r0, #10]
10006bfa:	8882      	ldrh	r2, [r0, #4]
10006bfc:	b2a3      	uxth	r3, r4
10006bfe:	b288      	uxth	r0, r1
10006c00:	428c      	cmp	r4, r1
10006c02:	d307      	bcc.n	10006c14 <tu_fifo_remaining+0x20>
10006c04:	1a1b      	subs	r3, r3, r0
10006c06:	b29b      	uxth	r3, r3
10006c08:	2000      	movs	r0, #0
10006c0a:	429a      	cmp	r2, r3
10006c0c:	d901      	bls.n	10006c12 <tu_fifo_remaining+0x1e>
10006c0e:	1ad3      	subs	r3, r2, r3
10006c10:	b298      	uxth	r0, r3
10006c12:	bd10      	pop	{r4, pc}
10006c14:	0051      	lsls	r1, r2, #1
10006c16:	1a09      	subs	r1, r1, r0
10006c18:	185b      	adds	r3, r3, r1
10006c1a:	b29b      	uxth	r3, r3
10006c1c:	e7f4      	b.n	10006c08 <tu_fifo_remaining+0x14>
10006c1e:	46c0      	nop			; (mov r8, r8)

10006c20 <tu_fifo_read>:
10006c20:	b570      	push	{r4, r5, r6, lr}
10006c22:	0004      	movs	r4, r0
10006c24:	6900      	ldr	r0, [r0, #16]
10006c26:	000e      	movs	r6, r1
10006c28:	2800      	cmp	r0, #0
10006c2a:	d003      	beq.n	10006c34 <tu_fifo_read+0x14>
10006c2c:	2101      	movs	r1, #1
10006c2e:	4249      	negs	r1, r1
10006c30:	f000 fa5a 	bl	100070e8 <__mutex_enter_timeout_ms_veneer>
10006c34:	8925      	ldrh	r5, [r4, #8]
10006c36:	8960      	ldrh	r0, [r4, #10]
10006c38:	88a2      	ldrh	r2, [r4, #4]
10006c3a:	b2a9      	uxth	r1, r5
10006c3c:	b283      	uxth	r3, r0
10006c3e:	4285      	cmp	r5, r0
10006c40:	d32c      	bcc.n	10006c9c <tu_fifo_read+0x7c>
10006c42:	1acd      	subs	r5, r1, r3
10006c44:	b2ad      	uxth	r5, r5
10006c46:	2d00      	cmp	r5, #0
10006c48:	d02e      	beq.n	10006ca8 <tu_fifo_read+0x88>
10006c4a:	42aa      	cmp	r2, r5
10006c4c:	d208      	bcs.n	10006c60 <tu_fifo_read+0x40>
10006c4e:	4291      	cmp	r1, r2
10006c50:	d331      	bcc.n	10006cb6 <tu_fifo_read+0x96>
10006c52:	1a8b      	subs	r3, r1, r2
10006c54:	b29b      	uxth	r3, r3
10006c56:	8163      	strh	r3, [r4, #10]
10006c58:	429a      	cmp	r2, r3
10006c5a:	d803      	bhi.n	10006c64 <tu_fifo_read+0x44>
10006c5c:	1a9b      	subs	r3, r3, r2
10006c5e:	b29b      	uxth	r3, r3
10006c60:	429a      	cmp	r2, r3
10006c62:	d9fb      	bls.n	10006c5c <tu_fifo_read+0x3c>
10006c64:	88e2      	ldrh	r2, [r4, #6]
10006c66:	6821      	ldr	r1, [r4, #0]
10006c68:	0452      	lsls	r2, r2, #17
10006c6a:	0c52      	lsrs	r2, r2, #17
10006c6c:	4353      	muls	r3, r2
10006c6e:	0030      	movs	r0, r6
10006c70:	18c9      	adds	r1, r1, r3
10006c72:	f7fd fe5f 	bl	10004934 <__wrap___aeabi_memcpy>
10006c76:	8961      	ldrh	r1, [r4, #10]
10006c78:	2501      	movs	r5, #1
10006c7a:	1c4b      	adds	r3, r1, #1
10006c7c:	b29b      	uxth	r3, r3
10006c7e:	88a2      	ldrh	r2, [r4, #4]
10006c80:	4299      	cmp	r1, r3
10006c82:	d914      	bls.n	10006cae <tu_fifo_read+0x8e>
10006c84:	2300      	movs	r3, #0
10006c86:	0052      	lsls	r2, r2, #1
10006c88:	1a9b      	subs	r3, r3, r2
10006c8a:	b29b      	uxth	r3, r3
10006c8c:	6920      	ldr	r0, [r4, #16]
10006c8e:	8163      	strh	r3, [r4, #10]
10006c90:	2800      	cmp	r0, #0
10006c92:	d001      	beq.n	10006c98 <tu_fifo_read+0x78>
10006c94:	f000 fa00 	bl	10007098 <__mutex_exit_veneer>
10006c98:	0028      	movs	r0, r5
10006c9a:	bd70      	pop	{r4, r5, r6, pc}
10006c9c:	0055      	lsls	r5, r2, #1
10006c9e:	1aed      	subs	r5, r5, r3
10006ca0:	194d      	adds	r5, r1, r5
10006ca2:	b2ad      	uxth	r5, r5
10006ca4:	2d00      	cmp	r5, #0
10006ca6:	d1d0      	bne.n	10006c4a <tu_fifo_read+0x2a>
10006ca8:	2500      	movs	r5, #0
10006caa:	8963      	ldrh	r3, [r4, #10]
10006cac:	b29b      	uxth	r3, r3
10006cae:	0052      	lsls	r2, r2, #1
10006cb0:	4293      	cmp	r3, r2
10006cb2:	dbeb      	blt.n	10006c8c <tu_fifo_read+0x6c>
10006cb4:	e7e8      	b.n	10006c88 <tu_fifo_read+0x68>
10006cb6:	1889      	adds	r1, r1, r2
10006cb8:	b28b      	uxth	r3, r1
10006cba:	8163      	strh	r3, [r4, #10]
10006cbc:	e7cc      	b.n	10006c58 <tu_fifo_read+0x38>
10006cbe:	46c0      	nop			; (mov r8, r8)

10006cc0 <tu_fifo_read_n>:
10006cc0:	b5f0      	push	{r4, r5, r6, r7, lr}
10006cc2:	4646      	mov	r6, r8
10006cc4:	464f      	mov	r7, r9
10006cc6:	46d6      	mov	lr, sl
10006cc8:	b5c0      	push	{r6, r7, lr}
10006cca:	0006      	movs	r6, r0
10006ccc:	6900      	ldr	r0, [r0, #16]
10006cce:	4689      	mov	r9, r1
10006cd0:	4690      	mov	r8, r2
10006cd2:	2800      	cmp	r0, #0
10006cd4:	d003      	beq.n	10006cde <tu_fifo_read_n+0x1e>
10006cd6:	2101      	movs	r1, #1
10006cd8:	4249      	negs	r1, r1
10006cda:	f000 fa05 	bl	100070e8 <__mutex_enter_timeout_ms_veneer>
10006cde:	8931      	ldrh	r1, [r6, #8]
10006ce0:	8972      	ldrh	r2, [r6, #10]
10006ce2:	88b5      	ldrh	r5, [r6, #4]
10006ce4:	b28b      	uxth	r3, r1
10006ce6:	b294      	uxth	r4, r2
10006ce8:	4291      	cmp	r1, r2
10006cea:	d357      	bcc.n	10006d9c <tu_fifo_read_n+0xdc>
10006cec:	1b1f      	subs	r7, r3, r4
10006cee:	b2bf      	uxth	r7, r7
10006cf0:	2f00      	cmp	r7, #0
10006cf2:	d04d      	beq.n	10006d90 <tu_fifo_read_n+0xd0>
10006cf4:	42bd      	cmp	r5, r7
10006cf6:	d205      	bcs.n	10006d04 <tu_fifo_read_n+0x44>
10006cf8:	42ab      	cmp	r3, r5
10006cfa:	d254      	bcs.n	10006da6 <tu_fifo_read_n+0xe6>
10006cfc:	195b      	adds	r3, r3, r5
10006cfe:	b29c      	uxth	r4, r3
10006d00:	002f      	movs	r7, r5
10006d02:	8174      	strh	r4, [r6, #10]
10006d04:	4643      	mov	r3, r8
10006d06:	45b8      	cmp	r8, r7
10006d08:	d840      	bhi.n	10006d8c <tu_fifo_read_n+0xcc>
10006d0a:	b29f      	uxth	r7, r3
10006d0c:	42a5      	cmp	r5, r4
10006d0e:	d803      	bhi.n	10006d18 <tu_fifo_read_n+0x58>
10006d10:	1b64      	subs	r4, r4, r5
10006d12:	b2a4      	uxth	r4, r4
10006d14:	42a5      	cmp	r5, r4
10006d16:	d9fb      	bls.n	10006d10 <tu_fifo_read_n+0x50>
10006d18:	88f2      	ldrh	r2, [r6, #6]
10006d1a:	1b28      	subs	r0, r5, r4
10006d1c:	0452      	lsls	r2, r2, #17
10006d1e:	0c53      	lsrs	r3, r2, #17
10006d20:	0019      	movs	r1, r3
10006d22:	4698      	mov	r8, r3
10006d24:	6833      	ldr	r3, [r6, #0]
10006d26:	4361      	muls	r1, r4
10006d28:	469c      	mov	ip, r3
10006d2a:	b280      	uxth	r0, r0
10006d2c:	4461      	add	r1, ip
10006d2e:	4287      	cmp	r7, r0
10006d30:	d926      	bls.n	10006d80 <tu_fifo_read_n+0xc0>
10006d32:	4643      	mov	r3, r8
10006d34:	4358      	muls	r0, r3
10006d36:	b283      	uxth	r3, r0
10006d38:	001a      	movs	r2, r3
10006d3a:	4648      	mov	r0, r9
10006d3c:	469a      	mov	sl, r3
10006d3e:	f7fd fdf9 	bl	10004934 <__wrap___aeabi_memcpy>
10006d42:	4643      	mov	r3, r8
10006d44:	4648      	mov	r0, r9
10006d46:	1b7d      	subs	r5, r7, r5
10006d48:	1964      	adds	r4, r4, r5
10006d4a:	435c      	muls	r4, r3
10006d4c:	6831      	ldr	r1, [r6, #0]
10006d4e:	4450      	add	r0, sl
10006d50:	b2a2      	uxth	r2, r4
10006d52:	f7fd fdef 	bl	10004934 <__wrap___aeabi_memcpy>
10006d56:	8971      	ldrh	r1, [r6, #10]
10006d58:	88b5      	ldrh	r5, [r6, #4]
10006d5a:	19cb      	adds	r3, r1, r7
10006d5c:	b29b      	uxth	r3, r3
10006d5e:	006a      	lsls	r2, r5, #1
10006d60:	4299      	cmp	r1, r3
10006d62:	d917      	bls.n	10006d94 <tu_fifo_read_n+0xd4>
10006d64:	1a9b      	subs	r3, r3, r2
10006d66:	b29b      	uxth	r3, r3
10006d68:	6930      	ldr	r0, [r6, #16]
10006d6a:	8173      	strh	r3, [r6, #10]
10006d6c:	2800      	cmp	r0, #0
10006d6e:	d001      	beq.n	10006d74 <tu_fifo_read_n+0xb4>
10006d70:	f000 f992 	bl	10007098 <__mutex_exit_veneer>
10006d74:	0038      	movs	r0, r7
10006d76:	bce0      	pop	{r5, r6, r7}
10006d78:	46ba      	mov	sl, r7
10006d7a:	46b1      	mov	r9, r6
10006d7c:	46a8      	mov	r8, r5
10006d7e:	bdf0      	pop	{r4, r5, r6, r7, pc}
10006d80:	4642      	mov	r2, r8
10006d82:	4648      	mov	r0, r9
10006d84:	437a      	muls	r2, r7
10006d86:	f7fd fdd5 	bl	10004934 <__wrap___aeabi_memcpy>
10006d8a:	e7e4      	b.n	10006d56 <tu_fifo_read_n+0x96>
10006d8c:	1c3b      	adds	r3, r7, #0
10006d8e:	e7bc      	b.n	10006d0a <tu_fifo_read_n+0x4a>
10006d90:	8973      	ldrh	r3, [r6, #10]
10006d92:	b29b      	uxth	r3, r3
10006d94:	006a      	lsls	r2, r5, #1
10006d96:	4293      	cmp	r3, r2
10006d98:	dbe6      	blt.n	10006d68 <tu_fifo_read_n+0xa8>
10006d9a:	e7e3      	b.n	10006d64 <tu_fifo_read_n+0xa4>
10006d9c:	006f      	lsls	r7, r5, #1
10006d9e:	1b3f      	subs	r7, r7, r4
10006da0:	19df      	adds	r7, r3, r7
10006da2:	b2bf      	uxth	r7, r7
10006da4:	e7a4      	b.n	10006cf0 <tu_fifo_read_n+0x30>
10006da6:	1b5b      	subs	r3, r3, r5
10006da8:	b29c      	uxth	r4, r3
10006daa:	e7a9      	b.n	10006d00 <tu_fifo_read_n+0x40>

10006dac <tu_fifo_write>:
10006dac:	b5f8      	push	{r3, r4, r5, r6, r7, lr}
10006dae:	0004      	movs	r4, r0
10006db0:	68c0      	ldr	r0, [r0, #12]
10006db2:	000e      	movs	r6, r1
10006db4:	2800      	cmp	r0, #0
10006db6:	d003      	beq.n	10006dc0 <tu_fifo_write+0x14>
10006db8:	2101      	movs	r1, #1
10006dba:	4249      	negs	r1, r1
10006dbc:	f000 f994 	bl	100070e8 <__mutex_enter_timeout_ms_veneer>
10006dc0:	8925      	ldrh	r5, [r4, #8]
10006dc2:	8920      	ldrh	r0, [r4, #8]
10006dc4:	8961      	ldrh	r1, [r4, #10]
10006dc6:	88a2      	ldrh	r2, [r4, #4]
10006dc8:	b2ad      	uxth	r5, r5
10006dca:	b283      	uxth	r3, r0
10006dcc:	b28f      	uxth	r7, r1
10006dce:	4288      	cmp	r0, r1
10006dd0:	d328      	bcc.n	10006e24 <tu_fifo_write+0x78>
10006dd2:	1bdb      	subs	r3, r3, r7
10006dd4:	b29b      	uxth	r3, r3
10006dd6:	429a      	cmp	r2, r3
10006dd8:	d809      	bhi.n	10006dee <tu_fifo_write+0x42>
10006dda:	79e7      	ldrb	r7, [r4, #7]
10006ddc:	09ff      	lsrs	r7, r7, #7
10006dde:	d106      	bne.n	10006dee <tu_fifo_write+0x42>
10006de0:	68e0      	ldr	r0, [r4, #12]
10006de2:	2800      	cmp	r0, #0
10006de4:	d001      	beq.n	10006dea <tu_fifo_write+0x3e>
10006de6:	f000 f957 	bl	10007098 <__mutex_exit_veneer>
10006dea:	0038      	movs	r0, r7
10006dec:	bdf8      	pop	{r3, r4, r5, r6, r7, pc}
10006dee:	002b      	movs	r3, r5
10006df0:	4295      	cmp	r5, r2
10006df2:	d303      	bcc.n	10006dfc <tu_fifo_write+0x50>
10006df4:	1a9b      	subs	r3, r3, r2
10006df6:	b29b      	uxth	r3, r3
10006df8:	4293      	cmp	r3, r2
10006dfa:	d2fb      	bcs.n	10006df4 <tu_fifo_write+0x48>
10006dfc:	88e2      	ldrh	r2, [r4, #6]
10006dfe:	6821      	ldr	r1, [r4, #0]
10006e00:	0452      	lsls	r2, r2, #17
10006e02:	0c52      	lsrs	r2, r2, #17
10006e04:	4353      	muls	r3, r2
10006e06:	18c8      	adds	r0, r1, r3
10006e08:	0031      	movs	r1, r6
10006e0a:	f7fd fd93 	bl	10004934 <__wrap___aeabi_memcpy>
10006e0e:	88a2      	ldrh	r2, [r4, #4]
10006e10:	1c6b      	adds	r3, r5, #1
10006e12:	b29b      	uxth	r3, r3
10006e14:	0052      	lsls	r2, r2, #1
10006e16:	429d      	cmp	r5, r3
10006e18:	d909      	bls.n	10006e2e <tu_fifo_write+0x82>
10006e1a:	1a9b      	subs	r3, r3, r2
10006e1c:	b29b      	uxth	r3, r3
10006e1e:	2701      	movs	r7, #1
10006e20:	8123      	strh	r3, [r4, #8]
10006e22:	e7dd      	b.n	10006de0 <tu_fifo_write+0x34>
10006e24:	0051      	lsls	r1, r2, #1
10006e26:	1bc9      	subs	r1, r1, r7
10006e28:	185b      	adds	r3, r3, r1
10006e2a:	b29b      	uxth	r3, r3
10006e2c:	e7d3      	b.n	10006dd6 <tu_fifo_write+0x2a>
10006e2e:	4293      	cmp	r3, r2
10006e30:	dbf5      	blt.n	10006e1e <tu_fifo_write+0x72>
10006e32:	e7f2      	b.n	10006e1a <tu_fifo_write+0x6e>

10006e34 <tu_fifo_write_n>:
10006e34:	b5f0      	push	{r4, r5, r6, r7, lr}
10006e36:	464e      	mov	r6, r9
10006e38:	4645      	mov	r5, r8
10006e3a:	46de      	mov	lr, fp
10006e3c:	4657      	mov	r7, sl
10006e3e:	b5e0      	push	{r5, r6, r7, lr}
10006e40:	4689      	mov	r9, r1
10006e42:	0005      	movs	r5, r0
10006e44:	0014      	movs	r4, r2
10006e46:	b083      	sub	sp, #12
10006e48:	2a00      	cmp	r2, #0
10006e4a:	d06e      	beq.n	10006f2a <tu_fifo_write_n+0xf6>
10006e4c:	68c0      	ldr	r0, [r0, #12]
10006e4e:	2800      	cmp	r0, #0
10006e50:	d003      	beq.n	10006e5a <tu_fifo_write_n+0x26>
10006e52:	2101      	movs	r1, #1
10006e54:	4249      	negs	r1, r1
10006e56:	f000 f947 	bl	100070e8 <__mutex_enter_timeout_ms_veneer>
10006e5a:	892f      	ldrh	r7, [r5, #8]
10006e5c:	79ea      	ldrb	r2, [r5, #7]
10006e5e:	896b      	ldrh	r3, [r5, #10]
10006e60:	b2bf      	uxth	r7, r7
10006e62:	b29b      	uxth	r3, r3
10006e64:	09d2      	lsrs	r2, r2, #7
10006e66:	d142      	bne.n	10006eee <tu_fifo_write_n+0xba>
10006e68:	88ae      	ldrh	r6, [r5, #4]
10006e6a:	429f      	cmp	r7, r3
10006e6c:	d267      	bcs.n	10006f3e <tu_fifo_write_n+0x10a>
10006e6e:	0072      	lsls	r2, r6, #1
10006e70:	1ad3      	subs	r3, r2, r3
10006e72:	18fb      	adds	r3, r7, r3
10006e74:	b29b      	uxth	r3, r3
10006e76:	2200      	movs	r2, #0
10006e78:	4690      	mov	r8, r2
10006e7a:	429e      	cmp	r6, r3
10006e7c:	d931      	bls.n	10006ee2 <tu_fifo_write_n+0xae>
10006e7e:	1af3      	subs	r3, r6, r3
10006e80:	1c1a      	adds	r2, r3, #0
10006e82:	b29b      	uxth	r3, r3
10006e84:	42a3      	cmp	r3, r4
10006e86:	d900      	bls.n	10006e8a <tu_fifo_write_n+0x56>
10006e88:	1c22      	adds	r2, r4, #0
10006e8a:	b293      	uxth	r3, r2
10006e8c:	4698      	mov	r8, r3
10006e8e:	88e8      	ldrh	r0, [r5, #6]
10006e90:	4643      	mov	r3, r8
10006e92:	18fb      	adds	r3, r7, r3
10006e94:	b29b      	uxth	r3, r3
10006e96:	469b      	mov	fp, r3
10006e98:	003c      	movs	r4, r7
10006e9a:	42b7      	cmp	r7, r6
10006e9c:	d303      	bcc.n	10006ea6 <tu_fifo_write_n+0x72>
10006e9e:	1ba4      	subs	r4, r4, r6
10006ea0:	b2a4      	uxth	r4, r4
10006ea2:	42b4      	cmp	r4, r6
10006ea4:	d2fb      	bcs.n	10006e9e <tu_fifo_write_n+0x6a>
10006ea6:	0440      	lsls	r0, r0, #17
10006ea8:	0c43      	lsrs	r3, r0, #17
10006eaa:	0018      	movs	r0, r3
10006eac:	469a      	mov	sl, r3
10006eae:	682b      	ldr	r3, [r5, #0]
10006eb0:	4360      	muls	r0, r4
10006eb2:	469c      	mov	ip, r3
10006eb4:	1b31      	subs	r1, r6, r4
10006eb6:	b289      	uxth	r1, r1
10006eb8:	4460      	add	r0, ip
10006eba:	4541      	cmp	r1, r8
10006ebc:	d34e      	bcc.n	10006f5c <tu_fifo_write_n+0x128>
10006ebe:	4652      	mov	r2, sl
10006ec0:	4643      	mov	r3, r8
10006ec2:	4649      	mov	r1, r9
10006ec4:	435a      	muls	r2, r3
10006ec6:	f7fd fd35 	bl	10004934 <__wrap___aeabi_memcpy>
10006eca:	88ab      	ldrh	r3, [r5, #4]
10006ecc:	005b      	lsls	r3, r3, #1
10006ece:	45bb      	cmp	fp, r7
10006ed0:	d301      	bcc.n	10006ed6 <tu_fifo_write_n+0xa2>
10006ed2:	459b      	cmp	fp, r3
10006ed4:	db03      	blt.n	10006ede <tu_fifo_write_n+0xaa>
10006ed6:	465a      	mov	r2, fp
10006ed8:	1ad3      	subs	r3, r2, r3
10006eda:	b29b      	uxth	r3, r3
10006edc:	469b      	mov	fp, r3
10006ede:	465b      	mov	r3, fp
10006ee0:	812b      	strh	r3, [r5, #8]
10006ee2:	68e8      	ldr	r0, [r5, #12]
10006ee4:	2800      	cmp	r0, #0
10006ee6:	d022      	beq.n	10006f2e <tu_fifo_write_n+0xfa>
10006ee8:	f000 f8d6 	bl	10007098 <__mutex_exit_veneer>
10006eec:	e01f      	b.n	10006f2e <tu_fifo_write_n+0xfa>
10006eee:	88aa      	ldrh	r2, [r5, #4]
10006ef0:	4690      	mov	r8, r2
10006ef2:	4294      	cmp	r4, r2
10006ef4:	d226      	bcs.n	10006f44 <tu_fifo_write_n+0x110>
10006ef6:	429f      	cmp	r7, r3
10006ef8:	d344      	bcc.n	10006f84 <tu_fifo_write_n+0x150>
10006efa:	4641      	mov	r1, r8
10006efc:	1afa      	subs	r2, r7, r3
10006efe:	b292      	uxth	r2, r2
10006f00:	0049      	lsls	r1, r1, #1
10006f02:	1912      	adds	r2, r2, r4
10006f04:	428a      	cmp	r2, r1
10006f06:	db09      	blt.n	10006f1c <tu_fifo_write_n+0xe8>
10006f08:	4642      	mov	r2, r8
10006f0a:	189a      	adds	r2, r3, r2
10006f0c:	b292      	uxth	r2, r2
10006f0e:	1b17      	subs	r7, r2, r4
10006f10:	b2bf      	uxth	r7, r7
10006f12:	4693      	mov	fp, r2
10006f14:	42bb      	cmp	r3, r7
10006f16:	d93a      	bls.n	10006f8e <tu_fifo_write_n+0x15a>
10006f18:	1a7f      	subs	r7, r7, r1
10006f1a:	b2bf      	uxth	r7, r7
10006f1c:	19e3      	adds	r3, r4, r7
10006f1e:	b29b      	uxth	r3, r3
10006f20:	4646      	mov	r6, r8
10006f22:	469b      	mov	fp, r3
10006f24:	46a0      	mov	r8, r4
10006f26:	88e8      	ldrh	r0, [r5, #6]
10006f28:	e7b6      	b.n	10006e98 <tu_fifo_write_n+0x64>
10006f2a:	2300      	movs	r3, #0
10006f2c:	4698      	mov	r8, r3
10006f2e:	4640      	mov	r0, r8
10006f30:	b003      	add	sp, #12
10006f32:	bcf0      	pop	{r4, r5, r6, r7}
10006f34:	46bb      	mov	fp, r7
10006f36:	46b2      	mov	sl, r6
10006f38:	46a9      	mov	r9, r5
10006f3a:	46a0      	mov	r8, r4
10006f3c:	bdf0      	pop	{r4, r5, r6, r7, pc}
10006f3e:	1afb      	subs	r3, r7, r3
10006f40:	b29b      	uxth	r3, r3
10006f42:	e798      	b.n	10006e76 <tu_fifo_write_n+0x42>
10006f44:	88e8      	ldrh	r0, [r5, #6]
10006f46:	1aa2      	subs	r2, r4, r2
10006f48:	0444      	lsls	r4, r0, #17
10006f4a:	0c64      	lsrs	r4, r4, #17
10006f4c:	4354      	muls	r4, r2
10006f4e:	4642      	mov	r2, r8
10006f50:	44a1      	add	r9, r4
10006f52:	2a00      	cmp	r2, #0
10006f54:	d0c5      	beq.n	10006ee2 <tu_fifo_write_n+0xae>
10006f56:	4646      	mov	r6, r8
10006f58:	001f      	movs	r7, r3
10006f5a:	e799      	b.n	10006e90 <tu_fifo_write_n+0x5c>
10006f5c:	4653      	mov	r3, sl
10006f5e:	4359      	muls	r1, r3
10006f60:	b289      	uxth	r1, r1
10006f62:	000a      	movs	r2, r1
10006f64:	9101      	str	r1, [sp, #4]
10006f66:	4649      	mov	r1, r9
10006f68:	f7fd fce4 	bl	10004934 <__wrap___aeabi_memcpy>
10006f6c:	4643      	mov	r3, r8
10006f6e:	1b9a      	subs	r2, r3, r6
10006f70:	4653      	mov	r3, sl
10006f72:	18a2      	adds	r2, r4, r2
10006f74:	435a      	muls	r2, r3
10006f76:	9901      	ldr	r1, [sp, #4]
10006f78:	6828      	ldr	r0, [r5, #0]
10006f7a:	b292      	uxth	r2, r2
10006f7c:	4449      	add	r1, r9
10006f7e:	f7fd fcd9 	bl	10004934 <__wrap___aeabi_memcpy>
10006f82:	e7a2      	b.n	10006eca <tu_fifo_write_n+0x96>
10006f84:	0051      	lsls	r1, r2, #1
10006f86:	1aca      	subs	r2, r1, r3
10006f88:	18ba      	adds	r2, r7, r2
10006f8a:	b292      	uxth	r2, r2
10006f8c:	e7b9      	b.n	10006f02 <tu_fifo_write_n+0xce>
10006f8e:	42b9      	cmp	r1, r7
10006f90:	ddc2      	ble.n	10006f18 <tu_fifo_write_n+0xe4>
10006f92:	4646      	mov	r6, r8
10006f94:	88e8      	ldrh	r0, [r5, #6]
10006f96:	46a0      	mov	r8, r4
10006f98:	e77e      	b.n	10006e98 <tu_fifo_write_n+0x64>
10006f9a:	46c0      	nop			; (mov r8, r8)

10006f9c <tu_fifo_clear>:
10006f9c:	b510      	push	{r4, lr}
10006f9e:	0004      	movs	r4, r0
10006fa0:	68c0      	ldr	r0, [r0, #12]
10006fa2:	2800      	cmp	r0, #0
10006fa4:	d003      	beq.n	10006fae <tu_fifo_clear+0x12>
10006fa6:	2101      	movs	r1, #1
10006fa8:	4249      	negs	r1, r1
10006faa:	f000 f89d 	bl	100070e8 <__mutex_enter_timeout_ms_veneer>
10006fae:	6920      	ldr	r0, [r4, #16]
10006fb0:	2800      	cmp	r0, #0
10006fb2:	d003      	beq.n	10006fbc <tu_fifo_clear+0x20>
10006fb4:	2101      	movs	r1, #1
10006fb6:	4249      	negs	r1, r1
10006fb8:	f000 f896 	bl	100070e8 <__mutex_enter_timeout_ms_veneer>
10006fbc:	2300      	movs	r3, #0
10006fbe:	68e0      	ldr	r0, [r4, #12]
10006fc0:	8163      	strh	r3, [r4, #10]
10006fc2:	8123      	strh	r3, [r4, #8]
10006fc4:	2800      	cmp	r0, #0
10006fc6:	d001      	beq.n	10006fcc <tu_fifo_clear+0x30>
10006fc8:	f000 f866 	bl	10007098 <__mutex_exit_veneer>
10006fcc:	6920      	ldr	r0, [r4, #16]
10006fce:	2800      	cmp	r0, #0
10006fd0:	d001      	beq.n	10006fd6 <tu_fifo_clear+0x3a>
10006fd2:	f000 f861 	bl	10007098 <__mutex_exit_veneer>
10006fd6:	2001      	movs	r0, #1
10006fd8:	bd10      	pop	{r4, pc}
10006fda:	46c0      	nop			; (mov r8, r8)

10006fdc <tu_fifo_set_overwritable>:
10006fdc:	b570      	push	{r4, r5, r6, lr}
10006fde:	0004      	movs	r4, r0
10006fe0:	68c0      	ldr	r0, [r0, #12]
10006fe2:	000d      	movs	r5, r1
10006fe4:	2800      	cmp	r0, #0
10006fe6:	d003      	beq.n	10006ff0 <tu_fifo_set_overwritable+0x14>
10006fe8:	2101      	movs	r1, #1
10006fea:	4249      	negs	r1, r1
10006fec:	f000 f87c 	bl	100070e8 <__mutex_enter_timeout_ms_veneer>
10006ff0:	6920      	ldr	r0, [r4, #16]
10006ff2:	2800      	cmp	r0, #0
10006ff4:	d003      	beq.n	10006ffe <tu_fifo_set_overwritable+0x22>
10006ff6:	2101      	movs	r1, #1
10006ff8:	4249      	negs	r1, r1
10006ffa:	f000 f875 	bl	100070e8 <__mutex_enter_timeout_ms_veneer>
10006ffe:	217f      	movs	r1, #127	; 0x7f
10007000:	79e3      	ldrb	r3, [r4, #7]
10007002:	01ed      	lsls	r5, r5, #7
10007004:	4019      	ands	r1, r3
10007006:	68e0      	ldr	r0, [r4, #12]
10007008:	4329      	orrs	r1, r5
1000700a:	71e1      	strb	r1, [r4, #7]
1000700c:	2800      	cmp	r0, #0
1000700e:	d001      	beq.n	10007014 <tu_fifo_set_overwritable+0x38>
10007010:	f000 f842 	bl	10007098 <__mutex_exit_veneer>
10007014:	6920      	ldr	r0, [r4, #16]
10007016:	2800      	cmp	r0, #0
10007018:	d001      	beq.n	1000701e <tu_fifo_set_overwritable+0x42>
1000701a:	f000 f83d 	bl	10007098 <__mutex_exit_veneer>
1000701e:	2001      	movs	r0, #1
10007020:	bd70      	pop	{r4, r5, r6, pc}
10007022:	46c0      	nop			; (mov r8, r8)

10007024 <strlen>:
10007024:	b510      	push	{r4, lr}
10007026:	0783      	lsls	r3, r0, #30
10007028:	d00a      	beq.n	10007040 <strlen+0x1c>
1000702a:	0003      	movs	r3, r0
1000702c:	2103      	movs	r1, #3
1000702e:	e002      	b.n	10007036 <strlen+0x12>
10007030:	3301      	adds	r3, #1
10007032:	420b      	tst	r3, r1
10007034:	d005      	beq.n	10007042 <strlen+0x1e>
10007036:	781a      	ldrb	r2, [r3, #0]
10007038:	2a00      	cmp	r2, #0
1000703a:	d1f9      	bne.n	10007030 <strlen+0xc>
1000703c:	1a18      	subs	r0, r3, r0
1000703e:	bd10      	pop	{r4, pc}
10007040:	0003      	movs	r3, r0
10007042:	6819      	ldr	r1, [r3, #0]
10007044:	4a0c      	ldr	r2, [pc, #48]	; (10007078 <strlen+0x54>)
10007046:	4c0d      	ldr	r4, [pc, #52]	; (1000707c <strlen+0x58>)
10007048:	188a      	adds	r2, r1, r2
1000704a:	438a      	bics	r2, r1
1000704c:	4222      	tst	r2, r4
1000704e:	d10f      	bne.n	10007070 <strlen+0x4c>
10007050:	6859      	ldr	r1, [r3, #4]
10007052:	4a09      	ldr	r2, [pc, #36]	; (10007078 <strlen+0x54>)
10007054:	3304      	adds	r3, #4
10007056:	188a      	adds	r2, r1, r2
10007058:	438a      	bics	r2, r1
1000705a:	4222      	tst	r2, r4
1000705c:	d108      	bne.n	10007070 <strlen+0x4c>
1000705e:	6859      	ldr	r1, [r3, #4]
10007060:	4a05      	ldr	r2, [pc, #20]	; (10007078 <strlen+0x54>)
10007062:	3304      	adds	r3, #4
10007064:	188a      	adds	r2, r1, r2
10007066:	438a      	bics	r2, r1
10007068:	4222      	tst	r2, r4
1000706a:	d0f1      	beq.n	10007050 <strlen+0x2c>
1000706c:	e000      	b.n	10007070 <strlen+0x4c>
1000706e:	3301      	adds	r3, #1
10007070:	781a      	ldrb	r2, [r3, #0]
10007072:	2a00      	cmp	r2, #0
10007074:	d1fb      	bne.n	1000706e <strlen+0x4a>
10007076:	e7e1      	b.n	1000703c <strlen+0x18>
10007078:	fefefeff 	.word	0xfefefeff
1000707c:	80808080 	.word	0x80808080

10007080 <_fini>:
10007080:	b5f8      	push	{r3, r4, r5, r6, r7, lr}
10007082:	46c0      	nop			; (mov r8, r8)
10007084:	0000      	movs	r0, r0
	...

10007088 <__flash_do_cmd_veneer>:
10007088:	b401      	push	{r0}
1000708a:	4802      	ldr	r0, [pc, #8]	; (10007094 <__flash_do_cmd_veneer+0xc>)
1000708c:	4684      	mov	ip, r0
1000708e:	bc01      	pop	{r0}
10007090:	4760      	bx	ip
10007092:	bf00      	nop
10007094:	200002d1 	.word	0x200002d1

10007098 <__mutex_exit_veneer>:
10007098:	b401      	push	{r0}
1000709a:	4802      	ldr	r0, [pc, #8]	; (100070a4 <__mutex_exit_veneer+0xc>)
1000709c:	4684      	mov	ip, r0
1000709e:	bc01      	pop	{r0}
100070a0:	4760      	bx	ip
100070a2:	bf00      	nop
100070a4:	20000231 	.word	0x20000231

100070a8 <____aeabi_ldiv0_veneer>:
100070a8:	b401      	push	{r0}
100070aa:	4802      	ldr	r0, [pc, #8]	; (100070b4 <____aeabi_ldiv0_veneer+0xc>)
100070ac:	4684      	mov	ip, r0
100070ae:	bc01      	pop	{r0}
100070b0:	4760      	bx	ip
100070b2:	bf00      	nop
100070b4:	20000da1 	.word	0x20000da1

100070b8 <__e15_is_bulkin_ep_veneer>:
100070b8:	b401      	push	{r0}
100070ba:	4802      	ldr	r0, [pc, #8]	; (100070c4 <__e15_is_bulkin_ep_veneer+0xc>)
100070bc:	4684      	mov	ip, r0
100070be:	bc01      	pop	{r0}
100070c0:	4760      	bx	ip
100070c2:	bf00      	nop
100070c4:	200009d1 	.word	0x200009d1

100070c8 <____aeabi_idiv0_veneer>:
100070c8:	b401      	push	{r0}
100070ca:	4802      	ldr	r0, [pc, #8]	; (100070d4 <____aeabi_idiv0_veneer+0xc>)
100070cc:	4684      	mov	ip, r0
100070ce:	bc01      	pop	{r0}
100070d0:	4760      	bx	ip
100070d2:	bf00      	nop
100070d4:	20000da1 	.word	0x20000da1

100070d8 <__mutex_try_enter_veneer>:
100070d8:	b401      	push	{r0}
100070da:	4802      	ldr	r0, [pc, #8]	; (100070e4 <__mutex_try_enter_veneer+0xc>)
100070dc:	4684      	mov	ip, r0
100070de:	bc01      	pop	{r0}
100070e0:	4760      	bx	ip
100070e2:	bf00      	nop
100070e4:	200000c1 	.word	0x200000c1

100070e8 <__mutex_enter_timeout_ms_veneer>:
100070e8:	b401      	push	{r0}
100070ea:	4802      	ldr	r0, [pc, #8]	; (100070f4 <__mutex_enter_timeout_ms_veneer+0xc>)
100070ec:	4684      	mov	ip, r0
100070ee:	bc01      	pop	{r0}
100070f0:	4760      	bx	ip
100070f2:	bf00      	nop
100070f4:	200001a1 	.word	0x200001a1

100070f8 <__mutex_try_enter_block_until_veneer>:
100070f8:	b401      	push	{r0}
100070fa:	4802      	ldr	r0, [pc, #8]	; (10007104 <__mutex_try_enter_block_until_veneer+0xc>)
100070fc:	4684      	mov	ip, r0
100070fe:	bc01      	pop	{r0}
10007100:	4760      	bx	ip
10007102:	bf00      	nop
10007104:	20000105 	.word	0x20000105

10007108 <__hw_endpoint_start_next_buffer_veneer>:
10007108:	b401      	push	{r0}
1000710a:	4802      	ldr	r0, [pc, #8]	; (10007114 <__hw_endpoint_start_next_buffer_veneer+0xc>)
1000710c:	4684      	mov	ip, r0
1000710e:	bc01      	pop	{r0}
10007110:	4760      	bx	ip
10007112:	bf00      	nop
10007114:	20000b75 	.word	0x20000b75

10007118 <__hw_endpoint_reset_transfer_veneer>:
10007118:	b401      	push	{r0}
1000711a:	4802      	ldr	r0, [pc, #8]	; (10007124 <__hw_endpoint_reset_transfer_veneer+0xc>)
1000711c:	4684      	mov	ip, r0
1000711e:	bc01      	pop	{r0}
10007120:	4760      	bx	ip
10007122:	bf00      	nop
10007124:	20000b11 	.word	0x20000b11

10007128 <___hw_endpoint_buffer_control_update32_veneer>:
10007128:	b401      	push	{r0}
1000712a:	4802      	ldr	r0, [pc, #8]	; (10007134 <___hw_endpoint_buffer_control_update32_veneer+0xc>)
1000712c:	4684      	mov	ip, r0
1000712e:	bc01      	pop	{r0}
10007130:	4760      	bx	ip
10007132:	bf00      	nop
10007134:	20000b1d 	.word	0x20000b1d

10007138 <__reset_non_control_endpoints_veneer>:
10007138:	b401      	push	{r0}
1000713a:	4802      	ldr	r0, [pc, #8]	; (10007144 <__reset_non_control_endpoints_veneer+0xc>)
1000713c:	4684      	mov	ip, r0
1000713e:	bc01      	pop	{r0}
10007140:	4760      	bx	ip
10007142:	bf00      	nop
10007144:	20000395 	.word	0x20000395

10007148 <__e15_is_critical_frame_period_veneer>:
10007148:	b401      	push	{r0}
1000714a:	4802      	ldr	r0, [pc, #8]	; (10007154 <__e15_is_critical_frame_period_veneer+0xc>)
1000714c:	4684      	mov	ip, r0
1000714e:	bc01      	pop	{r0}
10007150:	4760      	bx	ip
10007152:	bf00      	nop
10007154:	200009f9 	.word	0x200009f9

Disassembly of section .data:

200000c0 <mutex_try_enter>:
200000c0:	0003      	movs	r3, r0
200000c2:	6800      	ldr	r0, [r0, #0]
200000c4:	f3ef 8c10 	mrs	ip, PRIMASK
200000c8:	b672      	cpsid	i
200000ca:	6802      	ldr	r2, [r0, #0]
200000cc:	2a00      	cmp	r2, #0
200000ce:	d0fc      	beq.n	200000ca <mutex_try_enter+0xa>
200000d0:	f3bf 8f5f 	dmb	sy
200000d4:	2204      	movs	r2, #4
200000d6:	569a      	ldrsb	r2, [r3, r2]
200000d8:	2a00      	cmp	r2, #0
200000da:	db0b      	blt.n	200000f4 <mutex_try_enter+0x34>
200000dc:	2900      	cmp	r1, #0
200000de:	d00f      	beq.n	20000100 <mutex_try_enter+0x40>
200000e0:	2000      	movs	r0, #0
200000e2:	600a      	str	r2, [r1, #0]
200000e4:	681b      	ldr	r3, [r3, #0]
200000e6:	f3bf 8f5f 	dmb	sy
200000ea:	2200      	movs	r2, #0
200000ec:	601a      	str	r2, [r3, #0]
200000ee:	f38c 8810 	msr	PRIMASK, ip
200000f2:	4770      	bx	lr
200000f4:	22d0      	movs	r2, #208	; 0xd0
200000f6:	0612      	lsls	r2, r2, #24
200000f8:	6812      	ldr	r2, [r2, #0]
200000fa:	2001      	movs	r0, #1
200000fc:	711a      	strb	r2, [r3, #4]
200000fe:	e7f1      	b.n	200000e4 <mutex_try_enter+0x24>
20000100:	2000      	movs	r0, #0
20000102:	e7ef      	b.n	200000e4 <mutex_try_enter+0x24>

20000104 <mutex_try_enter_block_until>:
20000104:	b5f0      	push	{r4, r5, r6, r7, lr}
20000106:	46c6      	mov	lr, r8
20000108:	0015      	movs	r5, r2
2000010a:	b500      	push	{lr}
2000010c:	0004      	movs	r4, r0
2000010e:	001e      	movs	r6, r3
20000110:	6802      	ldr	r2, [r0, #0]
20000112:	f3ef 8110 	mrs	r1, PRIMASK
20000116:	b672      	cpsid	i
20000118:	6813      	ldr	r3, [r2, #0]
2000011a:	2b00      	cmp	r3, #0
2000011c:	d0fc      	beq.n	20000118 <mutex_try_enter_block_until+0x14>
2000011e:	f3bf 8f5f 	dmb	sy
20000122:	2304      	movs	r3, #4
20000124:	56e3      	ldrsb	r3, [r4, r3]
20000126:	2b00      	cmp	r3, #0
20000128:	db2d      	blt.n	20000186 <mutex_try_enter_block_until+0x82>
2000012a:	6822      	ldr	r2, [r4, #0]
2000012c:	f3bf 8f5f 	dmb	sy
20000130:	2000      	movs	r0, #0
20000132:	6010      	str	r0, [r2, #0]
20000134:	f381 8810 	msr	PRIMASK, r1
20000138:	22d0      	movs	r2, #208	; 0xd0
2000013a:	0612      	lsls	r2, r2, #24
2000013c:	7812      	ldrb	r2, [r2, #0]
2000013e:	b252      	sxtb	r2, r2
20000140:	4690      	mov	r8, r2
20000142:	429a      	cmp	r2, r3
20000144:	d103      	bne.n	2000014e <mutex_try_enter_block_until+0x4a>
20000146:	2000      	movs	r0, #0
20000148:	bc80      	pop	{r7}
2000014a:	46b8      	mov	r8, r7
2000014c:	bdf0      	pop	{r4, r5, r6, r7, pc}
2000014e:	2700      	movs	r7, #0
20000150:	e00b      	b.n	2000016a <mutex_try_enter_block_until+0x66>
20000152:	6823      	ldr	r3, [r4, #0]
20000154:	f3bf 8f5f 	dmb	sy
20000158:	601f      	str	r7, [r3, #0]
2000015a:	f381 8810 	msr	PRIMASK, r1
2000015e:	0028      	movs	r0, r5
20000160:	0031      	movs	r1, r6
20000162:	f000 fe51 	bl	20000e08 <__best_effort_wfe_or_timeout_veneer>
20000166:	2800      	cmp	r0, #0
20000168:	d1ed      	bne.n	20000146 <mutex_try_enter_block_until+0x42>
2000016a:	6822      	ldr	r2, [r4, #0]
2000016c:	f3ef 8110 	mrs	r1, PRIMASK
20000170:	b672      	cpsid	i
20000172:	6813      	ldr	r3, [r2, #0]
20000174:	2b00      	cmp	r3, #0
20000176:	d0fc      	beq.n	20000172 <mutex_try_enter_block_until+0x6e>
20000178:	f3bf 8f5f 	dmb	sy
2000017c:	7923      	ldrb	r3, [r4, #4]
2000017e:	2b7f      	cmp	r3, #127	; 0x7f
20000180:	d9e7      	bls.n	20000152 <mutex_try_enter_block_until+0x4e>
20000182:	4643      	mov	r3, r8
20000184:	e002      	b.n	2000018c <mutex_try_enter_block_until+0x88>
20000186:	23d0      	movs	r3, #208	; 0xd0
20000188:	061b      	lsls	r3, r3, #24
2000018a:	681b      	ldr	r3, [r3, #0]
2000018c:	7123      	strb	r3, [r4, #4]
2000018e:	6823      	ldr	r3, [r4, #0]
20000190:	f3bf 8f5f 	dmb	sy
20000194:	2200      	movs	r2, #0
20000196:	601a      	str	r2, [r3, #0]
20000198:	f381 8810 	msr	PRIMASK, r1
2000019c:	2001      	movs	r0, #1
2000019e:	e7d3      	b.n	20000148 <mutex_try_enter_block_until+0x44>

200001a0 <mutex_enter_timeout_ms>:
200001a0:	b5f0      	push	{r4, r5, r6, r7, lr}
200001a2:	46c6      	mov	lr, r8
200001a4:	b500      	push	{lr}
200001a6:	000d      	movs	r5, r1
200001a8:	0004      	movs	r4, r0
200001aa:	f000 fe05 	bl	20000db8 <__time_us_64_veneer>
200001ae:	22fa      	movs	r2, #250	; 0xfa
200001b0:	0006      	movs	r6, r0
200001b2:	000f      	movs	r7, r1
200001b4:	2300      	movs	r3, #0
200001b6:	0028      	movs	r0, r5
200001b8:	2100      	movs	r1, #0
200001ba:	0092      	lsls	r2, r2, #2
200001bc:	f000 fe1c 	bl	20000df8 <____wrap___aeabi_lmul_veneer>
200001c0:	1836      	adds	r6, r6, r0
200001c2:	414f      	adcs	r7, r1
200001c4:	2f00      	cmp	r7, #0
200001c6:	db2c      	blt.n	20000222 <mutex_enter_timeout_ms+0x82>
200001c8:	23d0      	movs	r3, #208	; 0xd0
200001ca:	061b      	lsls	r3, r3, #24
200001cc:	681b      	ldr	r3, [r3, #0]
200001ce:	2500      	movs	r5, #0
200001d0:	4698      	mov	r8, r3
200001d2:	e00b      	b.n	200001ec <mutex_enter_timeout_ms+0x4c>
200001d4:	6823      	ldr	r3, [r4, #0]
200001d6:	f3bf 8f5f 	dmb	sy
200001da:	601d      	str	r5, [r3, #0]
200001dc:	f381 8810 	msr	PRIMASK, r1
200001e0:	0030      	movs	r0, r6
200001e2:	0039      	movs	r1, r7
200001e4:	f000 fe10 	bl	20000e08 <__best_effort_wfe_or_timeout_veneer>
200001e8:	2800      	cmp	r0, #0
200001ea:	d118      	bne.n	2000021e <mutex_enter_timeout_ms+0x7e>
200001ec:	6822      	ldr	r2, [r4, #0]
200001ee:	f3ef 8110 	mrs	r1, PRIMASK
200001f2:	b672      	cpsid	i
200001f4:	6813      	ldr	r3, [r2, #0]
200001f6:	2b00      	cmp	r3, #0
200001f8:	d0fc      	beq.n	200001f4 <mutex_enter_timeout_ms+0x54>
200001fa:	f3bf 8f5f 	dmb	sy
200001fe:	7923      	ldrb	r3, [r4, #4]
20000200:	2b7f      	cmp	r3, #127	; 0x7f
20000202:	d9e7      	bls.n	200001d4 <mutex_enter_timeout_ms+0x34>
20000204:	4643      	mov	r3, r8
20000206:	7123      	strb	r3, [r4, #4]
20000208:	6823      	ldr	r3, [r4, #0]
2000020a:	f3bf 8f5f 	dmb	sy
2000020e:	2200      	movs	r2, #0
20000210:	601a      	str	r2, [r3, #0]
20000212:	f381 8810 	msr	PRIMASK, r1
20000216:	2001      	movs	r0, #1
20000218:	bc80      	pop	{r7}
2000021a:	46b8      	mov	r8, r7
2000021c:	bdf0      	pop	{r4, r5, r6, r7, pc}
2000021e:	2000      	movs	r0, #0
20000220:	e7fa      	b.n	20000218 <mutex_enter_timeout_ms+0x78>
20000222:	2601      	movs	r6, #1
20000224:	4f01      	ldr	r7, [pc, #4]	; (2000022c <mutex_enter_timeout_ms+0x8c>)
20000226:	4276      	negs	r6, r6
20000228:	e7ce      	b.n	200001c8 <mutex_enter_timeout_ms+0x28>
2000022a:	46c0      	nop			; (mov r8, r8)
2000022c:	7fffffff 	.word	0x7fffffff

20000230 <mutex_exit>:
20000230:	6802      	ldr	r2, [r0, #0]
20000232:	f3ef 8110 	mrs	r1, PRIMASK
20000236:	b672      	cpsid	i
20000238:	6813      	ldr	r3, [r2, #0]
2000023a:	2b00      	cmp	r3, #0
2000023c:	d0fc      	beq.n	20000238 <mutex_exit+0x8>
2000023e:	f3bf 8f5f 	dmb	sy
20000242:	23ff      	movs	r3, #255	; 0xff
20000244:	7103      	strb	r3, [r0, #4]
20000246:	6803      	ldr	r3, [r0, #0]
20000248:	f3bf 8f5f 	dmb	sy
2000024c:	2200      	movs	r2, #0
2000024e:	601a      	str	r2, [r3, #0]
20000250:	f381 8810 	msr	PRIMASK, r1
20000254:	bf40      	sev
20000256:	4770      	bx	lr

20000258 <flash_init_boot2_copyout>:
20000258:	4808      	ldr	r0, [pc, #32]	; (2000027c <flash_init_boot2_copyout+0x24>)
2000025a:	b510      	push	{r4, lr}
2000025c:	7803      	ldrb	r3, [r0, #0]
2000025e:	2b00      	cmp	r3, #0
20000260:	d10a      	bne.n	20000278 <flash_init_boot2_copyout+0x20>
20000262:	2380      	movs	r3, #128	; 0x80
20000264:	4906      	ldr	r1, [pc, #24]	; (20000280 <flash_init_boot2_copyout+0x28>)
20000266:	4a07      	ldr	r2, [pc, #28]	; (20000284 <flash_init_boot2_copyout+0x2c>)
20000268:	055b      	lsls	r3, r3, #21
2000026a:	681c      	ldr	r4, [r3, #0]
2000026c:	50cc      	str	r4, [r1, r3]
2000026e:	3304      	adds	r3, #4
20000270:	4293      	cmp	r3, r2
20000272:	d1fa      	bne.n	2000026a <flash_init_boot2_copyout+0x12>
20000274:	2301      	movs	r3, #1
20000276:	7003      	strb	r3, [r0, #0]
20000278:	bd10      	pop	{r4, pc}
2000027a:	46c0      	nop			; (mov r8, r8)
2000027c:	20001cb6 	.word	0x20001cb6
20000280:	10001698 	.word	0x10001698
20000284:	10000100 	.word	0x10000100

20000288 <flash_enable_xip_via_boot2>:
20000288:	b510      	push	{r4, lr}
2000028a:	4b02      	ldr	r3, [pc, #8]	; (20000294 <flash_enable_xip_via_boot2+0xc>)
2000028c:	3301      	adds	r3, #1
2000028e:	4798      	blx	r3
20000290:	bd10      	pop	{r4, pc}
20000292:	46c0      	nop			; (mov r8, r8)
20000294:	20001698 	.word	0x20001698

20000298 <flash_cs_force.constprop.0>:
20000298:	4b03      	ldr	r3, [pc, #12]	; (200002a8 <flash_cs_force.constprop.0+0x10>)
2000029a:	681a      	ldr	r2, [r3, #0]
2000029c:	23c0      	movs	r3, #192	; 0xc0
2000029e:	009b      	lsls	r3, r3, #2
200002a0:	4393      	bics	r3, r2
200002a2:	4a02      	ldr	r2, [pc, #8]	; (200002ac <flash_cs_force.constprop.0+0x14>)
200002a4:	6013      	str	r3, [r2, #0]
200002a6:	4770      	bx	lr
200002a8:	4001800c 	.word	0x4001800c
200002ac:	4001900c 	.word	0x4001900c

200002b0 <flash_cs_force.constprop.1>:
200002b0:	4b05      	ldr	r3, [pc, #20]	; (200002c8 <flash_cs_force.constprop.1+0x18>)
200002b2:	681a      	ldr	r2, [r3, #0]
200002b4:	2380      	movs	r3, #128	; 0x80
200002b6:	009b      	lsls	r3, r3, #2
200002b8:	4053      	eors	r3, r2
200002ba:	22c0      	movs	r2, #192	; 0xc0
200002bc:	0092      	lsls	r2, r2, #2
200002be:	4013      	ands	r3, r2
200002c0:	4a02      	ldr	r2, [pc, #8]	; (200002cc <flash_cs_force.constprop.1+0x1c>)
200002c2:	6013      	str	r3, [r2, #0]
200002c4:	4770      	bx	lr
200002c6:	46c0      	nop			; (mov r8, r8)
200002c8:	4001800c 	.word	0x4001800c
200002cc:	4001900c 	.word	0x4001900c

200002d0 <flash_do_cmd>:
200002d0:	2314      	movs	r3, #20
200002d2:	b5f0      	push	{r4, r5, r6, r7, lr}
200002d4:	46d6      	mov	lr, sl
200002d6:	464f      	mov	r7, r9
200002d8:	4646      	mov	r6, r8
200002da:	469a      	mov	sl, r3
200002dc:	4681      	mov	r9, r0
200002de:	8818      	ldrh	r0, [r3, #0]
200002e0:	3304      	adds	r3, #4
200002e2:	b5c0      	push	{r6, r7, lr}
200002e4:	4698      	mov	r8, r3
200002e6:	000e      	movs	r6, r1
200002e8:	881b      	ldrh	r3, [r3, #0]
200002ea:	4927      	ldr	r1, [pc, #156]	; (20000388 <flash_do_cmd+0xb8>)
200002ec:	0014      	movs	r4, r2
200002ee:	4798      	blx	r3
200002f0:	4653      	mov	r3, sl
200002f2:	0007      	movs	r7, r0
200002f4:	8818      	ldrh	r0, [r3, #0]
200002f6:	4643      	mov	r3, r8
200002f8:	4924      	ldr	r1, [pc, #144]	; (2000038c <flash_do_cmd+0xbc>)
200002fa:	881b      	ldrh	r3, [r3, #0]
200002fc:	4798      	blx	r3
200002fe:	4653      	mov	r3, sl
20000300:	0005      	movs	r5, r0
20000302:	8818      	ldrh	r0, [r3, #0]
20000304:	4643      	mov	r3, r8
20000306:	4922      	ldr	r1, [pc, #136]	; (20000390 <flash_do_cmd+0xc0>)
20000308:	881b      	ldrh	r3, [r3, #0]
2000030a:	4798      	blx	r3
2000030c:	4680      	mov	r8, r0
2000030e:	f7ff ffa3 	bl	20000258 <flash_init_boot2_copyout>
20000312:	47b8      	blx	r7
20000314:	47a8      	blx	r5
20000316:	f7ff ffcb 	bl	200002b0 <flash_cs_force.constprop.1>
2000031a:	2c00      	cmp	r4, #0
2000031c:	d01b      	beq.n	20000356 <flash_do_cmd+0x86>
2000031e:	21c0      	movs	r1, #192	; 0xc0
20000320:	0022      	movs	r2, r4
20000322:	2708      	movs	r7, #8
20000324:	2002      	movs	r0, #2
20000326:	0549      	lsls	r1, r1, #21
20000328:	003d      	movs	r5, r7
2000032a:	6a8b      	ldr	r3, [r1, #40]	; 0x28
2000032c:	401d      	ands	r5, r3
2000032e:	4218      	tst	r0, r3
20000330:	d00b      	beq.n	2000034a <flash_do_cmd+0x7a>
20000332:	2c00      	cmp	r4, #0
20000334:	d009      	beq.n	2000034a <flash_do_cmd+0x7a>
20000336:	1b13      	subs	r3, r2, r4
20000338:	2b0d      	cmp	r3, #13
2000033a:	d81f      	bhi.n	2000037c <flash_do_cmd+0xac>
2000033c:	464b      	mov	r3, r9
2000033e:	781b      	ldrb	r3, [r3, #0]
20000340:	3c01      	subs	r4, #1
20000342:	660b      	str	r3, [r1, #96]	; 0x60
20000344:	2301      	movs	r3, #1
20000346:	469c      	mov	ip, r3
20000348:	44e1      	add	r9, ip
2000034a:	0023      	movs	r3, r4
2000034c:	2d00      	cmp	r5, #0
2000034e:	d10c      	bne.n	2000036a <flash_do_cmd+0x9a>
20000350:	4313      	orrs	r3, r2
20000352:	2b00      	cmp	r3, #0
20000354:	d1e8      	bne.n	20000328 <flash_do_cmd+0x58>
20000356:	f7ff ff9f 	bl	20000298 <flash_cs_force.constprop.0>
2000035a:	47c0      	blx	r8
2000035c:	f7ff ff94 	bl	20000288 <flash_enable_xip_via_boot2>
20000360:	bce0      	pop	{r5, r6, r7}
20000362:	46ba      	mov	sl, r7
20000364:	46b1      	mov	r9, r6
20000366:	46a8      	mov	r8, r5
20000368:	bdf0      	pop	{r4, r5, r6, r7, pc}
2000036a:	2a00      	cmp	r2, #0
2000036c:	d0f1      	beq.n	20000352 <flash_do_cmd+0x82>
2000036e:	6e0b      	ldr	r3, [r1, #96]	; 0x60
20000370:	3a01      	subs	r2, #1
20000372:	7033      	strb	r3, [r6, #0]
20000374:	0013      	movs	r3, r2
20000376:	3601      	adds	r6, #1
20000378:	4323      	orrs	r3, r4
2000037a:	e7ea      	b.n	20000352 <flash_do_cmd+0x82>
2000037c:	2d00      	cmp	r5, #0
2000037e:	d0d3      	beq.n	20000328 <flash_do_cmd+0x58>
20000380:	2a00      	cmp	r2, #0
20000382:	d0d1      	beq.n	20000328 <flash_do_cmd+0x58>
20000384:	e7f3      	b.n	2000036e <flash_do_cmd+0x9e>
20000386:	46c0      	nop			; (mov r8, r8)
20000388:	00004649 	.word	0x00004649
2000038c:	00005845 	.word	0x00005845
20000390:	00004346 	.word	0x00004346

20000394 <reset_non_control_endpoints>:
20000394:	2300      	movs	r3, #0
20000396:	4a1c      	ldr	r2, [pc, #112]	; (20000408 <reset_non_control_endpoints+0x74>)
20000398:	b510      	push	{r4, lr}
2000039a:	6093      	str	r3, [r2, #8]
2000039c:	60d3      	str	r3, [r2, #12]
2000039e:	4a1b      	ldr	r2, [pc, #108]	; (2000040c <reset_non_control_endpoints+0x78>)
200003a0:	2100      	movs	r1, #0
200003a2:	6093      	str	r3, [r2, #8]
200003a4:	60d3      	str	r3, [r2, #12]
200003a6:	4a1a      	ldr	r2, [pc, #104]	; (20000410 <reset_non_control_endpoints+0x7c>)
200003a8:	481a      	ldr	r0, [pc, #104]	; (20000414 <reset_non_control_endpoints+0x80>)
200003aa:	6093      	str	r3, [r2, #8]
200003ac:	60d3      	str	r3, [r2, #12]
200003ae:	4a1a      	ldr	r2, [pc, #104]	; (20000418 <reset_non_control_endpoints+0x84>)
200003b0:	6093      	str	r3, [r2, #8]
200003b2:	60d3      	str	r3, [r2, #12]
200003b4:	4a19      	ldr	r2, [pc, #100]	; (2000041c <reset_non_control_endpoints+0x88>)
200003b6:	6093      	str	r3, [r2, #8]
200003b8:	60d3      	str	r3, [r2, #12]
200003ba:	4a19      	ldr	r2, [pc, #100]	; (20000420 <reset_non_control_endpoints+0x8c>)
200003bc:	6093      	str	r3, [r2, #8]
200003be:	60d3      	str	r3, [r2, #12]
200003c0:	4a18      	ldr	r2, [pc, #96]	; (20000424 <reset_non_control_endpoints+0x90>)
200003c2:	6093      	str	r3, [r2, #8]
200003c4:	60d3      	str	r3, [r2, #12]
200003c6:	4a18      	ldr	r2, [pc, #96]	; (20000428 <reset_non_control_endpoints+0x94>)
200003c8:	6093      	str	r3, [r2, #8]
200003ca:	60d3      	str	r3, [r2, #12]
200003cc:	4a17      	ldr	r2, [pc, #92]	; (2000042c <reset_non_control_endpoints+0x98>)
200003ce:	6093      	str	r3, [r2, #8]
200003d0:	60d3      	str	r3, [r2, #12]
200003d2:	4a17      	ldr	r2, [pc, #92]	; (20000430 <reset_non_control_endpoints+0x9c>)
200003d4:	6093      	str	r3, [r2, #8]
200003d6:	60d3      	str	r3, [r2, #12]
200003d8:	4a16      	ldr	r2, [pc, #88]	; (20000434 <reset_non_control_endpoints+0xa0>)
200003da:	6093      	str	r3, [r2, #8]
200003dc:	60d3      	str	r3, [r2, #12]
200003de:	4a16      	ldr	r2, [pc, #88]	; (20000438 <reset_non_control_endpoints+0xa4>)
200003e0:	6093      	str	r3, [r2, #8]
200003e2:	60d3      	str	r3, [r2, #12]
200003e4:	4a15      	ldr	r2, [pc, #84]	; (2000043c <reset_non_control_endpoints+0xa8>)
200003e6:	6093      	str	r3, [r2, #8]
200003e8:	60d3      	str	r3, [r2, #12]
200003ea:	4a15      	ldr	r2, [pc, #84]	; (20000440 <reset_non_control_endpoints+0xac>)
200003ec:	6093      	str	r3, [r2, #8]
200003ee:	60d3      	str	r3, [r2, #12]
200003f0:	4a14      	ldr	r2, [pc, #80]	; (20000444 <reset_non_control_endpoints+0xb0>)
200003f2:	6093      	str	r3, [r2, #8]
200003f4:	60d3      	str	r3, [r2, #12]
200003f6:	22f0      	movs	r2, #240	; 0xf0
200003f8:	0092      	lsls	r2, r2, #2
200003fa:	f000 fcd5 	bl	20000da8 <____wrap_memset_veneer>
200003fe:	4b12      	ldr	r3, [pc, #72]	; (20000448 <reset_non_control_endpoints+0xb4>)
20000400:	4a12      	ldr	r2, [pc, #72]	; (2000044c <reset_non_control_endpoints+0xb8>)
20000402:	601a      	str	r2, [r3, #0]
20000404:	bd10      	pop	{r4, pc}
20000406:	46c0      	nop			; (mov r8, r8)
20000408:	50100000 	.word	0x50100000
2000040c:	50100008 	.word	0x50100008
20000410:	50100010 	.word	0x50100010
20000414:	20001880 	.word	0x20001880
20000418:	50100018 	.word	0x50100018
2000041c:	50100020 	.word	0x50100020
20000420:	50100028 	.word	0x50100028
20000424:	50100030 	.word	0x50100030
20000428:	50100038 	.word	0x50100038
2000042c:	50100040 	.word	0x50100040
20000430:	50100048 	.word	0x50100048
20000434:	50100050 	.word	0x50100050
20000438:	50100058 	.word	0x50100058
2000043c:	50100060 	.word	0x50100060
20000440:	50100068 	.word	0x50100068
20000444:	50100070 	.word	0x50100070
20000448:	20001c48 	.word	0x20001c48
2000044c:	50100180 	.word	0x50100180

20000450 <hw_handle_buff_status>:
20000450:	b5f0      	push	{r4, r5, r6, r7, lr}
20000452:	4657      	mov	r7, sl
20000454:	46de      	mov	lr, fp
20000456:	464e      	mov	r6, r9
20000458:	4645      	mov	r5, r8
2000045a:	b5e0      	push	{r5, r6, r7, lr}
2000045c:	4b23      	ldr	r3, [pc, #140]	; (200004ec <hw_handle_buff_status+0x9c>)
2000045e:	b087      	sub	sp, #28
20000460:	6d9f      	ldr	r7, [r3, #88]	; 0x58
20000462:	2f00      	cmp	r7, #0
20000464:	d023      	beq.n	200004ae <hw_handle_buff_status+0x5e>
20000466:	4b22      	ldr	r3, [pc, #136]	; (200004f0 <hw_handle_buff_status+0xa0>)
20000468:	2400      	movs	r4, #0
2000046a:	4699      	mov	r9, r3
2000046c:	2301      	movs	r3, #1
2000046e:	4698      	mov	r8, r3
20000470:	4b20      	ldr	r3, [pc, #128]	; (200004f4 <hw_handle_buff_status+0xa4>)
20000472:	2601      	movs	r6, #1
20000474:	469a      	mov	sl, r3
20000476:	e004      	b.n	20000482 <hw_handle_buff_status+0x32>
20000478:	3401      	adds	r4, #1
2000047a:	0076      	lsls	r6, r6, #1
2000047c:	b2e4      	uxtb	r4, r4
2000047e:	2c20      	cmp	r4, #32
20000480:	d015      	beq.n	200004ae <hw_handle_buff_status+0x5e>
20000482:	423e      	tst	r6, r7
20000484:	d0f8      	beq.n	20000478 <hw_handle_buff_status+0x28>
20000486:	464b      	mov	r3, r9
20000488:	659e      	str	r6, [r3, #88]	; 0x58
2000048a:	4643      	mov	r3, r8
2000048c:	0865      	lsrs	r5, r4, #1
2000048e:	006d      	lsls	r5, r5, #1
20000490:	43a3      	bics	r3, r4
20000492:	18ed      	adds	r5, r5, r3
20000494:	016d      	lsls	r5, r5, #5
20000496:	4455      	add	r5, sl
20000498:	0028      	movs	r0, r5
2000049a:	f000 fba1 	bl	20000be0 <hw_endpoint_xfer_continue>
2000049e:	2800      	cmp	r0, #0
200004a0:	d10c      	bne.n	200004bc <hw_handle_buff_status+0x6c>
200004a2:	3401      	adds	r4, #1
200004a4:	43b7      	bics	r7, r6
200004a6:	b2e4      	uxtb	r4, r4
200004a8:	0076      	lsls	r6, r6, #1
200004aa:	2f00      	cmp	r7, #0
200004ac:	d1e7      	bne.n	2000047e <hw_handle_buff_status+0x2e>
200004ae:	b007      	add	sp, #28
200004b0:	bcf0      	pop	{r4, r5, r6, r7}
200004b2:	46bb      	mov	fp, r7
200004b4:	46b2      	mov	sl, r6
200004b6:	46a9      	mov	r9, r5
200004b8:	46a0      	mov	r8, r4
200004ba:	bdf0      	pop	{r4, r5, r6, r7, pc}
200004bc:	78ab      	ldrb	r3, [r5, #2]
200004be:	2208      	movs	r2, #8
200004c0:	469b      	mov	fp, r3
200004c2:	8aeb      	ldrh	r3, [r5, #22]
200004c4:	2100      	movs	r1, #0
200004c6:	a803      	add	r0, sp, #12
200004c8:	9301      	str	r3, [sp, #4]
200004ca:	f000 fc6d 	bl	20000da8 <____wrap_memset_veneer>
200004ce:	2307      	movs	r3, #7
200004d0:	4659      	mov	r1, fp
200004d2:	aa02      	add	r2, sp, #8
200004d4:	7153      	strb	r3, [r2, #5]
200004d6:	9b01      	ldr	r3, [sp, #4]
200004d8:	7211      	strb	r1, [r2, #8]
200004da:	a803      	add	r0, sp, #12
200004dc:	2101      	movs	r1, #1
200004de:	9305      	str	r3, [sp, #20]
200004e0:	f000 fba6 	bl	20000c30 <dcd_event_handler>
200004e4:	0028      	movs	r0, r5
200004e6:	f000 fb13 	bl	20000b10 <hw_endpoint_reset_transfer>
200004ea:	e7da      	b.n	200004a2 <hw_handle_buff_status+0x52>
200004ec:	50110000 	.word	0x50110000
200004f0:	50113000 	.word	0x50113000
200004f4:	20001840 	.word	0x20001840

200004f8 <dcd_rp2040_irq>:
200004f8:	2398      	movs	r3, #152	; 0x98
200004fa:	4ad1      	ldr	r2, [pc, #836]	; (20000840 <dcd_rp2040_irq+0x348>)
200004fc:	b570      	push	{r4, r5, r6, lr}
200004fe:	58d5      	ldr	r5, [r2, r3]
20000500:	2380      	movs	r3, #128	; 0x80
20000502:	002c      	movs	r4, r5
20000504:	029b      	lsls	r3, r3, #10
20000506:	2610      	movs	r6, #16
20000508:	b084      	sub	sp, #16
2000050a:	401c      	ands	r4, r3
2000050c:	421d      	tst	r5, r3
2000050e:	d078      	beq.n	20000602 <dcd_rp2040_irq+0x10a>
20000510:	4bcc      	ldr	r3, [pc, #816]	; (20000844 <dcd_rp2040_irq+0x34c>)
20000512:	4ccd      	ldr	r4, [pc, #820]	; (20000848 <dcd_rp2040_irq+0x350>)
20000514:	6a9a      	ldr	r2, [r3, #40]	; 0x28
20000516:	4bcd      	ldr	r3, [pc, #820]	; (2000084c <dcd_rp2040_irq+0x354>)
20000518:	2600      	movs	r6, #0
2000051a:	601a      	str	r2, [r3, #0]
2000051c:	233b      	movs	r3, #59	; 0x3b
2000051e:	5ce3      	ldrb	r3, [r4, r3]
20000520:	2b02      	cmp	r3, #2
20000522:	d100      	bne.n	20000526 <dcd_rp2040_irq+0x2e>
20000524:	e0d7      	b.n	200006d6 <dcd_rp2040_irq+0x1de>
20000526:	237b      	movs	r3, #123	; 0x7b
20000528:	5ce3      	ldrb	r3, [r4, r3]
2000052a:	2b02      	cmp	r3, #2
2000052c:	d100      	bne.n	20000530 <dcd_rp2040_irq+0x38>
2000052e:	e21a      	b.n	20000966 <dcd_rp2040_irq+0x46e>
20000530:	23bb      	movs	r3, #187	; 0xbb
20000532:	5ce3      	ldrb	r3, [r4, r3]
20000534:	2b02      	cmp	r3, #2
20000536:	d100      	bne.n	2000053a <dcd_rp2040_irq+0x42>
20000538:	e203      	b.n	20000942 <dcd_rp2040_irq+0x44a>
2000053a:	23fb      	movs	r3, #251	; 0xfb
2000053c:	5ce3      	ldrb	r3, [r4, r3]
2000053e:	2b02      	cmp	r3, #2
20000540:	d100      	bne.n	20000544 <dcd_rp2040_irq+0x4c>
20000542:	e1ec      	b.n	2000091e <dcd_rp2040_irq+0x426>
20000544:	233c      	movs	r3, #60	; 0x3c
20000546:	33ff      	adds	r3, #255	; 0xff
20000548:	5ce3      	ldrb	r3, [r4, r3]
2000054a:	2b02      	cmp	r3, #2
2000054c:	d100      	bne.n	20000550 <dcd_rp2040_irq+0x58>
2000054e:	e1d1      	b.n	200008f4 <dcd_rp2040_irq+0x3fc>
20000550:	237c      	movs	r3, #124	; 0x7c
20000552:	33ff      	adds	r3, #255	; 0xff
20000554:	5ce3      	ldrb	r3, [r4, r3]
20000556:	2b02      	cmp	r3, #2
20000558:	d100      	bne.n	2000055c <dcd_rp2040_irq+0x64>
2000055a:	e1b6      	b.n	200008ca <dcd_rp2040_irq+0x3d2>
2000055c:	23bc      	movs	r3, #188	; 0xbc
2000055e:	33ff      	adds	r3, #255	; 0xff
20000560:	5ce3      	ldrb	r3, [r4, r3]
20000562:	2b02      	cmp	r3, #2
20000564:	d100      	bne.n	20000568 <dcd_rp2040_irq+0x70>
20000566:	e19b      	b.n	200008a0 <dcd_rp2040_irq+0x3a8>
20000568:	23fc      	movs	r3, #252	; 0xfc
2000056a:	33ff      	adds	r3, #255	; 0xff
2000056c:	5ce3      	ldrb	r3, [r4, r3]
2000056e:	2b02      	cmp	r3, #2
20000570:	d100      	bne.n	20000574 <dcd_rp2040_irq+0x7c>
20000572:	e14f      	b.n	20000814 <dcd_rp2040_irq+0x31c>
20000574:	4bb6      	ldr	r3, [pc, #728]	; (20000850 <dcd_rp2040_irq+0x358>)
20000576:	5ce3      	ldrb	r3, [r4, r3]
20000578:	2b02      	cmp	r3, #2
2000057a:	d100      	bne.n	2000057e <dcd_rp2040_irq+0x86>
2000057c:	e136      	b.n	200007ec <dcd_rp2040_irq+0x2f4>
2000057e:	4bb5      	ldr	r3, [pc, #724]	; (20000854 <dcd_rp2040_irq+0x35c>)
20000580:	5ce3      	ldrb	r3, [r4, r3]
20000582:	2b02      	cmp	r3, #2
20000584:	d100      	bne.n	20000588 <dcd_rp2040_irq+0x90>
20000586:	e11d      	b.n	200007c4 <dcd_rp2040_irq+0x2cc>
20000588:	4bb3      	ldr	r3, [pc, #716]	; (20000858 <dcd_rp2040_irq+0x360>)
2000058a:	5ce3      	ldrb	r3, [r4, r3]
2000058c:	2b02      	cmp	r3, #2
2000058e:	d100      	bne.n	20000592 <dcd_rp2040_irq+0x9a>
20000590:	e104      	b.n	2000079c <dcd_rp2040_irq+0x2a4>
20000592:	4bb2      	ldr	r3, [pc, #712]	; (2000085c <dcd_rp2040_irq+0x364>)
20000594:	5ce3      	ldrb	r3, [r4, r3]
20000596:	2b02      	cmp	r3, #2
20000598:	d100      	bne.n	2000059c <dcd_rp2040_irq+0xa4>
2000059a:	e0eb      	b.n	20000774 <dcd_rp2040_irq+0x27c>
2000059c:	4bb0      	ldr	r3, [pc, #704]	; (20000860 <dcd_rp2040_irq+0x368>)
2000059e:	5ce3      	ldrb	r3, [r4, r3]
200005a0:	2b02      	cmp	r3, #2
200005a2:	d100      	bne.n	200005a6 <dcd_rp2040_irq+0xae>
200005a4:	e0d2      	b.n	2000074c <dcd_rp2040_irq+0x254>
200005a6:	4baf      	ldr	r3, [pc, #700]	; (20000864 <dcd_rp2040_irq+0x36c>)
200005a8:	5ce3      	ldrb	r3, [r4, r3]
200005aa:	2b02      	cmp	r3, #2
200005ac:	d100      	bne.n	200005b0 <dcd_rp2040_irq+0xb8>
200005ae:	e0b9      	b.n	20000724 <dcd_rp2040_irq+0x22c>
200005b0:	4bad      	ldr	r3, [pc, #692]	; (20000868 <dcd_rp2040_irq+0x370>)
200005b2:	5ce3      	ldrb	r3, [r4, r3]
200005b4:	2b02      	cmp	r3, #2
200005b6:	d100      	bne.n	200005ba <dcd_rp2040_irq+0xc2>
200005b8:	e09e      	b.n	200006f8 <dcd_rp2040_irq+0x200>
200005ba:	4bac      	ldr	r3, [pc, #688]	; (2000086c <dcd_rp2040_irq+0x374>)
200005bc:	5ce3      	ldrb	r3, [r4, r3]
200005be:	2b02      	cmp	r3, #2
200005c0:	d100      	bne.n	200005c4 <dcd_rp2040_irq+0xcc>
200005c2:	e1e2      	b.n	2000098a <dcd_rp2040_irq+0x492>
200005c4:	2e00      	cmp	r6, #0
200005c6:	d108      	bne.n	200005da <dcd_rp2040_irq+0xe2>
200005c8:	4ba9      	ldr	r3, [pc, #676]	; (20000870 <dcd_rp2040_irq+0x378>)
200005ca:	781b      	ldrb	r3, [r3, #0]
200005cc:	2b00      	cmp	r3, #0
200005ce:	d104      	bne.n	200005da <dcd_rp2040_irq+0xe2>
200005d0:	2180      	movs	r1, #128	; 0x80
200005d2:	4aa8      	ldr	r2, [pc, #672]	; (20000874 <dcd_rp2040_irq+0x37c>)
200005d4:	3390      	adds	r3, #144	; 0x90
200005d6:	0289      	lsls	r1, r1, #10
200005d8:	50d1      	str	r1, [r2, r3]
200005da:	ae01      	add	r6, sp, #4
200005dc:	4b98      	ldr	r3, [pc, #608]	; (20000840 <dcd_rp2040_irq+0x348>)
200005de:	220c      	movs	r2, #12
200005e0:	2100      	movs	r1, #0
200005e2:	0030      	movs	r0, r6
200005e4:	6c9c      	ldr	r4, [r3, #72]	; 0x48
200005e6:	f000 fbdf 	bl	20000da8 <____wrap_memset_veneer>
200005ea:	2303      	movs	r3, #3
200005ec:	0564      	lsls	r4, r4, #21
200005ee:	0d64      	lsrs	r4, r4, #21
200005f0:	7073      	strb	r3, [r6, #1]
200005f2:	0030      	movs	r0, r6
200005f4:	9402      	str	r4, [sp, #8]
200005f6:	2101      	movs	r1, #1
200005f8:	2480      	movs	r4, #128	; 0x80
200005fa:	f000 fb19 	bl	20000c30 <dcd_event_handler>
200005fe:	4e9e      	ldr	r6, [pc, #632]	; (20000878 <dcd_rp2040_irq+0x380>)
20000600:	02a4      	lsls	r4, r4, #10
20000602:	06eb      	lsls	r3, r5, #27
20000604:	d463      	bmi.n	200006ce <dcd_rp2040_irq+0x1d6>
20000606:	2380      	movs	r3, #128	; 0x80
20000608:	025b      	lsls	r3, r3, #9
2000060a:	421d      	tst	r5, r3
2000060c:	d014      	beq.n	20000638 <dcd_rp2040_irq+0x140>
2000060e:	2201      	movs	r2, #1
20000610:	2123      	movs	r1, #35	; 0x23
20000612:	431c      	orrs	r4, r3
20000614:	4b8c      	ldr	r3, [pc, #560]	; (20000848 <dcd_rp2040_irq+0x350>)
20000616:	545a      	strb	r2, [r3, r1]
20000618:	70da      	strb	r2, [r3, #3]
2000061a:	23c0      	movs	r3, #192	; 0xc0
2000061c:	4a97      	ldr	r2, [pc, #604]	; (2000087c <dcd_rp2040_irq+0x384>)
2000061e:	00db      	lsls	r3, r3, #3
20000620:	9301      	str	r3, [sp, #4]
20000622:	ab02      	add	r3, sp, #8
20000624:	ca03      	ldmia	r2!, {r0, r1}
20000626:	c303      	stmia	r3!, {r0, r1}
20000628:	2101      	movs	r1, #1
2000062a:	a801      	add	r0, sp, #4
2000062c:	f000 fb00 	bl	20000c30 <dcd_event_handler>
20000630:	2280      	movs	r2, #128	; 0x80
20000632:	4b90      	ldr	r3, [pc, #576]	; (20000874 <dcd_rp2040_irq+0x37c>)
20000634:	0292      	lsls	r2, r2, #10
20000636:	651a      	str	r2, [r3, #80]	; 0x50
20000638:	2380      	movs	r3, #128	; 0x80
2000063a:	015b      	lsls	r3, r3, #5
2000063c:	421d      	tst	r5, r3
2000063e:	d12f      	bne.n	200006a0 <dcd_rp2040_irq+0x1a8>
20000640:	2380      	movs	r3, #128	; 0x80
20000642:	01db      	lsls	r3, r3, #7
20000644:	421d      	tst	r5, r3
20000646:	d11a      	bne.n	2000067e <dcd_rp2040_irq+0x186>
20000648:	2380      	movs	r3, #128	; 0x80
2000064a:	021b      	lsls	r3, r3, #8
2000064c:	421d      	tst	r5, r3
2000064e:	d104      	bne.n	2000065a <dcd_rp2040_irq+0x162>
20000650:	42ac      	cmp	r4, r5
20000652:	d000      	beq.n	20000656 <dcd_rp2040_irq+0x15e>
20000654:	e1b3      	b.n	200009be <dcd_rp2040_irq+0x4c6>
20000656:	b004      	add	sp, #16
20000658:	bd70      	pop	{r4, r5, r6, pc}
2000065a:	ae01      	add	r6, sp, #4
2000065c:	220c      	movs	r2, #12
2000065e:	2100      	movs	r1, #0
20000660:	0030      	movs	r0, r6
20000662:	431c      	orrs	r4, r3
20000664:	f000 fba0 	bl	20000da8 <____wrap_memset_veneer>
20000668:	2305      	movs	r3, #5
2000066a:	2101      	movs	r1, #1
2000066c:	7073      	strb	r3, [r6, #1]
2000066e:	0030      	movs	r0, r6
20000670:	f000 fade 	bl	20000c30 <dcd_event_handler>
20000674:	2280      	movs	r2, #128	; 0x80
20000676:	4b7f      	ldr	r3, [pc, #508]	; (20000874 <dcd_rp2040_irq+0x37c>)
20000678:	0112      	lsls	r2, r2, #4
2000067a:	651a      	str	r2, [r3, #80]	; 0x50
2000067c:	e7e8      	b.n	20000650 <dcd_rp2040_irq+0x158>
2000067e:	ae01      	add	r6, sp, #4
20000680:	220c      	movs	r2, #12
20000682:	2100      	movs	r1, #0
20000684:	0030      	movs	r0, r6
20000686:	431c      	orrs	r4, r3
20000688:	f000 fb8e 	bl	20000da8 <____wrap_memset_veneer>
2000068c:	2304      	movs	r3, #4
2000068e:	2101      	movs	r1, #1
20000690:	7073      	strb	r3, [r6, #1]
20000692:	0030      	movs	r0, r6
20000694:	f000 facc 	bl	20000c30 <dcd_event_handler>
20000698:	2210      	movs	r2, #16
2000069a:	4b76      	ldr	r3, [pc, #472]	; (20000874 <dcd_rp2040_irq+0x37c>)
2000069c:	651a      	str	r2, [r3, #80]	; 0x50
2000069e:	e7d3      	b.n	20000648 <dcd_rp2040_irq+0x150>
200006a0:	2200      	movs	r2, #0
200006a2:	431c      	orrs	r4, r3
200006a4:	4b66      	ldr	r3, [pc, #408]	; (20000840 <dcd_rp2040_irq+0x348>)
200006a6:	ae01      	add	r6, sp, #4
200006a8:	601a      	str	r2, [r3, #0]
200006aa:	f7ff fe73 	bl	20000394 <reset_non_control_endpoints>
200006ae:	220c      	movs	r2, #12
200006b0:	2100      	movs	r1, #0
200006b2:	0030      	movs	r0, r6
200006b4:	f000 fb78 	bl	20000da8 <____wrap_memset_veneer>
200006b8:	2301      	movs	r3, #1
200006ba:	2101      	movs	r1, #1
200006bc:	7073      	strb	r3, [r6, #1]
200006be:	0030      	movs	r0, r6
200006c0:	f000 fab6 	bl	20000c30 <dcd_event_handler>
200006c4:	2280      	movs	r2, #128	; 0x80
200006c6:	4b6b      	ldr	r3, [pc, #428]	; (20000874 <dcd_rp2040_irq+0x37c>)
200006c8:	0312      	lsls	r2, r2, #12
200006ca:	651a      	str	r2, [r3, #80]	; 0x50
200006cc:	e7b8      	b.n	20000640 <dcd_rp2040_irq+0x148>
200006ce:	f7ff febf 	bl	20000450 <hw_handle_buff_status>
200006d2:	0034      	movs	r4, r6
200006d4:	e797      	b.n	20000606 <dcd_rp2040_irq+0x10e>
200006d6:	3338      	adds	r3, #56	; 0x38
200006d8:	5ce6      	ldrb	r6, [r4, r3]
200006da:	2e00      	cmp	r6, #0
200006dc:	d100      	bne.n	200006e0 <dcd_rp2040_irq+0x1e8>
200006de:	e722      	b.n	20000526 <dcd_rp2040_irq+0x2e>
200006e0:	3302      	adds	r3, #2
200006e2:	5ce2      	ldrb	r2, [r4, r3]
200006e4:	2a00      	cmp	r2, #0
200006e6:	d100      	bne.n	200006ea <dcd_rp2040_irq+0x1f2>
200006e8:	e71d      	b.n	20000526 <dcd_rp2040_irq+0x2e>
200006ea:	2200      	movs	r2, #0
200006ec:	0020      	movs	r0, r4
200006ee:	54e2      	strb	r2, [r4, r3]
200006f0:	3020      	adds	r0, #32
200006f2:	f000 fa3f 	bl	20000b74 <hw_endpoint_start_next_buffer>
200006f6:	e716      	b.n	20000526 <dcd_rp2040_irq+0x2e>
200006f8:	4b61      	ldr	r3, [pc, #388]	; (20000880 <dcd_rp2040_irq+0x388>)
200006fa:	5ce3      	ldrb	r3, [r4, r3]
200006fc:	2b00      	cmp	r3, #0
200006fe:	d100      	bne.n	20000702 <dcd_rp2040_irq+0x20a>
20000700:	e75b      	b.n	200005ba <dcd_rp2040_irq+0xc2>
20000702:	23ef      	movs	r3, #239	; 0xef
20000704:	009b      	lsls	r3, r3, #2
20000706:	5ce2      	ldrb	r2, [r4, r3]
20000708:	2a00      	cmp	r2, #0
2000070a:	d000      	beq.n	2000070e <dcd_rp2040_irq+0x216>
2000070c:	e14f      	b.n	200009ae <dcd_rp2040_irq+0x4b6>
2000070e:	4b57      	ldr	r3, [pc, #348]	; (2000086c <dcd_rp2040_irq+0x374>)
20000710:	5ce3      	ldrb	r3, [r4, r3]
20000712:	2b02      	cmp	r3, #2
20000714:	d000      	beq.n	20000718 <dcd_rp2040_irq+0x220>
20000716:	e760      	b.n	200005da <dcd_rp2040_irq+0xe2>
20000718:	4b5a      	ldr	r3, [pc, #360]	; (20000884 <dcd_rp2040_irq+0x38c>)
2000071a:	5ce3      	ldrb	r3, [r4, r3]
2000071c:	2b00      	cmp	r3, #0
2000071e:	d000      	beq.n	20000722 <dcd_rp2040_irq+0x22a>
20000720:	e138      	b.n	20000994 <dcd_rp2040_irq+0x49c>
20000722:	e75a      	b.n	200005da <dcd_rp2040_irq+0xe2>
20000724:	4b58      	ldr	r3, [pc, #352]	; (20000888 <dcd_rp2040_irq+0x390>)
20000726:	5ce3      	ldrb	r3, [r4, r3]
20000728:	2b00      	cmp	r3, #0
2000072a:	d100      	bne.n	2000072e <dcd_rp2040_irq+0x236>
2000072c:	e740      	b.n	200005b0 <dcd_rp2040_irq+0xb8>
2000072e:	22df      	movs	r2, #223	; 0xdf
20000730:	0092      	lsls	r2, r2, #2
20000732:	5ca1      	ldrb	r1, [r4, r2]
20000734:	001e      	movs	r6, r3
20000736:	2900      	cmp	r1, #0
20000738:	d100      	bne.n	2000073c <dcd_rp2040_irq+0x244>
2000073a:	e739      	b.n	200005b0 <dcd_rp2040_irq+0xb8>
2000073c:	2300      	movs	r3, #0
2000073e:	54a3      	strb	r3, [r4, r2]
20000740:	23d8      	movs	r3, #216	; 0xd8
20000742:	009b      	lsls	r3, r3, #2
20000744:	18e0      	adds	r0, r4, r3
20000746:	f000 fa15 	bl	20000b74 <hw_endpoint_start_next_buffer>
2000074a:	e731      	b.n	200005b0 <dcd_rp2040_irq+0xb8>
2000074c:	4b4f      	ldr	r3, [pc, #316]	; (2000088c <dcd_rp2040_irq+0x394>)
2000074e:	5ce3      	ldrb	r3, [r4, r3]
20000750:	2b00      	cmp	r3, #0
20000752:	d100      	bne.n	20000756 <dcd_rp2040_irq+0x25e>
20000754:	e727      	b.n	200005a6 <dcd_rp2040_irq+0xae>
20000756:	22cf      	movs	r2, #207	; 0xcf
20000758:	0092      	lsls	r2, r2, #2
2000075a:	5ca1      	ldrb	r1, [r4, r2]
2000075c:	001e      	movs	r6, r3
2000075e:	2900      	cmp	r1, #0
20000760:	d100      	bne.n	20000764 <dcd_rp2040_irq+0x26c>
20000762:	e720      	b.n	200005a6 <dcd_rp2040_irq+0xae>
20000764:	2300      	movs	r3, #0
20000766:	54a3      	strb	r3, [r4, r2]
20000768:	23c8      	movs	r3, #200	; 0xc8
2000076a:	009b      	lsls	r3, r3, #2
2000076c:	18e0      	adds	r0, r4, r3
2000076e:	f000 fa01 	bl	20000b74 <hw_endpoint_start_next_buffer>
20000772:	e718      	b.n	200005a6 <dcd_rp2040_irq+0xae>
20000774:	4b46      	ldr	r3, [pc, #280]	; (20000890 <dcd_rp2040_irq+0x398>)
20000776:	5ce3      	ldrb	r3, [r4, r3]
20000778:	2b00      	cmp	r3, #0
2000077a:	d100      	bne.n	2000077e <dcd_rp2040_irq+0x286>
2000077c:	e70e      	b.n	2000059c <dcd_rp2040_irq+0xa4>
2000077e:	22bf      	movs	r2, #191	; 0xbf
20000780:	0092      	lsls	r2, r2, #2
20000782:	5ca1      	ldrb	r1, [r4, r2]
20000784:	001e      	movs	r6, r3
20000786:	2900      	cmp	r1, #0
20000788:	d100      	bne.n	2000078c <dcd_rp2040_irq+0x294>
2000078a:	e707      	b.n	2000059c <dcd_rp2040_irq+0xa4>
2000078c:	2300      	movs	r3, #0
2000078e:	54a3      	strb	r3, [r4, r2]
20000790:	23b8      	movs	r3, #184	; 0xb8
20000792:	009b      	lsls	r3, r3, #2
20000794:	18e0      	adds	r0, r4, r3
20000796:	f000 f9ed 	bl	20000b74 <hw_endpoint_start_next_buffer>
2000079a:	e6ff      	b.n	2000059c <dcd_rp2040_irq+0xa4>
2000079c:	4b3d      	ldr	r3, [pc, #244]	; (20000894 <dcd_rp2040_irq+0x39c>)
2000079e:	5ce3      	ldrb	r3, [r4, r3]
200007a0:	2b00      	cmp	r3, #0
200007a2:	d100      	bne.n	200007a6 <dcd_rp2040_irq+0x2ae>
200007a4:	e6f5      	b.n	20000592 <dcd_rp2040_irq+0x9a>
200007a6:	22af      	movs	r2, #175	; 0xaf
200007a8:	0092      	lsls	r2, r2, #2
200007aa:	5ca1      	ldrb	r1, [r4, r2]
200007ac:	001e      	movs	r6, r3
200007ae:	2900      	cmp	r1, #0
200007b0:	d100      	bne.n	200007b4 <dcd_rp2040_irq+0x2bc>
200007b2:	e6ee      	b.n	20000592 <dcd_rp2040_irq+0x9a>
200007b4:	2300      	movs	r3, #0
200007b6:	54a3      	strb	r3, [r4, r2]
200007b8:	23a8      	movs	r3, #168	; 0xa8
200007ba:	009b      	lsls	r3, r3, #2
200007bc:	18e0      	adds	r0, r4, r3
200007be:	f000 f9d9 	bl	20000b74 <hw_endpoint_start_next_buffer>
200007c2:	e6e6      	b.n	20000592 <dcd_rp2040_irq+0x9a>
200007c4:	4b34      	ldr	r3, [pc, #208]	; (20000898 <dcd_rp2040_irq+0x3a0>)
200007c6:	5ce3      	ldrb	r3, [r4, r3]
200007c8:	2b00      	cmp	r3, #0
200007ca:	d100      	bne.n	200007ce <dcd_rp2040_irq+0x2d6>
200007cc:	e6dc      	b.n	20000588 <dcd_rp2040_irq+0x90>
200007ce:	229f      	movs	r2, #159	; 0x9f
200007d0:	0092      	lsls	r2, r2, #2
200007d2:	5ca1      	ldrb	r1, [r4, r2]
200007d4:	001e      	movs	r6, r3
200007d6:	2900      	cmp	r1, #0
200007d8:	d100      	bne.n	200007dc <dcd_rp2040_irq+0x2e4>
200007da:	e6d5      	b.n	20000588 <dcd_rp2040_irq+0x90>
200007dc:	2300      	movs	r3, #0
200007de:	54a3      	strb	r3, [r4, r2]
200007e0:	2398      	movs	r3, #152	; 0x98
200007e2:	009b      	lsls	r3, r3, #2
200007e4:	18e0      	adds	r0, r4, r3
200007e6:	f000 f9c5 	bl	20000b74 <hw_endpoint_start_next_buffer>
200007ea:	e6cd      	b.n	20000588 <dcd_rp2040_irq+0x90>
200007ec:	4b2b      	ldr	r3, [pc, #172]	; (2000089c <dcd_rp2040_irq+0x3a4>)
200007ee:	5ce3      	ldrb	r3, [r4, r3]
200007f0:	2b00      	cmp	r3, #0
200007f2:	d100      	bne.n	200007f6 <dcd_rp2040_irq+0x2fe>
200007f4:	e6c3      	b.n	2000057e <dcd_rp2040_irq+0x86>
200007f6:	228f      	movs	r2, #143	; 0x8f
200007f8:	0092      	lsls	r2, r2, #2
200007fa:	5ca1      	ldrb	r1, [r4, r2]
200007fc:	001e      	movs	r6, r3
200007fe:	2900      	cmp	r1, #0
20000800:	d100      	bne.n	20000804 <dcd_rp2040_irq+0x30c>
20000802:	e6bc      	b.n	2000057e <dcd_rp2040_irq+0x86>
20000804:	2300      	movs	r3, #0
20000806:	54a3      	strb	r3, [r4, r2]
20000808:	2388      	movs	r3, #136	; 0x88
2000080a:	009b      	lsls	r3, r3, #2
2000080c:	18e0      	adds	r0, r4, r3
2000080e:	f000 f9b1 	bl	20000b74 <hw_endpoint_start_next_buffer>
20000812:	e6b4      	b.n	2000057e <dcd_rp2040_irq+0x86>
20000814:	33f9      	adds	r3, #249	; 0xf9
20000816:	33ff      	adds	r3, #255	; 0xff
20000818:	5ce3      	ldrb	r3, [r4, r3]
2000081a:	2b00      	cmp	r3, #0
2000081c:	d100      	bne.n	20000820 <dcd_rp2040_irq+0x328>
2000081e:	e6a9      	b.n	20000574 <dcd_rp2040_irq+0x7c>
20000820:	22fe      	movs	r2, #254	; 0xfe
20000822:	0052      	lsls	r2, r2, #1
20000824:	5ca1      	ldrb	r1, [r4, r2]
20000826:	001e      	movs	r6, r3
20000828:	2900      	cmp	r1, #0
2000082a:	d100      	bne.n	2000082e <dcd_rp2040_irq+0x336>
2000082c:	e6a2      	b.n	20000574 <dcd_rp2040_irq+0x7c>
2000082e:	0020      	movs	r0, r4
20000830:	2300      	movs	r3, #0
20000832:	30e1      	adds	r0, #225	; 0xe1
20000834:	54a3      	strb	r3, [r4, r2]
20000836:	30ff      	adds	r0, #255	; 0xff
20000838:	f000 f99c 	bl	20000b74 <hw_endpoint_start_next_buffer>
2000083c:	e69a      	b.n	20000574 <dcd_rp2040_irq+0x7c>
2000083e:	46c0      	nop			; (mov r8, r8)
20000840:	50110000 	.word	0x50110000
20000844:	40054000 	.word	0x40054000
20000848:	20001840 	.word	0x20001840
2000084c:	20001838 	.word	0x20001838
20000850:	0000023b 	.word	0x0000023b
20000854:	0000027b 	.word	0x0000027b
20000858:	000002bb 	.word	0x000002bb
2000085c:	000002fb 	.word	0x000002fb
20000860:	0000033b 	.word	0x0000033b
20000864:	0000037b 	.word	0x0000037b
20000868:	000003bb 	.word	0x000003bb
2000086c:	000003fb 	.word	0x000003fb
20000870:	20001cb5 	.word	0x20001cb5
20000874:	50113000 	.word	0x50113000
20000878:	00020010 	.word	0x00020010
2000087c:	50100000 	.word	0x50100000
20000880:	000003ba 	.word	0x000003ba
20000884:	000003fa 	.word	0x000003fa
20000888:	0000037a 	.word	0x0000037a
2000088c:	0000033a 	.word	0x0000033a
20000890:	000002fa 	.word	0x000002fa
20000894:	000002ba 	.word	0x000002ba
20000898:	0000027a 	.word	0x0000027a
2000089c:	0000023a 	.word	0x0000023a
200008a0:	33b9      	adds	r3, #185	; 0xb9
200008a2:	33ff      	adds	r3, #255	; 0xff
200008a4:	5ce3      	ldrb	r3, [r4, r3]
200008a6:	2b00      	cmp	r3, #0
200008a8:	d100      	bne.n	200008ac <dcd_rp2040_irq+0x3b4>
200008aa:	e65d      	b.n	20000568 <dcd_rp2040_irq+0x70>
200008ac:	22de      	movs	r2, #222	; 0xde
200008ae:	0052      	lsls	r2, r2, #1
200008b0:	5ca1      	ldrb	r1, [r4, r2]
200008b2:	001e      	movs	r6, r3
200008b4:	2900      	cmp	r1, #0
200008b6:	d100      	bne.n	200008ba <dcd_rp2040_irq+0x3c2>
200008b8:	e656      	b.n	20000568 <dcd_rp2040_irq+0x70>
200008ba:	0020      	movs	r0, r4
200008bc:	2300      	movs	r3, #0
200008be:	30a1      	adds	r0, #161	; 0xa1
200008c0:	54a3      	strb	r3, [r4, r2]
200008c2:	30ff      	adds	r0, #255	; 0xff
200008c4:	f000 f956 	bl	20000b74 <hw_endpoint_start_next_buffer>
200008c8:	e64e      	b.n	20000568 <dcd_rp2040_irq+0x70>
200008ca:	3379      	adds	r3, #121	; 0x79
200008cc:	33ff      	adds	r3, #255	; 0xff
200008ce:	5ce3      	ldrb	r3, [r4, r3]
200008d0:	2b00      	cmp	r3, #0
200008d2:	d100      	bne.n	200008d6 <dcd_rp2040_irq+0x3de>
200008d4:	e642      	b.n	2000055c <dcd_rp2040_irq+0x64>
200008d6:	22be      	movs	r2, #190	; 0xbe
200008d8:	0052      	lsls	r2, r2, #1
200008da:	5ca1      	ldrb	r1, [r4, r2]
200008dc:	001e      	movs	r6, r3
200008de:	2900      	cmp	r1, #0
200008e0:	d100      	bne.n	200008e4 <dcd_rp2040_irq+0x3ec>
200008e2:	e63b      	b.n	2000055c <dcd_rp2040_irq+0x64>
200008e4:	0020      	movs	r0, r4
200008e6:	2300      	movs	r3, #0
200008e8:	3061      	adds	r0, #97	; 0x61
200008ea:	54a3      	strb	r3, [r4, r2]
200008ec:	30ff      	adds	r0, #255	; 0xff
200008ee:	f000 f941 	bl	20000b74 <hw_endpoint_start_next_buffer>
200008f2:	e633      	b.n	2000055c <dcd_rp2040_irq+0x64>
200008f4:	3339      	adds	r3, #57	; 0x39
200008f6:	33ff      	adds	r3, #255	; 0xff
200008f8:	5ce3      	ldrb	r3, [r4, r3]
200008fa:	2b00      	cmp	r3, #0
200008fc:	d100      	bne.n	20000900 <dcd_rp2040_irq+0x408>
200008fe:	e627      	b.n	20000550 <dcd_rp2040_irq+0x58>
20000900:	229e      	movs	r2, #158	; 0x9e
20000902:	0052      	lsls	r2, r2, #1
20000904:	5ca1      	ldrb	r1, [r4, r2]
20000906:	001e      	movs	r6, r3
20000908:	2900      	cmp	r1, #0
2000090a:	d100      	bne.n	2000090e <dcd_rp2040_irq+0x416>
2000090c:	e620      	b.n	20000550 <dcd_rp2040_irq+0x58>
2000090e:	0020      	movs	r0, r4
20000910:	2300      	movs	r3, #0
20000912:	3021      	adds	r0, #33	; 0x21
20000914:	54a3      	strb	r3, [r4, r2]
20000916:	30ff      	adds	r0, #255	; 0xff
20000918:	f000 f92c 	bl	20000b74 <hw_endpoint_start_next_buffer>
2000091c:	e618      	b.n	20000550 <dcd_rp2040_irq+0x58>
2000091e:	33f8      	adds	r3, #248	; 0xf8
20000920:	5ce3      	ldrb	r3, [r4, r3]
20000922:	2b00      	cmp	r3, #0
20000924:	d100      	bne.n	20000928 <dcd_rp2040_irq+0x430>
20000926:	e60d      	b.n	20000544 <dcd_rp2040_irq+0x4c>
20000928:	22fc      	movs	r2, #252	; 0xfc
2000092a:	5ca1      	ldrb	r1, [r4, r2]
2000092c:	001e      	movs	r6, r3
2000092e:	2900      	cmp	r1, #0
20000930:	d100      	bne.n	20000934 <dcd_rp2040_irq+0x43c>
20000932:	e607      	b.n	20000544 <dcd_rp2040_irq+0x4c>
20000934:	2300      	movs	r3, #0
20000936:	0020      	movs	r0, r4
20000938:	54a3      	strb	r3, [r4, r2]
2000093a:	30e0      	adds	r0, #224	; 0xe0
2000093c:	f000 f91a 	bl	20000b74 <hw_endpoint_start_next_buffer>
20000940:	e600      	b.n	20000544 <dcd_rp2040_irq+0x4c>
20000942:	33b8      	adds	r3, #184	; 0xb8
20000944:	5ce3      	ldrb	r3, [r4, r3]
20000946:	2b00      	cmp	r3, #0
20000948:	d100      	bne.n	2000094c <dcd_rp2040_irq+0x454>
2000094a:	e5f6      	b.n	2000053a <dcd_rp2040_irq+0x42>
2000094c:	22bc      	movs	r2, #188	; 0xbc
2000094e:	5ca1      	ldrb	r1, [r4, r2]
20000950:	001e      	movs	r6, r3
20000952:	2900      	cmp	r1, #0
20000954:	d100      	bne.n	20000958 <dcd_rp2040_irq+0x460>
20000956:	e5f0      	b.n	2000053a <dcd_rp2040_irq+0x42>
20000958:	2300      	movs	r3, #0
2000095a:	0020      	movs	r0, r4
2000095c:	54a3      	strb	r3, [r4, r2]
2000095e:	30a0      	adds	r0, #160	; 0xa0
20000960:	f000 f908 	bl	20000b74 <hw_endpoint_start_next_buffer>
20000964:	e5e9      	b.n	2000053a <dcd_rp2040_irq+0x42>
20000966:	3378      	adds	r3, #120	; 0x78
20000968:	5ce3      	ldrb	r3, [r4, r3]
2000096a:	2b00      	cmp	r3, #0
2000096c:	d100      	bne.n	20000970 <dcd_rp2040_irq+0x478>
2000096e:	e5df      	b.n	20000530 <dcd_rp2040_irq+0x38>
20000970:	227c      	movs	r2, #124	; 0x7c
20000972:	5ca1      	ldrb	r1, [r4, r2]
20000974:	001e      	movs	r6, r3
20000976:	2900      	cmp	r1, #0
20000978:	d100      	bne.n	2000097c <dcd_rp2040_irq+0x484>
2000097a:	e5d9      	b.n	20000530 <dcd_rp2040_irq+0x38>
2000097c:	2300      	movs	r3, #0
2000097e:	0020      	movs	r0, r4
20000980:	54a3      	strb	r3, [r4, r2]
20000982:	3060      	adds	r0, #96	; 0x60
20000984:	f000 f8f6 	bl	20000b74 <hw_endpoint_start_next_buffer>
20000988:	e5d2      	b.n	20000530 <dcd_rp2040_irq+0x38>
2000098a:	4b0f      	ldr	r3, [pc, #60]	; (200009c8 <dcd_rp2040_irq+0x4d0>)
2000098c:	5ce3      	ldrb	r3, [r4, r3]
2000098e:	2b00      	cmp	r3, #0
20000990:	d100      	bne.n	20000994 <dcd_rp2040_irq+0x49c>
20000992:	e617      	b.n	200005c4 <dcd_rp2040_irq+0xcc>
20000994:	23ff      	movs	r3, #255	; 0xff
20000996:	009b      	lsls	r3, r3, #2
20000998:	5ce2      	ldrb	r2, [r4, r3]
2000099a:	2a00      	cmp	r2, #0
2000099c:	d100      	bne.n	200009a0 <dcd_rp2040_irq+0x4a8>
2000099e:	e61c      	b.n	200005da <dcd_rp2040_irq+0xe2>
200009a0:	2200      	movs	r2, #0
200009a2:	54e2      	strb	r2, [r4, r3]
200009a4:	3b1c      	subs	r3, #28
200009a6:	18e0      	adds	r0, r4, r3
200009a8:	f000 f8e4 	bl	20000b74 <hw_endpoint_start_next_buffer>
200009ac:	e615      	b.n	200005da <dcd_rp2040_irq+0xe2>
200009ae:	2200      	movs	r2, #0
200009b0:	54e2      	strb	r2, [r4, r3]
200009b2:	23e8      	movs	r3, #232	; 0xe8
200009b4:	009b      	lsls	r3, r3, #2
200009b6:	18e0      	adds	r0, r4, r3
200009b8:	f000 f8dc 	bl	20000b74 <hw_endpoint_start_next_buffer>
200009bc:	e6a7      	b.n	2000070e <dcd_rp2040_irq+0x216>
200009be:	0021      	movs	r1, r4
200009c0:	4802      	ldr	r0, [pc, #8]	; (200009cc <dcd_rp2040_irq+0x4d4>)
200009c2:	4069      	eors	r1, r5
200009c4:	f000 fa10 	bl	20000de8 <__panic_veneer>
200009c8:	000003fa 	.word	0x000003fa
200009cc:	100075bc 	.word	0x100075bc

200009d0 <e15_is_bulkin_ep>:
200009d0:	4a08      	ldr	r2, [pc, #32]	; (200009f4 <e15_is_bulkin_ep+0x24>)
200009d2:	0003      	movs	r3, r0
200009d4:	6c12      	ldr	r2, [r2, #64]	; 0x40
200009d6:	2000      	movs	r0, #0
200009d8:	0792      	lsls	r2, r2, #30
200009da:	d403      	bmi.n	200009e4 <e15_is_bulkin_ep+0x14>
200009dc:	789a      	ldrb	r2, [r3, #2]
200009de:	09d2      	lsrs	r2, r2, #7
200009e0:	2a01      	cmp	r2, #1
200009e2:	d000      	beq.n	200009e6 <e15_is_bulkin_ep+0x16>
200009e4:	4770      	bx	lr
200009e6:	7ed8      	ldrb	r0, [r3, #27]
200009e8:	3802      	subs	r0, #2
200009ea:	4243      	negs	r3, r0
200009ec:	4158      	adcs	r0, r3
200009ee:	b2c0      	uxtb	r0, r0
200009f0:	e7f8      	b.n	200009e4 <e15_is_bulkin_ep+0x14>
200009f2:	46c0      	nop			; (mov r8, r8)
200009f4:	50110000 	.word	0x50110000

200009f8 <e15_is_critical_frame_period>:
200009f8:	b510      	push	{r4, lr}
200009fa:	f7ff ffe9 	bl	200009d0 <e15_is_bulkin_ep>
200009fe:	2800      	cmp	r0, #0
20000a00:	d00c      	beq.n	20000a1c <e15_is_critical_frame_period+0x24>
20000a02:	4907      	ldr	r1, [pc, #28]	; (20000a20 <e15_is_critical_frame_period+0x28>)
20000a04:	4b07      	ldr	r3, [pc, #28]	; (20000a24 <e15_is_critical_frame_period+0x2c>)
20000a06:	468c      	mov	ip, r1
20000a08:	4a07      	ldr	r2, [pc, #28]	; (20000a28 <e15_is_critical_frame_period+0x30>)
20000a0a:	6a9b      	ldr	r3, [r3, #40]	; 0x28
20000a0c:	6812      	ldr	r2, [r2, #0]
20000a0e:	4463      	add	r3, ip
20000a10:	1a9b      	subs	r3, r3, r2
20000a12:	2000      	movs	r0, #0
20000a14:	22c6      	movs	r2, #198	; 0xc6
20000a16:	429a      	cmp	r2, r3
20000a18:	4140      	adcs	r0, r0
20000a1a:	b2c0      	uxtb	r0, r0
20000a1c:	bd10      	pop	{r4, pc}
20000a1e:	46c0      	nop			; (mov r8, r8)
20000a20:	fffffce0 	.word	0xfffffce0
20000a24:	40054000 	.word	0x40054000
20000a28:	20001838 	.word	0x20001838

20000a2c <prepare_ep_buffer>:
20000a2c:	b5f8      	push	{r3, r4, r5, r6, r7, lr}
20000a2e:	8b02      	ldrh	r2, [r0, #24]
20000a30:	8a83      	ldrh	r3, [r0, #20]
20000a32:	0004      	movs	r4, r0
20000a34:	000f      	movs	r7, r1
20000a36:	1c16      	adds	r6, r2, #0
20000a38:	429a      	cmp	r2, r3
20000a3a:	d900      	bls.n	20000a3e <prepare_ep_buffer+0x12>
20000a3c:	1c1e      	adds	r6, r3, #0
20000a3e:	2580      	movs	r5, #128	; 0x80
20000a40:	b2b6      	uxth	r6, r6
20000a42:	1b9b      	subs	r3, r3, r6
20000a44:	78e2      	ldrb	r2, [r4, #3]
20000a46:	b29b      	uxth	r3, r3
20000a48:	00ed      	lsls	r5, r5, #3
20000a4a:	82a3      	strh	r3, [r4, #20]
20000a4c:	4335      	orrs	r5, r6
20000a4e:	2a00      	cmp	r2, #0
20000a50:	d002      	beq.n	20000a58 <prepare_ep_buffer+0x2c>
20000a52:	2590      	movs	r5, #144	; 0x90
20000a54:	01ad      	lsls	r5, r5, #6
20000a56:	4335      	orrs	r5, r6
20000a58:	2101      	movs	r1, #1
20000a5a:	404a      	eors	r2, r1
20000a5c:	70e2      	strb	r2, [r4, #3]
20000a5e:	7862      	ldrb	r2, [r4, #1]
20000a60:	2a00      	cmp	r2, #0
20000a62:	d009      	beq.n	20000a78 <prepare_ep_buffer+0x4c>
20000a64:	2b00      	cmp	r3, #0
20000a66:	d102      	bne.n	20000a6e <prepare_ep_buffer+0x42>
20000a68:	2380      	movs	r3, #128	; 0x80
20000a6a:	01db      	lsls	r3, r3, #7
20000a6c:	431d      	orrs	r5, r3
20000a6e:	2f00      	cmp	r7, #0
20000a70:	d000      	beq.n	20000a74 <prepare_ep_buffer+0x48>
20000a72:	042d      	lsls	r5, r5, #16
20000a74:	0028      	movs	r0, r5
20000a76:	bdf8      	pop	{r3, r4, r5, r6, r7, pc}
20000a78:	68e3      	ldr	r3, [r4, #12]
20000a7a:	01b8      	lsls	r0, r7, #6
20000a7c:	469c      	mov	ip, r3
20000a7e:	0032      	movs	r2, r6
20000a80:	4460      	add	r0, ip
20000a82:	6921      	ldr	r1, [r4, #16]
20000a84:	f000 f9a8 	bl	20000dd8 <____wrap_memcpy_veneer>
20000a88:	6923      	ldr	r3, [r4, #16]
20000a8a:	469c      	mov	ip, r3
20000a8c:	2380      	movs	r3, #128	; 0x80
20000a8e:	4466      	add	r6, ip
20000a90:	021b      	lsls	r3, r3, #8
20000a92:	431d      	orrs	r5, r3
20000a94:	6126      	str	r6, [r4, #16]
20000a96:	8aa3      	ldrh	r3, [r4, #20]
20000a98:	e7e4      	b.n	20000a64 <prepare_ep_buffer+0x38>
20000a9a:	46c0      	nop			; (mov r8, r8)

20000a9c <sync_ep_buffer>:
20000a9c:	6883      	ldr	r3, [r0, #8]
20000a9e:	b570      	push	{r4, r5, r6, lr}
20000aa0:	0004      	movs	r4, r0
20000aa2:	681d      	ldr	r5, [r3, #0]
20000aa4:	2900      	cmp	r1, #0
20000aa6:	d000      	beq.n	20000aaa <sync_ep_buffer+0xe>
20000aa8:	0c2d      	lsrs	r5, r5, #16
20000aaa:	7863      	ldrb	r3, [r4, #1]
20000aac:	05ad      	lsls	r5, r5, #22
20000aae:	0dad      	lsrs	r5, r5, #22
20000ab0:	2b00      	cmp	r3, #0
20000ab2:	d109      	bne.n	20000ac8 <sync_ep_buffer+0x2c>
20000ab4:	8ae3      	ldrh	r3, [r4, #22]
20000ab6:	18eb      	adds	r3, r5, r3
20000ab8:	82e3      	strh	r3, [r4, #22]
20000aba:	8b23      	ldrh	r3, [r4, #24]
20000abc:	42ab      	cmp	r3, r5
20000abe:	d901      	bls.n	20000ac4 <sync_ep_buffer+0x28>
20000ac0:	2300      	movs	r3, #0
20000ac2:	82a3      	strh	r3, [r4, #20]
20000ac4:	0028      	movs	r0, r5
20000ac6:	bd70      	pop	{r4, r5, r6, pc}
20000ac8:	68e3      	ldr	r3, [r4, #12]
20000aca:	0189      	lsls	r1, r1, #6
20000acc:	469c      	mov	ip, r3
20000ace:	002a      	movs	r2, r5
20000ad0:	6920      	ldr	r0, [r4, #16]
20000ad2:	4461      	add	r1, ip
20000ad4:	f000 f980 	bl	20000dd8 <____wrap_memcpy_veneer>
20000ad8:	8ae3      	ldrh	r3, [r4, #22]
20000ada:	18eb      	adds	r3, r5, r3
20000adc:	82e3      	strh	r3, [r4, #22]
20000ade:	6923      	ldr	r3, [r4, #16]
20000ae0:	195b      	adds	r3, r3, r5
20000ae2:	6123      	str	r3, [r4, #16]
20000ae4:	e7e9      	b.n	20000aba <sync_ep_buffer+0x1e>
20000ae6:	46c0      	nop			; (mov r8, r8)

20000ae8 <_hw_endpoint_xfer_sync>:
20000ae8:	b510      	push	{r4, lr}
20000aea:	0004      	movs	r4, r0
20000aec:	6883      	ldr	r3, [r0, #8]
20000aee:	2100      	movs	r1, #0
20000af0:	681b      	ldr	r3, [r3, #0]
20000af2:	f7ff ffd3 	bl	20000a9c <sync_ep_buffer>
20000af6:	6863      	ldr	r3, [r4, #4]
20000af8:	681b      	ldr	r3, [r3, #0]
20000afa:	005b      	lsls	r3, r3, #1
20000afc:	d502      	bpl.n	20000b04 <_hw_endpoint_xfer_sync+0x1c>
20000afe:	8b23      	ldrh	r3, [r4, #24]
20000b00:	4283      	cmp	r3, r0
20000b02:	d000      	beq.n	20000b06 <_hw_endpoint_xfer_sync+0x1e>
20000b04:	bd10      	pop	{r4, pc}
20000b06:	2101      	movs	r1, #1
20000b08:	0020      	movs	r0, r4
20000b0a:	f7ff ffc7 	bl	20000a9c <sync_ep_buffer>
20000b0e:	e7f9      	b.n	20000b04 <_hw_endpoint_xfer_sync+0x1c>

20000b10 <hw_endpoint_reset_transfer>:
20000b10:	2300      	movs	r3, #0
20000b12:	7683      	strb	r3, [r0, #26]
20000b14:	6143      	str	r3, [r0, #20]
20000b16:	6103      	str	r3, [r0, #16]
20000b18:	4770      	bx	lr
20000b1a:	46c0      	nop			; (mov r8, r8)

20000b1c <_hw_endpoint_buffer_control_update32>:
20000b1c:	b510      	push	{r4, lr}
20000b1e:	6883      	ldr	r3, [r0, #8]
20000b20:	2900      	cmp	r1, #0
20000b22:	d001      	beq.n	20000b28 <_hw_endpoint_buffer_control_update32+0xc>
20000b24:	681c      	ldr	r4, [r3, #0]
20000b26:	4021      	ands	r1, r4
20000b28:	2a00      	cmp	r2, #0
20000b2a:	d011      	beq.n	20000b50 <_hw_endpoint_buffer_control_update32+0x34>
20000b2c:	2480      	movs	r4, #128	; 0x80
20000b2e:	00e4      	lsls	r4, r4, #3
20000b30:	4311      	orrs	r1, r2
20000b32:	4222      	tst	r2, r4
20000b34:	d00c      	beq.n	20000b50 <_hw_endpoint_buffer_control_update32+0x34>
20000b36:	681a      	ldr	r2, [r3, #0]
20000b38:	4222      	tst	r2, r4
20000b3a:	d10b      	bne.n	20000b54 <_hw_endpoint_buffer_control_update32+0x38>
20000b3c:	4a0a      	ldr	r2, [pc, #40]	; (20000b68 <_hw_endpoint_buffer_control_update32+0x4c>)
20000b3e:	400a      	ands	r2, r1
20000b40:	601a      	str	r2, [r3, #0]
20000b42:	e7ff      	b.n	20000b44 <_hw_endpoint_buffer_control_update32+0x28>
20000b44:	e7ff      	b.n	20000b46 <_hw_endpoint_buffer_control_update32+0x2a>
20000b46:	e7ff      	b.n	20000b48 <_hw_endpoint_buffer_control_update32+0x2c>
20000b48:	e7ff      	b.n	20000b4a <_hw_endpoint_buffer_control_update32+0x2e>
20000b4a:	e7ff      	b.n	20000b4c <_hw_endpoint_buffer_control_update32+0x30>
20000b4c:	e7ff      	b.n	20000b4e <_hw_endpoint_buffer_control_update32+0x32>
20000b4e:	6883      	ldr	r3, [r0, #8]
20000b50:	6019      	str	r1, [r3, #0]
20000b52:	bd10      	pop	{r4, pc}
20000b54:	227f      	movs	r2, #127	; 0x7f
20000b56:	7881      	ldrb	r1, [r0, #2]
20000b58:	4804      	ldr	r0, [pc, #16]	; (20000b6c <_hw_endpoint_buffer_control_update32+0x50>)
20000b5a:	09cb      	lsrs	r3, r1, #7
20000b5c:	4011      	ands	r1, r2
20000b5e:	4a04      	ldr	r2, [pc, #16]	; (20000b70 <_hw_endpoint_buffer_control_update32+0x54>)
20000b60:	009b      	lsls	r3, r3, #2
20000b62:	589a      	ldr	r2, [r3, r2]
20000b64:	f000 f940 	bl	20000de8 <__panic_veneer>
20000b68:	fffffbff 	.word	0xfffffbff
20000b6c:	100075d0 	.word	0x100075d0
20000b70:	20000ed8 	.word	0x20000ed8

20000b74 <hw_endpoint_start_next_buffer>:
20000b74:	6843      	ldr	r3, [r0, #4]
20000b76:	b570      	push	{r4, r5, r6, lr}
20000b78:	2100      	movs	r1, #0
20000b7a:	2580      	movs	r5, #128	; 0x80
20000b7c:	681e      	ldr	r6, [r3, #0]
20000b7e:	0004      	movs	r4, r0
20000b80:	f7ff ff54 	bl	20000a2c <prepare_ep_buffer>
20000b84:	4b13      	ldr	r3, [pc, #76]	; (20000bd4 <hw_endpoint_start_next_buffer+0x60>)
20000b86:	016d      	lsls	r5, r5, #5
20000b88:	6c1b      	ldr	r3, [r3, #64]	; 0x40
20000b8a:	4305      	orrs	r5, r0
20000b8c:	079b      	lsls	r3, r3, #30
20000b8e:	d50f      	bpl.n	20000bb0 <hw_endpoint_start_next_buffer+0x3c>
20000b90:	78a3      	ldrb	r3, [r4, #2]
20000b92:	065b      	lsls	r3, r3, #25
20000b94:	d00f      	beq.n	20000bb6 <hw_endpoint_start_next_buffer+0x42>
20000b96:	4b10      	ldr	r3, [pc, #64]	; (20000bd8 <hw_endpoint_start_next_buffer+0x64>)
20000b98:	401e      	ands	r6, r3
20000b9a:	2380      	movs	r3, #128	; 0x80
20000b9c:	059b      	lsls	r3, r3, #22
20000b9e:	4333      	orrs	r3, r6
20000ba0:	6862      	ldr	r2, [r4, #4]
20000ba2:	2100      	movs	r1, #0
20000ba4:	6013      	str	r3, [r2, #0]
20000ba6:	0020      	movs	r0, r4
20000ba8:	002a      	movs	r2, r5
20000baa:	f7ff ffb7 	bl	20000b1c <_hw_endpoint_buffer_control_update32>
20000bae:	bd70      	pop	{r4, r5, r6, pc}
20000bb0:	78a3      	ldrb	r3, [r4, #2]
20000bb2:	09db      	lsrs	r3, r3, #7
20000bb4:	d0ef      	beq.n	20000b96 <hw_endpoint_start_next_buffer+0x22>
20000bb6:	8aa3      	ldrh	r3, [r4, #20]
20000bb8:	2b00      	cmp	r3, #0
20000bba:	d0ec      	beq.n	20000b96 <hw_endpoint_start_next_buffer+0x22>
20000bbc:	2101      	movs	r1, #1
20000bbe:	0020      	movs	r0, r4
20000bc0:	f7ff ff34 	bl	20000a2c <prepare_ep_buffer>
20000bc4:	23a0      	movs	r3, #160	; 0xa0
20000bc6:	4a05      	ldr	r2, [pc, #20]	; (20000bdc <hw_endpoint_start_next_buffer+0x68>)
20000bc8:	05db      	lsls	r3, r3, #23
20000bca:	4032      	ands	r2, r6
20000bcc:	4305      	orrs	r5, r0
20000bce:	4313      	orrs	r3, r2
20000bd0:	e7e6      	b.n	20000ba0 <hw_endpoint_start_next_buffer+0x2c>
20000bd2:	46c0      	nop			; (mov r8, r8)
20000bd4:	50110000 	.word	0x50110000
20000bd8:	afffffff 	.word	0xafffffff
20000bdc:	dfffffff 	.word	0xdfffffff

20000be0 <hw_endpoint_xfer_continue>:
20000be0:	b570      	push	{r4, r5, r6, lr}
20000be2:	7e85      	ldrb	r5, [r0, #26]
20000be4:	0004      	movs	r4, r0
20000be6:	2d00      	cmp	r5, #0
20000be8:	d013      	beq.n	20000c12 <hw_endpoint_xfer_continue+0x32>
20000bea:	f7ff ff7d 	bl	20000ae8 <_hw_endpoint_xfer_sync>
20000bee:	8aa3      	ldrh	r3, [r4, #20]
20000bf0:	2b00      	cmp	r3, #0
20000bf2:	d101      	bne.n	20000bf8 <hw_endpoint_xfer_continue+0x18>
20000bf4:	0028      	movs	r0, r5
20000bf6:	bd70      	pop	{r4, r5, r6, pc}
20000bf8:	0020      	movs	r0, r4
20000bfa:	f7ff fefd 	bl	200009f8 <e15_is_critical_frame_period>
20000bfe:	1e05      	subs	r5, r0, #0
20000c00:	d003      	beq.n	20000c0a <hw_endpoint_xfer_continue+0x2a>
20000c02:	2301      	movs	r3, #1
20000c04:	2500      	movs	r5, #0
20000c06:	7723      	strb	r3, [r4, #28]
20000c08:	e7f4      	b.n	20000bf4 <hw_endpoint_xfer_continue+0x14>
20000c0a:	0020      	movs	r0, r4
20000c0c:	f7ff ffb2 	bl	20000b74 <hw_endpoint_start_next_buffer>
20000c10:	e7f0      	b.n	20000bf4 <hw_endpoint_xfer_continue+0x14>
20000c12:	227f      	movs	r2, #127	; 0x7f
20000c14:	7881      	ldrb	r1, [r0, #2]
20000c16:	4804      	ldr	r0, [pc, #16]	; (20000c28 <hw_endpoint_xfer_continue+0x48>)
20000c18:	09cb      	lsrs	r3, r1, #7
20000c1a:	4011      	ands	r1, r2
20000c1c:	4a03      	ldr	r2, [pc, #12]	; (20000c2c <hw_endpoint_xfer_continue+0x4c>)
20000c1e:	009b      	lsls	r3, r3, #2
20000c20:	589a      	ldr	r2, [r3, r2]
20000c22:	f000 f8e1 	bl	20000de8 <__panic_veneer>
20000c26:	46c0      	nop			; (mov r8, r8)
20000c28:	100075f0 	.word	0x100075f0
20000c2c:	20000ed8 	.word	0x20000ed8

20000c30 <dcd_event_handler>:
20000c30:	b5f0      	push	{r4, r5, r6, r7, lr}
20000c32:	7843      	ldrb	r3, [r0, #1]
20000c34:	0005      	movs	r5, r0
20000c36:	b085      	sub	sp, #20
20000c38:	2b04      	cmp	r3, #4
20000c3a:	d100      	bne.n	20000c3e <dcd_event_handler+0xe>
20000c3c:	e075      	b.n	20000d2a <dcd_event_handler+0xfa>
20000c3e:	d846      	bhi.n	20000cce <dcd_event_handler+0x9e>
20000c40:	2b02      	cmp	r3, #2
20000c42:	d100      	bne.n	20000c46 <dcd_event_handler+0x16>
20000c44:	e083      	b.n	20000d4e <dcd_event_handler+0x11e>
20000c46:	2b03      	cmp	r3, #3
20000c48:	d155      	bne.n	20000cf6 <dcd_event_handler+0xc6>
20000c4a:	4e50      	ldr	r6, [pc, #320]	; (20000d8c <dcd_event_handler+0x15c>)
20000c4c:	4a50      	ldr	r2, [pc, #320]	; (20000d90 <dcd_event_handler+0x160>)
20000c4e:	2400      	movs	r4, #0
20000c50:	7833      	ldrb	r3, [r6, #0]
20000c52:	2a00      	cmp	r2, #0
20000c54:	d100      	bne.n	20000c58 <dcd_event_handler+0x28>
20000c56:	e092      	b.n	20000d7e <dcd_event_handler+0x14e>
20000c58:	4f4e      	ldr	r7, [pc, #312]	; (20000d94 <dcd_event_handler+0x164>)
20000c5a:	e003      	b.n	20000c64 <dcd_event_handler+0x34>
20000c5c:	3401      	adds	r4, #1
20000c5e:	b2e4      	uxtb	r4, r4
20000c60:	429c      	cmp	r4, r3
20000c62:	d814      	bhi.n	20000c8e <dcd_event_handler+0x5e>
20000c64:	42a3      	cmp	r3, r4
20000c66:	d9f9      	bls.n	20000c5c <dcd_event_handler+0x2c>
20000c68:	6839      	ldr	r1, [r7, #0]
20000c6a:	0062      	lsls	r2, r4, #1
20000c6c:	468c      	mov	ip, r1
20000c6e:	1912      	adds	r2, r2, r4
20000c70:	00d2      	lsls	r2, r2, #3
20000c72:	4462      	add	r2, ip
20000c74:	2a00      	cmp	r2, #0
20000c76:	d0f1      	beq.n	20000c5c <dcd_event_handler+0x2c>
20000c78:	6952      	ldr	r2, [r2, #20]
20000c7a:	2a00      	cmp	r2, #0
20000c7c:	d0ee      	beq.n	20000c5c <dcd_event_handler+0x2c>
20000c7e:	7828      	ldrb	r0, [r5, #0]
20000c80:	6869      	ldr	r1, [r5, #4]
20000c82:	4790      	blx	r2
20000c84:	3401      	adds	r4, #1
20000c86:	7833      	ldrb	r3, [r6, #0]
20000c88:	b2e4      	uxtb	r4, r4
20000c8a:	429c      	cmp	r4, r3
20000c8c:	d9ea      	bls.n	20000c64 <dcd_event_handler+0x34>
20000c8e:	4b42      	ldr	r3, [pc, #264]	; (20000d98 <dcd_event_handler+0x168>)
20000c90:	781a      	ldrb	r2, [r3, #0]
20000c92:	0752      	lsls	r2, r2, #29
20000c94:	d547      	bpl.n	20000d26 <dcd_event_handler+0xf6>
20000c96:	2104      	movs	r1, #4
20000c98:	781a      	ldrb	r2, [r3, #0]
20000c9a:	a801      	add	r0, sp, #4
20000c9c:	438a      	bics	r2, r1
20000c9e:	701a      	strb	r2, [r3, #0]
20000ca0:	2100      	movs	r1, #0
20000ca2:	220c      	movs	r2, #12
20000ca4:	f000 f880 	bl	20000da8 <____wrap_memset_veneer>
20000ca8:	466a      	mov	r2, sp
20000caa:	782b      	ldrb	r3, [r5, #0]
20000cac:	7113      	strb	r3, [r2, #4]
20000cae:	2305      	movs	r3, #5
20000cb0:	7153      	strb	r3, [r2, #5]
20000cb2:	4b3a      	ldr	r3, [pc, #232]	; (20000d9c <dcd_event_handler+0x16c>)
20000cb4:	681c      	ldr	r4, [r3, #0]
20000cb6:	6962      	ldr	r2, [r4, #20]
20000cb8:	f3ef 8110 	mrs	r1, PRIMASK
20000cbc:	b672      	cpsid	i
20000cbe:	6813      	ldr	r3, [r2, #0]
20000cc0:	2b00      	cmp	r3, #0
20000cc2:	d0fc      	beq.n	20000cbe <dcd_event_handler+0x8e>
20000cc4:	f3bf 8f5f 	dmb	sy
20000cc8:	61a1      	str	r1, [r4, #24]
20000cca:	a901      	add	r1, sp, #4
20000ccc:	e020      	b.n	20000d10 <dcd_event_handler+0xe0>
20000cce:	2b05      	cmp	r3, #5
20000cd0:	d111      	bne.n	20000cf6 <dcd_event_handler+0xc6>
20000cd2:	4b31      	ldr	r3, [pc, #196]	; (20000d98 <dcd_event_handler+0x168>)
20000cd4:	781a      	ldrb	r2, [r3, #0]
20000cd6:	07d2      	lsls	r2, r2, #31
20000cd8:	d525      	bpl.n	20000d26 <dcd_event_handler+0xf6>
20000cda:	2104      	movs	r1, #4
20000cdc:	781a      	ldrb	r2, [r3, #0]
20000cde:	438a      	bics	r2, r1
20000ce0:	701a      	strb	r2, [r3, #0]
20000ce2:	4b2e      	ldr	r3, [pc, #184]	; (20000d9c <dcd_event_handler+0x16c>)
20000ce4:	681c      	ldr	r4, [r3, #0]
20000ce6:	6962      	ldr	r2, [r4, #20]
20000ce8:	f3ef 8110 	mrs	r1, PRIMASK
20000cec:	b672      	cpsid	i
20000cee:	6813      	ldr	r3, [r2, #0]
20000cf0:	2b00      	cmp	r3, #0
20000cf2:	d109      	bne.n	20000d08 <dcd_event_handler+0xd8>
20000cf4:	e7fb      	b.n	20000cee <dcd_event_handler+0xbe>
20000cf6:	4b29      	ldr	r3, [pc, #164]	; (20000d9c <dcd_event_handler+0x16c>)
20000cf8:	681c      	ldr	r4, [r3, #0]
20000cfa:	6962      	ldr	r2, [r4, #20]
20000cfc:	f3ef 8110 	mrs	r1, PRIMASK
20000d00:	b672      	cpsid	i
20000d02:	6813      	ldr	r3, [r2, #0]
20000d04:	2b00      	cmp	r3, #0
20000d06:	d0fc      	beq.n	20000d02 <dcd_event_handler+0xd2>
20000d08:	f3bf 8f5f 	dmb	sy
20000d0c:	61a1      	str	r1, [r4, #24]
20000d0e:	0029      	movs	r1, r5
20000d10:	0020      	movs	r0, r4
20000d12:	f000 f859 	bl	20000dc8 <__tu_fifo_write_veneer>
20000d16:	6962      	ldr	r2, [r4, #20]
20000d18:	69a3      	ldr	r3, [r4, #24]
20000d1a:	f3bf 8f5f 	dmb	sy
20000d1e:	2100      	movs	r1, #0
20000d20:	6011      	str	r1, [r2, #0]
20000d22:	f383 8810 	msr	PRIMASK, r3
20000d26:	b005      	add	sp, #20
20000d28:	bdf0      	pop	{r4, r5, r6, r7, pc}
20000d2a:	4b1b      	ldr	r3, [pc, #108]	; (20000d98 <dcd_event_handler+0x168>)
20000d2c:	781a      	ldrb	r2, [r3, #0]
20000d2e:	07d2      	lsls	r2, r2, #31
20000d30:	d5f9      	bpl.n	20000d26 <dcd_event_handler+0xf6>
20000d32:	2104      	movs	r1, #4
20000d34:	781a      	ldrb	r2, [r3, #0]
20000d36:	430a      	orrs	r2, r1
20000d38:	701a      	strb	r2, [r3, #0]
20000d3a:	4b18      	ldr	r3, [pc, #96]	; (20000d9c <dcd_event_handler+0x16c>)
20000d3c:	681c      	ldr	r4, [r3, #0]
20000d3e:	6962      	ldr	r2, [r4, #20]
20000d40:	f3ef 8110 	mrs	r1, PRIMASK
20000d44:	b672      	cpsid	i
20000d46:	6813      	ldr	r3, [r2, #0]
20000d48:	2b00      	cmp	r3, #0
20000d4a:	d1dd      	bne.n	20000d08 <dcd_event_handler+0xd8>
20000d4c:	e7fb      	b.n	20000d46 <dcd_event_handler+0x116>
20000d4e:	2001      	movs	r0, #1
20000d50:	4a11      	ldr	r2, [pc, #68]	; (20000d98 <dcd_event_handler+0x168>)
20000d52:	7811      	ldrb	r1, [r2, #0]
20000d54:	4381      	bics	r1, r0
20000d56:	7011      	strb	r1, [r2, #0]
20000d58:	7811      	ldrb	r1, [r2, #0]
20000d5a:	4399      	bics	r1, r3
20000d5c:	2300      	movs	r3, #0
20000d5e:	7011      	strb	r1, [r2, #0]
20000d60:	2104      	movs	r1, #4
20000d62:	7053      	strb	r3, [r2, #1]
20000d64:	7813      	ldrb	r3, [r2, #0]
20000d66:	438b      	bics	r3, r1
20000d68:	7013      	strb	r3, [r2, #0]
20000d6a:	4b0c      	ldr	r3, [pc, #48]	; (20000d9c <dcd_event_handler+0x16c>)
20000d6c:	681c      	ldr	r4, [r3, #0]
20000d6e:	6962      	ldr	r2, [r4, #20]
20000d70:	f3ef 8110 	mrs	r1, PRIMASK
20000d74:	b672      	cpsid	i
20000d76:	6813      	ldr	r3, [r2, #0]
20000d78:	2b00      	cmp	r3, #0
20000d7a:	d1c5      	bne.n	20000d08 <dcd_event_handler+0xd8>
20000d7c:	e7fb      	b.n	20000d76 <dcd_event_handler+0x146>
20000d7e:	2200      	movs	r2, #0
20000d80:	3201      	adds	r2, #1
20000d82:	b2d2      	uxtb	r2, r2
20000d84:	429a      	cmp	r2, r3
20000d86:	d9fb      	bls.n	20000d80 <dcd_event_handler+0x150>
20000d88:	e781      	b.n	20000c8e <dcd_event_handler+0x5e>
20000d8a:	46c0      	nop			; (mov r8, r8)
20000d8c:	20001cb4 	.word	0x20001cb4
20000d90:	10004e01 	.word	0x10004e01
20000d94:	20001244 	.word	0x20001244
20000d98:	2000156c 	.word	0x2000156c
20000d9c:	200015c4 	.word	0x200015c4

20000da0 <__aeabi_idiv0>:
20000da0:	4770      	bx	lr
20000da2:	46c0      	nop			; (mov r8, r8)
20000da4:	0000      	movs	r0, r0
	...

20000da8 <____wrap_memset_veneer>:
20000da8:	b401      	push	{r0}
20000daa:	4802      	ldr	r0, [pc, #8]	; (20000db4 <____wrap_memset_veneer+0xc>)
20000dac:	4684      	mov	ip, r0
20000dae:	bc01      	pop	{r0}
20000db0:	4760      	bx	ip
20000db2:	bf00      	nop
20000db4:	10004929 	.word	0x10004929

20000db8 <__time_us_64_veneer>:
20000db8:	b401      	push	{r0}
20000dba:	4802      	ldr	r0, [pc, #8]	; (20000dc4 <__time_us_64_veneer+0xc>)
20000dbc:	4684      	mov	ip, r0
20000dbe:	bc01      	pop	{r0}
20000dc0:	4760      	bx	ip
20000dc2:	bf00      	nop
20000dc4:	100017ad 	.word	0x100017ad

20000dc8 <__tu_fifo_write_veneer>:
20000dc8:	b401      	push	{r0}
20000dca:	4802      	ldr	r0, [pc, #8]	; (20000dd4 <__tu_fifo_write_veneer+0xc>)
20000dcc:	4684      	mov	ip, r0
20000dce:	bc01      	pop	{r0}
20000dd0:	4760      	bx	ip
20000dd2:	bf00      	nop
20000dd4:	10006dad 	.word	0x10006dad

20000dd8 <____wrap_memcpy_veneer>:
20000dd8:	b401      	push	{r0}
20000dda:	4802      	ldr	r0, [pc, #8]	; (20000de4 <____wrap_memcpy_veneer+0xc>)
20000ddc:	4684      	mov	ip, r0
20000dde:	bc01      	pop	{r0}
20000de0:	4760      	bx	ip
20000de2:	bf00      	nop
20000de4:	10004935 	.word	0x10004935

20000de8 <__panic_veneer>:
20000de8:	b401      	push	{r0}
20000dea:	4802      	ldr	r0, [pc, #8]	; (20000df4 <__panic_veneer+0xc>)
20000dec:	4684      	mov	ip, r0
20000dee:	bc01      	pop	{r0}
20000df0:	4760      	bx	ip
20000df2:	bf00      	nop
20000df4:	10002455 	.word	0x10002455

20000df8 <____wrap___aeabi_lmul_veneer>:
20000df8:	b401      	push	{r0}
20000dfa:	4802      	ldr	r0, [pc, #8]	; (20000e04 <____wrap___aeabi_lmul_veneer+0xc>)
20000dfc:	4684      	mov	ip, r0
20000dfe:	bc01      	pop	{r0}
20000e00:	4760      	bx	ip
20000e02:	bf00      	nop
20000e04:	10004755 	.word	0x10004755

20000e08 <__best_effort_wfe_or_timeout_veneer>:
20000e08:	b401      	push	{r0}
20000e0a:	4802      	ldr	r0, [pc, #8]	; (20000e14 <__best_effort_wfe_or_timeout_veneer+0xc>)
20000e0c:	4684      	mov	ip, r0
20000e0e:	bc01      	pop	{r0}
20000e10:	4760      	bx	ip
20000e12:	bf00      	nop
20000e14:	10001605 	.word	0x10001605

20000e18 <_ZZ4mainE11last_sent_x>:
20000e18:	42b40000                                ...B

20000e1c <_ZZ4mainE11last_sent_y>:
20000e1c:	42b40000                                ...B

20000e20 <servo1_angle>:
20000e20:	42b40000                                ...B

20000e24 <servo2_angle>:
20000e24:	42b40000                                ...B

20000e28 <striped_spin_lock_num>:
20000e28:	00000010                                ....

20000e2c <irq_handler_chain_slots>:
20000e2c:	00000000 	.word	0x00000000
20000e30:	00010000 	.word	0x00010000
	...
20000e3c:	00020000 	.word	0x00020000
	...
20000e48:	00030000 	.word	0x00030000
	...
20000e54:	00ff0000 	.word	0x00ff0000
20000e58:	00000000 	.word	0x00000000

20000e5c <irq_handler_chain_first_slot>:
20000e5c:	b501      	push	{r0, lr}
20000e5e:	6848      	ldr	r0, [r1, #4]
20000e60:	3101      	adds	r1, #1
20000e62:	468e      	mov	lr, r1
20000e64:	4700      	bx	r0

20000e66 <irq_handler_chain_remove_tail>:
20000e66:	4670      	mov	r0, lr
20000e68:	3809      	subs	r0, #9
20000e6a:	4901      	ldr	r1, [pc, #4]	; (20000e70 <irq_handler_chain_remove_tail+0xa>)
20000e6c:	4788      	blx	r1
20000e6e:	bd01      	pop	{r0, pc}
20000e70:	10000e81 	.word	0x10000e81

20000e74 <default_alarm_pool>:
20000e74:	20000e8c 00000000 20000f20 200017cc     ... .... .. ... 
	...

20000e8c <default_alarm_pool_heap>:
20000e8c:	200017dc 00000000 00000000 00000010     ... ............
20000e9c:	00000000                                ....

20000ea0 <aeabi_bits_funcs>:
20000ea0:	00003350 	.word	0x00003350
20000ea4:	0000334c 	.word	0x0000334c
20000ea8:	00003354 	.word	0x00003354
20000eac:	00003352 	.word	0x00003352

20000eb0 <aeabi_bits_funcs_end>:
20000eb0:	0000534d 	.word	0x0000534d
20000eb4:	0000434d 	.word	0x0000434d
20000eb8:	00003453 	.word	0x00003453
20000ebc:	00003443 	.word	0x00003443

20000ec0 <stdio_usb>:
20000ec0:	10004f49 00000000 10004eb9 10004e41     IO.......N..AN..
20000ed0:	00000000 00000100                       ........

20000ed8 <ep_dir_string>:
20000ed8:	1000761c 10007620                       .v.. v..

20000ee0 <_usbd_qdef>:
20000ee0:	200015c8 000c0010 00000000 00000000     ... ............
	...

20000efc <_usbd_rhport>:
20000efc:	000000ff                                ....

20000f00 <print_mutex>:
	...

20000f08 <__mutex_array_end>:
20000f08:	10004919 	.word	0x10004919
20000f0c:	10003a55 	.word	0x10003a55
20000f10:	10004161 	.word	0x10004161
20000f14:	10004889 	.word	0x10004889

20000f18 <__frame_dummy_init_array_entry>:
20000f18:	100002e5 10005271                       ....qR..
